

Microchip MPLAB XC8 Assembler V2.46 build 20240104201356 
                                                                                               Sat Aug 10 06:55:06 2024

Microchip MPLAB XC8 C Compiler v2.46 (Free license) build 20240104201356 Og1 
     1                           	processor	18F46K20
     2                           	fnconf	rparam,??,?,0
     3                           	pagewidth 120
     4                           	opt	flic
     5                           	psect	idataCOMRAM,global,class=CODE,delta=1,noexec
     6                           	psect	idataBANK0,global,class=CODE,delta=1,noexec
     7                           	psect	cinit,global,reloc=2,class=CODE,delta=1
     8                           	psect	bssCOMRAM,global,class=COMRAM,space=1,delta=1,lowdata,noexec
     9                           	psect	dataCOMRAM,global,class=COMRAM,space=1,delta=1,lowdata,noexec
    10                           	psect	dataBANK0,global,class=BANK0,space=1,delta=1,lowdata,noexec
    11                           	psect	cstackBANK0,global,class=BANK0,space=1,delta=1,lowdata,noexec
    12                           	psect	cstackCOMRAM,global,class=COMRAM,space=1,delta=1,lowdata,noexec
    13                           	psect	text0,global,reloc=2,class=CODE,delta=1
    14                           	psect	text1,global,reloc=2,class=CODE,delta=1
    15                           	psect	text2,global,reloc=2,class=CODE,delta=1
    16                           	psect	text3,global,reloc=2,class=CODE,delta=1
    17                           	psect	text4,global,reloc=2,class=CODE,delta=1
    18                           	psect	text5,global,reloc=2,class=CODE,delta=1
    19                           	psect	text6,global,reloc=2,class=CODE,delta=1
    20                           	psect	text7,global,reloc=2,class=CODE,delta=1
    21                           	psect	text8,global,reloc=2,class=CODE,delta=1
    22                           	psect	text9,global,reloc=2,class=CODE,delta=1
    23                           	psect	intcode,global,reloc=2,class=CODE,delta=1
    24                           	psect	text11,global,reloc=2,class=CODE,delta=1
    25                           	psect	text12,global,reloc=2,class=CODE,delta=1
    26                           	psect	text13,global,reloc=2,class=CODE,delta=1
    27                           	psect	text14,global,reloc=2,class=CODE,delta=1
    28                           	psect	text15,global,reloc=2,class=CODE,delta=1
    29                           	psect	text16,global,reloc=2,class=CODE,delta=1
    30                           	psect	text17,global,reloc=2,class=CODE,delta=1
    31                           	psect	text18,global,reloc=2,class=CODE,delta=1
    32                           	psect	text19,global,reloc=2,class=CODE,delta=1
    33                           	psect	text20,global,reloc=2,class=CODE,delta=1
    34                           	psect	text21,global,reloc=2,class=CODE,delta=1
    35                           	psect	text22,global,reloc=2,class=CODE,delta=1
    36                           	psect	text23,global,reloc=2,class=CODE,delta=1
    37                           	psect	text24,global,reloc=2,class=CODE,delta=1
    38                           	psect	text25,global,reloc=2,class=CODE,delta=1
    39                           	psect	text26,global,reloc=2,class=CODE,delta=1
    40                           	psect	text27,global,reloc=2,class=CODE,delta=1
    41                           	psect	text28,global,reloc=2,class=CODE,delta=1
    42                           	psect	smallconst,global,reloc=2,class=SMALLCONST,delta=1,noexec
    43                           	psect	intsave_regs,global,class=BIGRAM,space=1,delta=1,noexec
    44                           	psect	rparam,global,class=COMRAM,space=1,delta=1,noexec
    45                           	psect	temp,global,ovrld,common,class=COMRAM,space=1,delta=1,lowdata
    46                           	psect	config,global,abs,ovrld,class=CONFIG,space=4,delta=1,noexec
    47   000000                     
    48                           ; Generated 12/10/2023 GMT
    49                           ; 
    50                           ; Copyright © 2023, Microchip Technology Inc. and its subsidiaries ("Microchip")
    51                           ; All rights reserved.
    52                           ; 
    53                           ; This software is developed by Microchip Technology Inc. and its subsidiaries ("Microch
      +                          ip").
    54                           ; 
    55                           ; Redistribution and use in source and binary forms, with or without modification, are
    56                           ; permitted provided that the following conditions are met:
    57                           ; 
    58                           ;     1. Redistributions of source code must retain the above copyright notice, this lis
      +                          t of
    59                           ;        conditions and the following disclaimer.
    60                           ; 
    61                           ;     2. Redistributions in binary form must reproduce the above copyright notice, this 
      +                          list
    62                           ;        of conditions and the following disclaimer in the documentation and/or other
    63                           ;        materials provided with the distribution. Publication is not required when
    64                           ;        this file is used in an embedded application.
    65                           ; 
    66                           ;     3. Microchip's name may not be used to endorse or promote products derived from th
      +                          is
    67                           ;        software without specific prior written permission.
    68                           ; 
    69                           ; THIS SOFTWARE IS PROVIDED BY MICROCHIP "AS IS" AND ANY EXPRESS OR IMPLIED WARRANTIES,
    70                           ; INCLUDING, BUT NOT LIMITED TO, THE IMPLIED WARRANTIES OF MERCHANTABILITY AND FITNESS F
      +                          OR
    71                           ; PURPOSE ARE DISCLAIMED.  IN NO EVENT SHALL MICROCHIP BE LIABLE FOR ANY DIRECT, INDIREC
      +                          T,
    72                           ; INCIDENTAL, SPECIAL, EXEMPLARY, OR CONSEQUENTIAL DAMAGES (INCLUDING BUT NOT LIMITED TO
    73                           ; PROCUREMENT OF SUBSTITUTE GOODS OR SERVICES; LOSS OF USE, DATA OR PROFITS; OR BUSINESS
    74                           ; INTERRUPTION) HOWSOEVER CAUSED AND ON ANY THEORY OF LIABILITY, WHETHER IN CONTRACT, ST
      +                          RICT
    75                           ; LIABILITY, OR TORT (INCLUDING NEGLIGENCE OR OTHERWISE) ARISING IN ANY WAY OUT OF THE U
      +                          SE OF
    76                           ; THIS SOFTWARE, EVEN IF ADVISED OF THE POSSIBILITY OF SUCH DAMAGE.
    77                           ; 
    78                           ; 
    79                           ; Code-generator required, PIC18F46K20 Definitions
    80                           ; 
    81                           ; SFR Addresses
    82   000000                     
    83                           	psect	idataCOMRAM
    84   001894                     __pidataCOMRAM:
    85                           	callstack 0
    86                           
    87                           ;initializer for _tris_registers
    88   001894  92                 	db	146
    89   001895  0F                 	db	15
    90   001896  93                 	db	147
    91   001897  0F                 	db	15
    92   001898  94                 	db	148
    93   001899  0F                 	db	15
    94   00189A  95                 	db	149
    95   00189B  0F                 	db	15
    96   00189C  96                 	db	150
    97   00189D  0F                 	db	15
    98                           
    99                           ;initializer for _lat_registers
   100   00189E  89                 	db	137
   101   00189F  0F                 	db	15
   102   0018A0  8A                 	db	138
   103   0018A1  0F                 	db	15
   104   0018A2  8B                 	db	139
   105   0018A3  0F                 	db	15
   106   0018A4  8C                 	db	140
   107   0018A5  0F                 	db	15
   108   0018A6  8D                 	db	141
   109   0018A7  0F                 	db	15
   110                           
   111                           ;initializer for _RB7_Flag
   112   0018A8  01                 	db	1
   113                           
   114                           ;initializer for _RB6_Flag
   115   0018A9  01                 	db	1
   116                           
   117                           ;initializer for _RB5_Flag
   118   0018AA  01                 	db	1
   119                           
   120                           ;initializer for _RB4_Flag
   121   0018AB  01                 	db	1
   122                           
   123                           ;initializer for _RB4_obj
   124   0018AC  38                 	db	low _RB4_INT_APP_ISR_HIGH
   125   0018AD  19                 	db	high _RB4_INT_APP_ISR_HIGH
   126   0018AE  2E                 	db	low _RB4_INT_APP_ISR_LOW
   127   0018AF  19                 	db	high _RB4_INT_APP_ISR_LOW
   128   0018B0  61                 	db	97
   129   0018B1  01                 	db	1
   130                           
   131                           ;initializer for _led4
   132   0018B2  32                 	db	50
   133                           
   134                           ;initializer for _led3
   135   0018B3  22                 	db	34
   136                           
   137                           ;initializer for _led2
   138   0018B4  12                 	db	18
   139                           
   140                           ;initializer for _led1
   141   0018B5  02                 	db	2
   142                           
   143                           	psect	idataBANK0
   144   0018D4                     __pidataBANK0:
   145                           	callstack 0
   146                           
   147                           ;initializer for _port_registers
   148   0018D4  80                 	db	128
   149   0018D5  0F                 	db	15
   150   0018D6  81                 	db	129
   151   0018D7  0F                 	db	15
   152   0018D8  82                 	db	130
   153   0018D9  0F                 	db	15
   154   0018DA  83                 	db	131
   155   0018DB  0F                 	db	15
   156   0018DC  84                 	db	132
   157   0018DD  0F                 	db	15
   158                           
   159                           ;initializer for _RB7_obj
   160   0018DE  FC                 	db	low _RB7_INT_APP_ISR_HIGH
   161   0018DF  18                 	db	high _RB7_INT_APP_ISR_HIGH
   162   0018E0  42                 	db	low _RB7_INT_APP_ISR_LOW
   163   0018E1  19                 	db	high _RB7_INT_APP_ISR_LOW
   164   0018E2  79                 	db	121
   165   0018E3  01                 	db	1
   166                           
   167                           ;initializer for _RB6_obj
   168   0018E4  10                 	db	low _RB6_INT_APP_ISR_HIGH
   169   0018E5  19                 	db	high _RB6_INT_APP_ISR_HIGH
   170   0018E6  06                 	db	low _RB6_INT_APP_ISR_LOW
   171   0018E7  19                 	db	high _RB6_INT_APP_ISR_LOW
   172   0018E8  71                 	db	113
   173   0018E9  01                 	db	1
   174                           
   175                           ;initializer for _RB5_obj
   176   0018EA  24                 	db	low _RB5_INT_APP_ISR_HIGH
   177   0018EB  19                 	db	high _RB5_INT_APP_ISR_HIGH
   178   0018EC  1A                 	db	low _RB5_INT_APP_ISR_LOW
   179   0018ED  19                 	db	high _RB5_INT_APP_ISR_LOW
   180   0018EE  69                 	db	105
   181   0018EF  01                 	db	1
   182   000000                     _INTCON2bits	set	4081
   183   000000                     _PORTBbits	set	3969
   184   000000                     _PORTA	set	3968
   185   000000                     _LATA	set	3977
   186   000000                     _TRISA	set	3986
   187   000000                     _LATE	set	3981
   188   000000                     _LATD	set	3980
   189   000000                     _LATC	set	3979
   190   000000                     _LATB	set	3978
   191   000000                     _INTCON3bits	set	4080
   192   000000                     _INTCONbits	set	4082
   193   000000                     _TRISE	set	3990
   194   000000                     _TRISD	set	3989
   195   000000                     _TRISC	set	3988
   196   000000                     _TRISB	set	3987
   197   000000                     _PORTE	set	3972
   198   000000                     _PORTD	set	3971
   199   000000                     _PORTC	set	3970
   200   000000                     _PORTB	set	3969
   201                           
   202                           ; #config settings
   203                           
   204                           	psect	cinit
   205   0017AA                     __pcinit:
   206                           	callstack 0
   207   0017AA                     start_initialization:
   208                           	callstack 0
   209   0017AA                     __initialization:
   210                           	callstack 0
   211                           
   212                           ; Initialize objects allocated to BANK0 (28 bytes)
   213                           ; load TBLPTR registers with __pidataBANK0
   214   0017AA  0ED4               	movlw	low __pidataBANK0
   215   0017AC  6EF6               	movwf	tblptrl,c
   216   0017AE  0E18               	movlw	high __pidataBANK0
   217   0017B0  6EF7               	movwf	tblptrh,c
   218   0017B2  0E00               	movlw	low (__pidataBANK0 shr (0+16))
   219   0017B4  6EF8               	movwf	tblptru,c
   220   0017B6  EE00  F060         	lfsr	0,__pdataBANK0
   221   0017BA  EE10 F01C          	lfsr	1,28
   222   0017BE                     copy_data0:
   223   0017BE  0009               	tblrd		*+
   224   0017C0  CFF5 FFEE          	movff	tablat,postinc0
   225   0017C4  50E5               	movf	postdec1,w,c
   226   0017C6  50E1               	movf	fsr1l,w,c
   227   0017C8  E1FA               	bnz	copy_data0
   228                           
   229                           ; Initialize objects allocated to COMRAM (34 bytes)
   230                           ; load TBLPTR registers with __pidataCOMRAM
   231   0017CA  0E94               	movlw	low __pidataCOMRAM
   232   0017CC  6EF6               	movwf	tblptrl,c
   233   0017CE  0E18               	movlw	high __pidataCOMRAM
   234   0017D0  6EF7               	movwf	tblptrh,c
   235   0017D2  0E00               	movlw	low (__pidataCOMRAM shr (0+16))
   236   0017D4  6EF8               	movwf	tblptru,c
   237   0017D6  EE00  F001         	lfsr	0,__pdataCOMRAM
   238   0017DA  EE10 F022          	lfsr	1,34
   239   0017DE                     copy_data1:
   240   0017DE  0009               	tblrd		*+
   241   0017E0  CFF5 FFEE          	movff	tablat,postinc0
   242   0017E4  50E5               	movf	postdec1,w,c
   243   0017E6  50E1               	movf	fsr1l,w,c
   244   0017E8  E1FA               	bnz	copy_data1
   245                           
   246                           ; Clear objects allocated to COMRAM (26 bytes)
   247   0017EA  EE00  F023         	lfsr	0,__pbssCOMRAM
   248   0017EE  0E1A               	movlw	26
   249   0017F0                     clear_0:
   250   0017F0  6AEE               	clrf	postinc0,c
   251   0017F2  06E8               	decf	wreg,f,c
   252   0017F4  E1FD               	bnz	clear_0
   253   0017F6                     end_of_initialization:
   254                           	callstack 0
   255   0017F6                     __end_of__initialization:
   256                           	callstack 0
   257   0017F6  904F               	bcf	int$flags,0,c	;clear compiler interrupt flag (level 1)
   258   0017F8  924F               	bcf	int$flags,1,c	;clear compiler interrupt flag (level 2)
   259   0017FA  0E00               	movlw	low (__Lmediumconst shr (0+16))
   260   0017FC  6EF8               	movwf	tblptru,c
   261   0017FE  0100               	movlb	0
   262   001800  EF02  F00A         	goto	_main	;jump to C main() function
   263                           
   264                           	psect	bssCOMRAM
   265   000023                     __pbssCOMRAM:
   266                           	callstack 0
   267   000023                     _RB7_ISRS:
   268                           	callstack 0
   269   000023                     	ds	4
   270   000027                     _RB6_ISRS:
   271                           	callstack 0
   272   000027                     	ds	4
   273   00002B                     _RB5_ISRS:
   274                           	callstack 0
   275   00002B                     	ds	4
   276   00002F                     _RB4_ISRS:
   277                           	callstack 0
   278   00002F                     	ds	4
   279   000033                     _INT2_INTERRUPT_HANDLER:
   280                           	callstack 0
   281   000033                     	ds	2
   282   000035                     _INT1_INTERRUPT_HANDLER:
   283                           	callstack 0
   284   000035                     	ds	2
   285   000037                     _INT0_INTERRUPT_HANDLER:
   286                           	callstack 0
   287   000037                     	ds	2
   288   000039                     led_toggle@F3171:
   289                           	callstack 0
   290   000039                     	ds	1
   291   00003A                     led_turn_off@F3166:
   292                           	callstack 0
   293   00003A                     	ds	1
   294   00003B                     led_turn_on@F3161:
   295                           	callstack 0
   296   00003B                     	ds	1
   297   00003C                     led_initialize@F3156:
   298                           	callstack 0
   299   00003C                     	ds	1
   300                           
   301                           	psect	dataCOMRAM
   302   000001                     __pdataCOMRAM:
   303                           	callstack 0
   304   000001                     _tris_registers:
   305                           	callstack 0
   306   000001                     	ds	10
   307   00000B                     _lat_registers:
   308                           	callstack 0
   309   00000B                     	ds	10
   310   000015                     _RB7_Flag:
   311                           	callstack 0
   312   000015                     	ds	1
   313   000016                     _RB6_Flag:
   314                           	callstack 0
   315   000016                     	ds	1
   316   000017                     _RB5_Flag:
   317                           	callstack 0
   318   000017                     	ds	1
   319   000018                     _RB4_Flag:
   320                           	callstack 0
   321   000018                     	ds	1
   322   000019                     _RB4_obj:
   323                           	callstack 0
   324   000019                     	ds	6
   325   00001F                     _led4:
   326                           	callstack 0
   327   00001F                     	ds	1
   328   000020                     _led3:
   329                           	callstack 0
   330   000020                     	ds	1
   331   000021                     _led2:
   332                           	callstack 0
   333   000021                     	ds	1
   334   000022                     _led1:
   335                           	callstack 0
   336   000022                     	ds	1
   337                           
   338                           	psect	dataBANK0
   339   000060                     __pdataBANK0:
   340                           	callstack 0
   341   000060                     _port_registers:
   342                           	callstack 0
   343   000060                     	ds	10
   344   00006A                     _RB7_obj:
   345                           	callstack 0
   346   00006A                     	ds	6
   347   000070                     _RB6_obj:
   348                           	callstack 0
   349   000070                     	ds	6
   350   000076                     _RB5_obj:
   351                           	callstack 0
   352   000076                     	ds	6
   353                           
   354                           	psect	cstackBANK0
   355   00007C                     __pcstackBANK0:
   356                           	callstack 0
   357   00007C                     gpio_pin_direction_initialize@_pin_config_t:
   358                           	callstack 0
   359   00007C                     Interrupt_RBx_Enable@int_obj:
   360                           	callstack 0
   361   00007C                     Interrupt_RBx_Set_Interrupt_Handler@int_obj:
   362                           	callstack 0
   363   00007C                     application_init@ret:
   364                           	callstack 0
   365                           
   366                           ; 1 bytes @ 0x0
   367   00007C                     	ds	1
   368   00007D                     ??_gpio_pin_direction_initialize:
   369   00007D                     Interrupt_RBx_Set_Interrupt_Handler@ret:
   370                           	callstack 0
   371                           
   372                           ; 1 bytes @ 0x1
   373   00007D                     	ds	5
   374   000082                     gpio_pin_direction_initialize@ret:
   375                           	callstack 0
   376                           
   377                           ; 1 bytes @ 0x6
   378   000082                     	ds	1
   379   000083                     gpio_pin_initialize@_pin_config_t:
   380                           	callstack 0
   381                           
   382                           ; 1 bytes @ 0x7
   383   000083                     	ds	1
   384   000084                     ??_gpio_pin_initialize:
   385                           
   386                           ; 1 bytes @ 0x8
   387   000084                     	ds	1
   388   000085                     gpio_pin_initialize@ret:
   389                           	callstack 0
   390                           
   391                           ; 1 bytes @ 0x9
   392   000085                     	ds	1
   393   000086                     led_initialize@led:
   394                           	callstack 0
   395   000086                     Interrupt_RBx_Pin_Init@int_obj:
   396                           	callstack 0
   397                           
   398                           ; 1 bytes @ 0xA
   399   000086                     	ds	1
   400   000087                     ??_led_initialize:
   401   000087                     Interrupt_RBx_Pin_Init@ret:
   402                           	callstack 0
   403                           
   404                           ; 1 bytes @ 0xB
   405   000087                     	ds	1
   406   000088                     led_initialize@ret:
   407                           	callstack 0
   408   000088                     Interrupt_RBx_Init@int_obj:
   409                           	callstack 0
   410                           
   411                           ; 1 bytes @ 0xC
   412   000088                     	ds	1
   413   000089                     led_initialize@pin:
   414                           	callstack 0
   415   000089                     Interrupt_RBx_Init@ret:
   416                           	callstack 0
   417                           
   418                           ; 1 bytes @ 0xD
   419   000089                     	ds	1
   420   00008A                     main@ret:
   421                           	callstack 0
   422                           
   423                           ; 1 bytes @ 0xE
   424   00008A                     	ds	1
   425                           
   426                           	psect	cstackCOMRAM
   427   00003D                     __pcstackCOMRAM:
   428                           	callstack 0
   429   00003D                     gpio_pin_write_logic@_pin_config_t:
   430                           	callstack 0
   431                           
   432                           ; 1 bytes @ 0x0
   433   00003D                     	ds	1
   434   00003E                     gpio_pin_write_logic@logic:
   435                           	callstack 0
   436                           
   437                           ; 1 bytes @ 0x1
   438   00003E                     	ds	1
   439   00003F                     ??_gpio_pin_write_logic:
   440                           
   441                           ; 1 bytes @ 0x2
   442   00003F                     	ds	5
   443   000044                     gpio_pin_write_logic@ret:
   444                           	callstack 0
   445                           
   446                           ; 1 bytes @ 0x7
   447   000044                     	ds	1
   448   000045                     led_turn_on@led:
   449                           	callstack 0
   450   000045                     led_turn_off@led:
   451                           	callstack 0
   452                           
   453                           ; 1 bytes @ 0x8
   454   000045                     	ds	1
   455   000046                     ??_led_turn_on:
   456   000046                     ??_led_turn_off:
   457                           
   458                           ; 1 bytes @ 0x9
   459   000046                     	ds	1
   460   000047                     led_turn_on@pin:
   461                           	callstack 0
   462   000047                     led_turn_off@pin:
   463                           	callstack 0
   464                           
   465                           ; 1 bytes @ 0xA
   466   000047                     	ds	1
   467   000048                     RB4_ISR@source:
   468                           	callstack 0
   469   000048                     RB5_ISR@source:
   470                           	callstack 0
   471   000048                     RB6_ISR@source:
   472                           	callstack 0
   473   000048                     RB7_ISR@source:
   474                           	callstack 0
   475                           
   476                           ; 1 bytes @ 0xB
   477   000048                     	ds	1
   478   000049                     ??_Interrupt_Manager:
   479                           
   480                           ; 1 bytes @ 0xC
   481   000049                     	ds	6
   482                           
   483 ;;
   484 ;;Main: autosize = 0, tempsize = 0, incstack = 0, save=0
   485 ;;
   486 ;; *************** function _main *****************
   487 ;; Defined at:
   488 ;;		line 88 in file "app.c"
   489 ;; Parameters:    Size  Location     Type
   490 ;;		None
   491 ;; Auto vars:     Size  Location     Type
   492 ;;  ret             1   14[BANK0 ] unsigned char 
   493 ;; Return value:  Size  Location     Type
   494 ;;                  2  495[None  ] int 
   495 ;; Registers used:
   496 ;;		wreg, fsr2l, fsr2h, status,2, status,0, prodl, prodh, cstack
   497 ;; Tracked objects:
   498 ;;		On entry : 0/0
   499 ;;		On exit  : 0/0
   500 ;;		Unchanged: 0/0
   501 ;; Data sizes:     COMRAM   BANK0   BANK1   BANK2   BANK3   BANK4   BANK5   BANK6   BANK7   BANK8   BANK9  BANK10  BANK1
      +1  BANK12  BANK13  BANK14  BANK15
   502 ;;      Params:         0       0       0       0       0       0       0       0       0       0       0       0       
      +0       0       0       0       0
   503 ;;      Locals:         0       1       0       0       0       0       0       0       0       0       0       0       
      +0       0       0       0       0
   504 ;;      Temps:          0       0       0       0       0       0       0       0       0       0       0       0       
      +0       0       0       0       0
   505 ;;      Totals:         0       1       0       0       0       0       0       0       0       0       0       0       
      +0       0       0       0       0
   506 ;;Total ram usage:        1 bytes
   507 ;; Hardware stack levels required when called: 9
   508 ;; This function calls:
   509 ;;		_Interrupt_RBx_Init
   510 ;;		_application_init
   511 ;;		_led_initialize
   512 ;; This function is called by:
   513 ;;		Startup code after reset
   514 ;; This function uses a non-reentrant model
   515 ;;
   516                           
   517                           	psect	text0
   518   001404                     __ptext0:
   519                           	callstack 0
   520   001404                     _main:
   521                           	callstack 22
   522   001404                     
   523                           ;app.c: 90:     Std_ReturnType ret = application_init();
   524   001404  EC78  F00C         	call	_application_init	;wreg free
   525   001408  0100               	movlb	0	; () banked
   526   00140A  6F8A               	movwf	main@ret& (0+255),b
   527   00140C                     
   528                           ; BSR set to: 0
   529                           ;app.c: 92:     if ((Std_ReturnType)0x01u == ret)
   530   00140C  058A               	decf	main@ret& (0+255),w,b
   531   00140E  A4D8               	btfss	status,2,c
   532   001410  EF0C  F00A         	goto	u2481
   533   001414  EF0E  F00A         	goto	u2480
   534   001418                     u2481:
   535   001418  EF10  F00A         	goto	l2595
   536   00141C                     u2480:
   537   00141C  EF42  F00A         	goto	l497
   538   001420                     l2595:
   539                           
   540                           ; BSR set to: 0
   541                           ;app.c: 96:     ret |= Interrupt_RBx_Init(&RB4_obj);
   542   001420  0E19               	movlw	low _RB4_obj
   543   001422  6F88               	movwf	Interrupt_RBx_Init@int_obj& (0+255),b
   544   001424  EC27  F00C         	call	_Interrupt_RBx_Init	;wreg free
   545   001428  0100               	movlb	0	; () banked
   546   00142A  138A               	iorwf	main@ret& (0+255),f,b
   547                           
   548                           ;app.c: 97:     ret |= Interrupt_RBx_Init(&RB5_obj);
   549   00142C  0E76               	movlw	low _RB5_obj
   550   00142E  6F88               	movwf	Interrupt_RBx_Init@int_obj& (0+255),b
   551   001430  EC27  F00C         	call	_Interrupt_RBx_Init	;wreg free
   552   001434  0100               	movlb	0	; () banked
   553   001436  138A               	iorwf	main@ret& (0+255),f,b
   554                           
   555                           ;app.c: 98:     ret |= Interrupt_RBx_Init(&RB6_obj);
   556   001438  0E70               	movlw	low _RB6_obj
   557   00143A  6F88               	movwf	Interrupt_RBx_Init@int_obj& (0+255),b
   558   00143C  EC27  F00C         	call	_Interrupt_RBx_Init	;wreg free
   559   001440  0100               	movlb	0	; () banked
   560   001442  138A               	iorwf	main@ret& (0+255),f,b
   561                           
   562                           ;app.c: 99:     ret |= Interrupt_RBx_Init(&RB7_obj);
   563   001444  0E6A               	movlw	low _RB7_obj
   564   001446  6F88               	movwf	Interrupt_RBx_Init@int_obj& (0+255),b
   565   001448  EC27  F00C         	call	_Interrupt_RBx_Init	;wreg free
   566   00144C  0100               	movlb	0	; () banked
   567   00144E  138A               	iorwf	main@ret& (0+255),f,b
   568                           
   569                           ;app.c: 101:     ret |= led_initialize(&led1);
   570   001450  0E22               	movlw	low _led1
   571   001452  6F86               	movwf	led_initialize@led& (0+255),b
   572   001454  EC44  F00A         	call	_led_initialize	;wreg free
   573   001458  0100               	movlb	0	; () banked
   574   00145A  138A               	iorwf	main@ret& (0+255),f,b
   575                           
   576                           ;app.c: 102:     ret |= led_initialize(&led2);
   577   00145C  0E21               	movlw	low _led2
   578   00145E  6F86               	movwf	led_initialize@led& (0+255),b
   579   001460  EC44  F00A         	call	_led_initialize	;wreg free
   580   001464  0100               	movlb	0	; () banked
   581   001466  138A               	iorwf	main@ret& (0+255),f,b
   582                           
   583                           ;app.c: 103:     ret |= led_initialize(&led3);
   584   001468  0E20               	movlw	low _led3
   585   00146A  6F86               	movwf	led_initialize@led& (0+255),b
   586   00146C  EC44  F00A         	call	_led_initialize	;wreg free
   587   001470  0100               	movlb	0	; () banked
   588   001472  138A               	iorwf	main@ret& (0+255),f,b
   589                           
   590                           ;app.c: 104:     ret |= led_initialize(&led4);
   591   001474  0E1F               	movlw	low _led4
   592   001476  6F86               	movwf	led_initialize@led& (0+255),b
   593   001478  EC44  F00A         	call	_led_initialize	;wreg free
   594   00147C  0100               	movlb	0	; () banked
   595   00147E  138A               	iorwf	main@ret& (0+255),f,b
   596   001480                     l498:
   597   001480  EF40  F00A         	goto	l498
   598   001484                     l497:
   599                           
   600                           ; BSR set to: 0
   601   001484  EF5F  F001         	goto	start
   602   001488                     __end_of_main:
   603                           	callstack 0
   604                           
   605 ;; *************** function _led_initialize *****************
   606 ;; Defined at:
   607 ;;		line 36 in file "ECU_Layer/led/ecu_led.c"
   608 ;; Parameters:    Size  Location     Type
   609 ;;  led             1   10[BANK0 ] PTR const struct .
   610 ;;		 -> led4(1), led3(1), led2(1), led1(1), 
   611 ;; Auto vars:     Size  Location     Type
   612 ;;  pin             1   13[BANK0 ] struct .
   613 ;;  ret             1   12[BANK0 ] unsigned char 
   614 ;; Return value:  Size  Location     Type
   615 ;;                  1    wreg      unsigned char 
   616 ;; Registers used:
   617 ;;		wreg, fsr2l, fsr2h, status,2, status,0, prodl, prodh, cstack
   618 ;; Tracked objects:
   619 ;;		On entry : 0/0
   620 ;;		On exit  : 0/0
   621 ;;		Unchanged: 0/0
   622 ;; Data sizes:     COMRAM   BANK0   BANK1   BANK2   BANK3   BANK4   BANK5   BANK6   BANK7   BANK8   BANK9  BANK10  BANK1
      +1  BANK12  BANK13  BANK14  BANK15
   623 ;;      Params:         0       1       0       0       0       0       0       0       0       0       0       0       
      +0       0       0       0       0
   624 ;;      Locals:         0       2       0       0       0       0       0       0       0       0       0       0       
      +0       0       0       0       0
   625 ;;      Temps:          0       1       0       0       0       0       0       0       0       0       0       0       
      +0       0       0       0       0
   626 ;;      Totals:         0       4       0       0       0       0       0       0       0       0       0       0       
      +0       0       0       0       0
   627 ;;Total ram usage:        4 bytes
   628 ;; Hardware stack levels used: 1
   629 ;; Hardware stack levels required when called: 7
   630 ;; This function calls:
   631 ;;		_gpio_pin_initialize
   632 ;; This function is called by:
   633 ;;		_main
   634 ;; This function uses a non-reentrant model
   635 ;;
   636                           
   637                           	psect	text1
   638   001488                     __ptext1:
   639                           	callstack 0
   640   001488                     _led_initialize:
   641                           	callstack 23
   642   001488                     
   643                           ;ECU_Layer/led/ecu_led.c: 36: Std_ReturnType led_initialize(const led_t *led);ECU_Layer/
      +                          led/ecu_led.c: 37: {;ECU_Layer/led/ecu_led.c: 38:     Std_ReturnType ret = (Std_ReturnTy
      +                          pe)0x00u;
   644   001488  0E00               	movlw	0
   645   00148A  0100               	movlb	0	; () banked
   646   00148C  6F88               	movwf	led_initialize@ret& (0+255),b
   647                           
   648                           ;ECU_Layer/led/ecu_led.c: 39:     if (((void*)0) == led)
   649   00148E  5186               	movf	led_initialize@led& (0+255),w,b
   650   001490  A4D8               	btfss	status,2,c
   651   001492  EF4D  F00A         	goto	u2401
   652   001496  EF4F  F00A         	goto	u2400
   653   00149A                     u2401:
   654   00149A  EF53  F00A         	goto	l9
   655   00149E                     u2400:
   656   00149E                     
   657                           ; BSR set to: 0
   658                           ;ECU_Layer/led/ecu_led.c: 40:     {;ECU_Layer/led/ecu_led.c: 41:         ret = (Std_Retu
      +                          rnType)0x01u;
   659   00149E  0E01               	movlw	1
   660   0014A0  6F88               	movwf	led_initialize@ret& (0+255),b
   661                           
   662                           ;ECU_Layer/led/ecu_led.c: 42:     }
   663   0014A2  EF7C  F00A         	goto	l2513
   664   0014A6                     l9:
   665                           
   666                           ; BSR set to: 0
   667                           ;ECU_Layer/led/ecu_led.c: 44:     {;ECU_Layer/led/ecu_led.c: 45:         pin_config_t pi
      +                          n = {
   668   0014A6  C03C  F089         	movff	led_initialize@F3156,led_initialize@pin
   669   0014AA                     
   670                           ; BSR set to: 0
   671   0014AA  5186               	movf	led_initialize@led& (0+255),w,b
   672   0014AC  6ED9               	movwf	fsr2l,c
   673   0014AE  6ADA               	clrf	fsr2h,c
   674   0014B0  50DF               	movf	223,w,c
   675   0014B2  0B0F               	andlw	15
   676   0014B4  6F87               	movwf	??_led_initialize& (0+255),b
   677   0014B6  5189               	movf	led_initialize@pin& (0+255),w,b
   678   0014B8  1987               	xorwf	??_led_initialize& (0+255),w,b
   679   0014BA  0BF8               	andlw	-8
   680   0014BC  1987               	xorwf	??_led_initialize& (0+255),w,b
   681   0014BE  6F89               	movwf	led_initialize@pin& (0+255),b
   682   0014C0  5186               	movf	led_initialize@led& (0+255),w,b
   683   0014C2  6ED9               	movwf	fsr2l,c
   684   0014C4  6ADA               	clrf	fsr2h,c
   685   0014C6  38DF               	swapf	223,w,c
   686   0014C8  0B07               	andlw	7
   687   0014CA  6F87               	movwf	??_led_initialize& (0+255),b
   688   0014CC  4787               	rlncf	??_led_initialize& (0+255),f,b
   689   0014CE  4787               	rlncf	??_led_initialize& (0+255),f,b
   690   0014D0  4787               	rlncf	??_led_initialize& (0+255),f,b
   691   0014D2  5189               	movf	led_initialize@pin& (0+255),w,b
   692   0014D4  1987               	xorwf	??_led_initialize& (0+255),w,b
   693   0014D6  0BC7               	andlw	-57
   694   0014D8  1987               	xorwf	??_led_initialize& (0+255),w,b
   695   0014DA  6F89               	movwf	led_initialize@pin& (0+255),b
   696   0014DC                     
   697                           ; BSR set to: 0
   698   0014DC  9D89               	bcf	led_initialize@pin& (0+255),6,b
   699   0014DE                     
   700                           ; BSR set to: 0
   701   0014DE  5186               	movf	led_initialize@led& (0+255),w,b
   702   0014E0  6ED9               	movwf	fsr2l,c
   703   0014E2  6ADA               	clrf	fsr2h,c
   704   0014E4  AEDF               	btfss	indf2,7,c
   705   0014E6  D002               	bra	u2415
   706   0014E8  8F89               	bsf	led_initialize@pin& (0+255),7,b
   707   0014EA  D002               	bra	u2417
   708   0014EC                     u2415:
   709   0014EC  0100               	movlb	0	; () banked
   710   0014EE  9F89               	bcf	led_initialize@pin& (0+255),7,b
   711   0014F0                     u2417:
   712   0014F0                     
   713                           ; BSR set to: 0
   714                           ;ECU_Layer/led/ecu_led.c: 51:         gpio_pin_initialize(&pin);
   715   0014F0  0E89               	movlw	low led_initialize@pin
   716   0014F2  6F83               	movwf	gpio_pin_initialize@_pin_config_t& (0+255),b
   717   0014F4  EC02  F00C         	call	_gpio_pin_initialize	;wreg free
   718   0014F8                     l2513:
   719                           
   720                           ;ECU_Layer/led/ecu_led.c: 53:     return (ret);
   721   0014F8  0100               	movlb	0	; () banked
   722   0014FA  5188               	movf	led_initialize@ret& (0+255),w,b
   723   0014FC                     
   724                           ; BSR set to: 0
   725   0014FC  0012               	return		;funcret
   726   0014FE                     __end_of_led_initialize:
   727                           	callstack 0
   728                           
   729 ;; *************** function _application_init *****************
   730 ;; Defined at:
   731 ;;		line 111 in file "app.c"
   732 ;; Parameters:    Size  Location     Type
   733 ;;		None
   734 ;; Auto vars:     Size  Location     Type
   735 ;;  ret             1    0[BANK0 ] unsigned char 
   736 ;; Return value:  Size  Location     Type
   737 ;;                  1    wreg      unsigned char 
   738 ;; Registers used:
   739 ;;		wreg, status,2, cstack
   740 ;; Tracked objects:
   741 ;;		On entry : 0/0
   742 ;;		On exit  : 0/0
   743 ;;		Unchanged: 0/0
   744 ;; Data sizes:     COMRAM   BANK0   BANK1   BANK2   BANK3   BANK4   BANK5   BANK6   BANK7   BANK8   BANK9  BANK10  BANK1
      +1  BANK12  BANK13  BANK14  BANK15
   745 ;;      Params:         0       0       0       0       0       0       0       0       0       0       0       0       
      +0       0       0       0       0
   746 ;;      Locals:         0       1       0       0       0       0       0       0       0       0       0       0       
      +0       0       0       0       0
   747 ;;      Temps:          0       0       0       0       0       0       0       0       0       0       0       0       
      +0       0       0       0       0
   748 ;;      Totals:         0       1       0       0       0       0       0       0       0       0       0       0       
      +0       0       0       0       0
   749 ;;Total ram usage:        1 bytes
   750 ;; Hardware stack levels used: 1
   751 ;; Hardware stack levels required when called: 6
   752 ;; This function calls:
   753 ;;		_ecu_layer_initialize
   754 ;; This function is called by:
   755 ;;		_main
   756 ;; This function uses a non-reentrant model
   757 ;;
   758                           
   759                           	psect	text2
   760   0018F0                     __ptext2:
   761                           	callstack 0
   762   0018F0                     _application_init:
   763                           	callstack 24
   764   0018F0                     
   765                           ;app.c: 114:     ret = ecu_layer_initialize();
   766   0018F0  ECA6  F00C         	call	_ecu_layer_initialize	;wreg free
   767   0018F4  0100               	movlb	0	; () banked
   768   0018F6  6F7C               	movwf	application_init@ret& (0+255),b
   769   0018F8                     
   770                           ; BSR set to: 0
   771                           ;app.c: 116:     return (ret);
   772   0018F8  517C               	movf	application_init@ret& (0+255),w,b
   773   0018FA                     
   774                           ; BSR set to: 0
   775   0018FA  0012               	return		;funcret
   776   0018FC                     __end_of_application_init:
   777                           	callstack 0
   778                           
   779 ;; *************** function _ecu_layer_initialize *****************
   780 ;; Defined at:
   781 ;;		line 10 in file "ECU_Layer/ecu_layer_init.c"
   782 ;; Parameters:    Size  Location     Type
   783 ;;		None
   784 ;; Auto vars:     Size  Location     Type
   785 ;;  ret             1    0        unsigned char 
   786 ;; Return value:  Size  Location     Type
   787 ;;                  1    wreg      unsigned char 
   788 ;; Registers used:
   789 ;;		wreg, status,2
   790 ;; Tracked objects:
   791 ;;		On entry : 0/0
   792 ;;		On exit  : 0/0
   793 ;;		Unchanged: 0/0
   794 ;; Data sizes:     COMRAM   BANK0   BANK1   BANK2   BANK3   BANK4   BANK5   BANK6   BANK7   BANK8   BANK9  BANK10  BANK1
      +1  BANK12  BANK13  BANK14  BANK15
   795 ;;      Params:         0       0       0       0       0       0       0       0       0       0       0       0       
      +0       0       0       0       0
   796 ;;      Locals:         0       0       0       0       0       0       0       0       0       0       0       0       
      +0       0       0       0       0
   797 ;;      Temps:          0       0       0       0       0       0       0       0       0       0       0       0       
      +0       0       0       0       0
   798 ;;      Totals:         0       0       0       0       0       0       0       0       0       0       0       0       
      +0       0       0       0       0
   799 ;;Total ram usage:        0 bytes
   800 ;; Hardware stack levels used: 1
   801 ;; Hardware stack levels required when called: 5
   802 ;; This function calls:
   803 ;;		Nothing
   804 ;; This function is called by:
   805 ;;		_application_init
   806 ;; This function uses a non-reentrant model
   807 ;;
   808                           
   809                           	psect	text3
   810   00194C                     __ptext3:
   811                           	callstack 0
   812   00194C                     _ecu_layer_initialize:
   813                           	callstack 24
   814   00194C                     
   815                           ;ECU_Layer/ecu_layer_init.c: 18:     return (ret);
   816   00194C  0E00               	movlw	0
   817   00194E  0012               	return		;funcret
   818   001950                     __end_of_ecu_layer_initialize:
   819                           	callstack 0
   820                           
   821 ;; *************** function _Interrupt_RBx_Init *****************
   822 ;; Defined at:
   823 ;;		line 522 in file "MCAL_Layer/Interrupt/mcal_external_interrupt.c"
   824 ;; Parameters:    Size  Location     Type
   825 ;;  int_obj         1   12[BANK0 ] PTR const struct .
   826 ;;		 -> RB7_obj(6), RB6_obj(6), RB5_obj(6), RB4_obj(6), 
   827 ;; Auto vars:     Size  Location     Type
   828 ;;  ret             1   13[BANK0 ] unsigned char 
   829 ;; Return value:  Size  Location     Type
   830 ;;                  1    wreg      unsigned char 
   831 ;; Registers used:
   832 ;;		wreg, fsr2l, fsr2h, status,2, status,0, prodl, prodh, cstack
   833 ;; Tracked objects:
   834 ;;		On entry : 0/0
   835 ;;		On exit  : 0/0
   836 ;;		Unchanged: 0/0
   837 ;; Data sizes:     COMRAM   BANK0   BANK1   BANK2   BANK3   BANK4   BANK5   BANK6   BANK7   BANK8   BANK9  BANK10  BANK1
      +1  BANK12  BANK13  BANK14  BANK15
   838 ;;      Params:         0       1       0       0       0       0       0       0       0       0       0       0       
      +0       0       0       0       0
   839 ;;      Locals:         0       1       0       0       0       0       0       0       0       0       0       0       
      +0       0       0       0       0
   840 ;;      Temps:          0       0       0       0       0       0       0       0       0       0       0       0       
      +0       0       0       0       0
   841 ;;      Totals:         0       2       0       0       0       0       0       0       0       0       0       0       
      +0       0       0       0       0
   842 ;;Total ram usage:        2 bytes
   843 ;; Hardware stack levels used: 1
   844 ;; Hardware stack levels required when called: 8
   845 ;; This function calls:
   846 ;;		_Interrupt_RBx_Enable
   847 ;;		_Interrupt_RBx_Pin_Init
   848 ;;		_Interrupt_RBx_Set_Interrupt_Handler
   849 ;; This function is called by:
   850 ;;		_main
   851 ;; This function uses a non-reentrant model
   852 ;;
   853                           
   854                           	psect	text4
   855   00184E                     __ptext4:
   856                           	callstack 0
   857   00184E                     _Interrupt_RBx_Init:
   858                           	callstack 22
   859   00184E                     
   860                           ;MCAL_Layer/Interrupt/mcal_external_interrupt.c: 522: Std_ReturnType Interrupt_RBx_Init(
      +                          const interrupt_RBx_t *int_obj);MCAL_Layer/Interrupt/mcal_external_interrupt.c: 523: {;M
      +                          CAL_Layer/Interrupt/mcal_external_interrupt.c: 524:     Std_ReturnType ret = (Std_Return
      +                          Type)0x00u;
   861   00184E  0E00               	movlw	0
   862   001850  0100               	movlb	0	; () banked
   863   001852  6F89               	movwf	Interrupt_RBx_Init@ret& (0+255),b
   864                           
   865                           ;MCAL_Layer/Interrupt/mcal_external_interrupt.c: 526:     if (int_obj == ((void*)0))
   866   001854  5188               	movf	Interrupt_RBx_Init@int_obj& (0+255),w,b
   867   001856  A4D8               	btfss	status,2,c
   868   001858  EF30  F00C         	goto	u2421
   869   00185C  EF32  F00C         	goto	u2420
   870   001860                     u2421:
   871   001860  EF35  F00C         	goto	l331
   872   001864                     u2420:
   873   001864                     
   874                           ; BSR set to: 0
   875                           ;MCAL_Layer/Interrupt/mcal_external_interrupt.c: 527:     {;MCAL_Layer/Interrupt/mcal_ex
      +                          ternal_interrupt.c: 528:         ret |= (Std_ReturnType)0x01u;
   876   001864  8189               	bsf	Interrupt_RBx_Init@ret& (0+255),0,b
   877                           
   878                           ;MCAL_Layer/Interrupt/mcal_external_interrupt.c: 529:     }
   879   001866  EF47  F00C         	goto	l2527
   880   00186A                     l331:
   881                           
   882                           ; BSR set to: 0
   883                           ;MCAL_Layer/Interrupt/mcal_external_interrupt.c: 531:     {;MCAL_Layer/Interrupt/mcal_ex
      +                          ternal_interrupt.c: 533:         (INTCONbits.RBIE = 0);
   884   00186A  96F2               	bcf	242,3,c	;volatile
   885                           
   886                           ;MCAL_Layer/Interrupt/mcal_external_interrupt.c: 535:         (INTCONbits.RBIF = 0);
   887   00186C  90F2               	bcf	242,0,c	;volatile
   888   00186E                     
   889                           ; BSR set to: 0
   890                           ;MCAL_Layer/Interrupt/mcal_external_interrupt.c: 541:         ret |= Interrupt_RBx_Pin_I
      +                          nit(int_obj);
   891   00186E  C088  F086         	movff	Interrupt_RBx_Init@int_obj,Interrupt_RBx_Pin_Init@int_obj
   892   001872  ECB4  F009         	call	_Interrupt_RBx_Pin_Init	;wreg free
   893   001876  0100               	movlb	0	; () banked
   894   001878  1389               	iorwf	Interrupt_RBx_Init@ret& (0+255),f,b
   895   00187A                     
   896                           ; BSR set to: 0
   897                           ;MCAL_Layer/Interrupt/mcal_external_interrupt.c: 543:         ret |= Interrupt_RBx_Set_I
      +                          nterrupt_Handler(int_obj);
   898   00187A  C088  F07C         	movff	Interrupt_RBx_Init@int_obj,Interrupt_RBx_Set_Interrupt_Handler@int_obj
   899   00187E  EC40  F009         	call	_Interrupt_RBx_Set_Interrupt_Handler	;wreg free
   900   001882  0100               	movlb	0	; () banked
   901   001884  1389               	iorwf	Interrupt_RBx_Init@ret& (0+255),f,b
   902   001886                     
   903                           ; BSR set to: 0
   904                           ;MCAL_Layer/Interrupt/mcal_external_interrupt.c: 545:         Interrupt_RBx_Enable(int_o
      +                          bj);
   905   001886  C088  F07C         	movff	Interrupt_RBx_Init@int_obj,Interrupt_RBx_Enable@int_obj
   906   00188A  EC5B  F00C         	call	_Interrupt_RBx_Enable	;wreg free
   907   00188E                     l2527:
   908                           
   909                           ;MCAL_Layer/Interrupt/mcal_external_interrupt.c: 547:     return (ret);
   910   00188E  0100               	movlb	0	; () banked
   911   001890  5189               	movf	Interrupt_RBx_Init@ret& (0+255),w,b
   912   001892                     
   913                           ; BSR set to: 0
   914   001892  0012               	return		;funcret
   915   001894                     __end_of_Interrupt_RBx_Init:
   916                           	callstack 0
   917                           
   918 ;; *************** function _Interrupt_RBx_Set_Interrupt_Handler *****************
   919 ;; Defined at:
   920 ;;		line 683 in file "MCAL_Layer/Interrupt/mcal_external_interrupt.c"
   921 ;; Parameters:    Size  Location     Type
   922 ;;  int_obj         1    0[BANK0 ] PTR const struct .
   923 ;;		 -> RB7_obj(6), RB6_obj(6), RB5_obj(6), RB4_obj(6), 
   924 ;; Auto vars:     Size  Location     Type
   925 ;;  ret             1    1[BANK0 ] unsigned char 
   926 ;; Return value:  Size  Location     Type
   927 ;;                  1    wreg      unsigned char 
   928 ;; Registers used:
   929 ;;		wreg, fsr2l, fsr2h, status,2, status,0
   930 ;; Tracked objects:
   931 ;;		On entry : 0/0
   932 ;;		On exit  : 0/0
   933 ;;		Unchanged: 0/0
   934 ;; Data sizes:     COMRAM   BANK0   BANK1   BANK2   BANK3   BANK4   BANK5   BANK6   BANK7   BANK8   BANK9  BANK10  BANK1
      +1  BANK12  BANK13  BANK14  BANK15
   935 ;;      Params:         0       1       0       0       0       0       0       0       0       0       0       0       
      +0       0       0       0       0
   936 ;;      Locals:         0       1       0       0       0       0       0       0       0       0       0       0       
      +0       0       0       0       0
   937 ;;      Temps:          0       0       0       0       0       0       0       0       0       0       0       0       
      +0       0       0       0       0
   938 ;;      Totals:         0       2       0       0       0       0       0       0       0       0       0       0       
      +0       0       0       0       0
   939 ;;Total ram usage:        2 bytes
   940 ;; Hardware stack levels used: 1
   941 ;; Hardware stack levels required when called: 5
   942 ;; This function calls:
   943 ;;		Nothing
   944 ;; This function is called by:
   945 ;;		_Interrupt_RBx_Init
   946 ;; This function uses a non-reentrant model
   947 ;;
   948                           
   949                           	psect	text5
   950   001280                     __ptext5:
   951                           	callstack 0
   952   001280                     _Interrupt_RBx_Set_Interrupt_Handler:
   953                           	callstack 24
   954   001280                     
   955                           ;MCAL_Layer/Interrupt/mcal_external_interrupt.c: 683: static Std_ReturnType Interrupt_RB
      +                          x_Set_Interrupt_Handler(const interrupt_RBx_t *int_obj);MCAL_Layer/Interrupt/mcal_extern
      +                          al_interrupt.c: 684: {;MCAL_Layer/Interrupt/mcal_external_interrupt.c: 685:     Std_Retu
      +                          rnType ret = (Std_ReturnType)0x00u;
   956   001280  0E00               	movlw	0
   957   001282  0100               	movlb	0	; () banked
   958   001284  6F7D               	movwf	Interrupt_RBx_Set_Interrupt_Handler@ret& (0+255),b
   959                           
   960                           ;MCAL_Layer/Interrupt/mcal_external_interrupt.c: 687:     if (((void*)0) == int_obj)
   961   001286  517C               	movf	Interrupt_RBx_Set_Interrupt_Handler@int_obj& (0+255),w,b
   962   001288  A4D8               	btfss	status,2,c
   963   00128A  EF49  F009         	goto	u2381
   964   00128E  EF4B  F009         	goto	u2380
   965   001292                     u2381:
   966   001292  EF97  F009         	goto	l2491
   967   001296                     u2380:
   968   001296                     l2469:
   969                           
   970                           ; BSR set to: 0
   971                           ;MCAL_Layer/Interrupt/mcal_external_interrupt.c: 688:     {;MCAL_Layer/Interrupt/mcal_ex
      +                          ternal_interrupt.c: 689:         ret = (Std_ReturnType)0x01u;
   972   001296  0E01               	movlw	1
   973   001298  6F7D               	movwf	Interrupt_RBx_Set_Interrupt_Handler@ret& (0+255),b
   974                           
   975                           ;MCAL_Layer/Interrupt/mcal_external_interrupt.c: 690:     }
   976   00129A  EFB2  F009         	goto	l2493
   977   00129E                     l2471:
   978                           
   979                           ; BSR set to: 0
   980                           ;MCAL_Layer/Interrupt/mcal_external_interrupt.c: 696:                 RB4_ISRS[0] = int_
      +                          obj->EXT_interrupt_handler_High;
   981   00129E  517C               	movf	Interrupt_RBx_Set_Interrupt_Handler@int_obj& (0+255),w,b
   982   0012A0  6ED9               	movwf	fsr2l,c
   983   0012A2  6ADA               	clrf	fsr2h,c
   984   0012A4  CFDE F02F          	movff	postinc2,_RB4_ISRS
   985   0012A8  CFDD F030          	movff	postdec2,_RB4_ISRS+1
   986   0012AC                     
   987                           ; BSR set to: 0
   988                           ;MCAL_Layer/Interrupt/mcal_external_interrupt.c: 697:                 RB4_ISRS[1] = int_
      +                          obj->EXT_interrupt_handler_Low;
   989   0012AC  517C               	movf	Interrupt_RBx_Set_Interrupt_Handler@int_obj& (0+255),w,b
   990   0012AE  6ED9               	movwf	fsr2l,c
   991   0012B0  6ADA               	clrf	fsr2h,c
   992   0012B2  0E02               	movlw	2
   993   0012B4  26D9               	addwf	fsr2l,f,c
   994   0012B6  CFDE F031          	movff	postinc2,_RB4_ISRS+2
   995   0012BA  CFDD F032          	movff	postdec2,_RB4_ISRS+3
   996                           
   997                           ;MCAL_Layer/Interrupt/mcal_external_interrupt.c: 698:                 break;
   998   0012BE  EFB2  F009         	goto	l2493
   999   0012C2                     l2475:
  1000                           
  1001                           ; BSR set to: 0
  1002                           ;MCAL_Layer/Interrupt/mcal_external_interrupt.c: 700:                 RB5_ISRS[0] = int_
      +                          obj->EXT_interrupt_handler_High;
  1003   0012C2  517C               	movf	Interrupt_RBx_Set_Interrupt_Handler@int_obj& (0+255),w,b
  1004   0012C4  6ED9               	movwf	fsr2l,c
  1005   0012C6  6ADA               	clrf	fsr2h,c
  1006   0012C8  CFDE F02B          	movff	postinc2,_RB5_ISRS
  1007   0012CC  CFDD F02C          	movff	postdec2,_RB5_ISRS+1
  1008   0012D0                     
  1009                           ; BSR set to: 0
  1010                           ;MCAL_Layer/Interrupt/mcal_external_interrupt.c: 701:                 RB5_ISRS[1] = int_
      +                          obj->EXT_interrupt_handler_Low;
  1011   0012D0  517C               	movf	Interrupt_RBx_Set_Interrupt_Handler@int_obj& (0+255),w,b
  1012   0012D2  6ED9               	movwf	fsr2l,c
  1013   0012D4  6ADA               	clrf	fsr2h,c
  1014   0012D6  0E02               	movlw	2
  1015   0012D8  26D9               	addwf	fsr2l,f,c
  1016   0012DA  CFDE F02D          	movff	postinc2,_RB5_ISRS+2
  1017   0012DE  CFDD F02E          	movff	postdec2,_RB5_ISRS+3
  1018                           
  1019                           ;MCAL_Layer/Interrupt/mcal_external_interrupt.c: 702:                 break;
  1020   0012E2  EFB2  F009         	goto	l2493
  1021   0012E6                     l2479:
  1022                           
  1023                           ; BSR set to: 0
  1024                           ;MCAL_Layer/Interrupt/mcal_external_interrupt.c: 704:                 RB6_ISRS[0] = int_
      +                          obj->EXT_interrupt_handler_High;
  1025   0012E6  517C               	movf	Interrupt_RBx_Set_Interrupt_Handler@int_obj& (0+255),w,b
  1026   0012E8  6ED9               	movwf	fsr2l,c
  1027   0012EA  6ADA               	clrf	fsr2h,c
  1028   0012EC  CFDE F027          	movff	postinc2,_RB6_ISRS
  1029   0012F0  CFDD F028          	movff	postdec2,_RB6_ISRS+1
  1030   0012F4                     
  1031                           ; BSR set to: 0
  1032                           ;MCAL_Layer/Interrupt/mcal_external_interrupt.c: 705:                 RB6_ISRS[1] = int_
      +                          obj->EXT_interrupt_handler_Low;
  1033   0012F4  517C               	movf	Interrupt_RBx_Set_Interrupt_Handler@int_obj& (0+255),w,b
  1034   0012F6  6ED9               	movwf	fsr2l,c
  1035   0012F8  6ADA               	clrf	fsr2h,c
  1036   0012FA  0E02               	movlw	2
  1037   0012FC  26D9               	addwf	fsr2l,f,c
  1038   0012FE  CFDE F029          	movff	postinc2,_RB6_ISRS+2
  1039   001302  CFDD F02A          	movff	postdec2,_RB6_ISRS+3
  1040                           
  1041                           ;MCAL_Layer/Interrupt/mcal_external_interrupt.c: 706:                 break;
  1042   001306  EFB2  F009         	goto	l2493
  1043   00130A                     l2483:
  1044                           
  1045                           ; BSR set to: 0
  1046                           ;MCAL_Layer/Interrupt/mcal_external_interrupt.c: 708:                 RB7_ISRS[0] = int_
      +                          obj->EXT_interrupt_handler_High;
  1047   00130A  517C               	movf	Interrupt_RBx_Set_Interrupt_Handler@int_obj& (0+255),w,b
  1048   00130C  6ED9               	movwf	fsr2l,c
  1049   00130E  6ADA               	clrf	fsr2h,c
  1050   001310  CFDE F023          	movff	postinc2,_RB7_ISRS
  1051   001314  CFDD F024          	movff	postdec2,_RB7_ISRS+1
  1052   001318                     
  1053                           ; BSR set to: 0
  1054                           ;MCAL_Layer/Interrupt/mcal_external_interrupt.c: 709:                 RB7_ISRS[1] = int_
      +                          obj->EXT_interrupt_handler_Low;
  1055   001318  517C               	movf	Interrupt_RBx_Set_Interrupt_Handler@int_obj& (0+255),w,b
  1056   00131A  6ED9               	movwf	fsr2l,c
  1057   00131C  6ADA               	clrf	fsr2h,c
  1058   00131E  0E02               	movlw	2
  1059   001320  26D9               	addwf	fsr2l,f,c
  1060   001322  CFDE F025          	movff	postinc2,_RB7_ISRS+2
  1061   001326  CFDD F026          	movff	postdec2,_RB7_ISRS+3
  1062                           
  1063                           ;MCAL_Layer/Interrupt/mcal_external_interrupt.c: 710:                 break;
  1064   00132A  EFB2  F009         	goto	l2493
  1065   00132E                     l2491:
  1066                           
  1067                           ; BSR set to: 0
  1068   00132E  517C               	movf	Interrupt_RBx_Set_Interrupt_Handler@int_obj& (0+255),w,b
  1069   001330  6ED9               	movwf	fsr2l,c
  1070   001332  6ADA               	clrf	fsr2h,c
  1071   001334  0E04               	movlw	4
  1072   001336  26D9               	addwf	fsr2l,f,c
  1073   001338  30DF               	rrcf	223,w,c
  1074   00133A  32E8               	rrcf	wreg,f,c
  1075   00133C  32E8               	rrcf	wreg,f,c
  1076   00133E  0B07               	andlw	7
  1077                           
  1078                           ; Switch size 1, requested type "simple"
  1079                           ; Number of cases is 4, Range of values is 4 to 7
  1080                           ; switch strategies available:
  1081                           ; Name         Instructions Cycles
  1082                           ; simple_byte           13     7 (average)
  1083                           ;	Chosen strategy is simple_byte
  1084   001340  0A04               	xorlw	4	; case 4
  1085   001342  B4D8               	btfsc	status,2,c
  1086   001344  EF4F  F009         	goto	l2471
  1087   001348  0A01               	xorlw	1	; case 5
  1088   00134A  B4D8               	btfsc	status,2,c
  1089   00134C  EF61  F009         	goto	l2475
  1090   001350  0A03               	xorlw	3	; case 6
  1091   001352  B4D8               	btfsc	status,2,c
  1092   001354  EF73  F009         	goto	l2479
  1093   001358  0A01               	xorlw	1	; case 7
  1094   00135A  B4D8               	btfsc	status,2,c
  1095   00135C  EF85  F009         	goto	l2483
  1096   001360  EF4B  F009         	goto	l2469
  1097   001364                     l2493:
  1098                           
  1099                           ; BSR set to: 0
  1100                           ;MCAL_Layer/Interrupt/mcal_external_interrupt.c: 716:     return (ret);
  1101   001364  517D               	movf	Interrupt_RBx_Set_Interrupt_Handler@ret& (0+255),w,b
  1102   001366                     
  1103                           ; BSR set to: 0
  1104   001366  0012               	return		;funcret
  1105   001368                     __end_of_Interrupt_RBx_Set_Interrupt_Handler:
  1106                           	callstack 0
  1107                           
  1108 ;; *************** function _Interrupt_RBx_Pin_Init *****************
  1109 ;; Defined at:
  1110 ;;		line 617 in file "MCAL_Layer/Interrupt/mcal_external_interrupt.c"
  1111 ;; Parameters:    Size  Location     Type
  1112 ;;  int_obj         1   10[BANK0 ] PTR const struct .
  1113 ;;		 -> RB7_obj(6), RB6_obj(6), RB5_obj(6), RB4_obj(6), 
  1114 ;; Auto vars:     Size  Location     Type
  1115 ;;  ret             1   11[BANK0 ] unsigned char 
  1116 ;; Return value:  Size  Location     Type
  1117 ;;                  1    wreg      unsigned char 
  1118 ;; Registers used:
  1119 ;;		wreg, fsr2l, fsr2h, status,2, status,0, prodl, prodh, cstack
  1120 ;; Tracked objects:
  1121 ;;		On entry : 0/0
  1122 ;;		On exit  : 0/0
  1123 ;;		Unchanged: 0/0
  1124 ;; Data sizes:     COMRAM   BANK0   BANK1   BANK2   BANK3   BANK4   BANK5   BANK6   BANK7   BANK8   BANK9  BANK10  BANK1
      +1  BANK12  BANK13  BANK14  BANK15
  1125 ;;      Params:         0       1       0       0       0       0       0       0       0       0       0       0       
      +0       0       0       0       0
  1126 ;;      Locals:         0       1       0       0       0       0       0       0       0       0       0       0       
      +0       0       0       0       0
  1127 ;;      Temps:          0       0       0       0       0       0       0       0       0       0       0       0       
      +0       0       0       0       0
  1128 ;;      Totals:         0       2       0       0       0       0       0       0       0       0       0       0       
      +0       0       0       0       0
  1129 ;;Total ram usage:        2 bytes
  1130 ;; Hardware stack levels used: 1
  1131 ;; Hardware stack levels required when called: 7
  1132 ;; This function calls:
  1133 ;;		_gpio_pin_initialize
  1134 ;; This function is called by:
  1135 ;;		_Interrupt_RBx_Init
  1136 ;; This function uses a non-reentrant model
  1137 ;;
  1138                           
  1139                           	psect	text6
  1140   001368                     __ptext6:
  1141                           	callstack 0
  1142   001368                     _Interrupt_RBx_Pin_Init:
  1143                           	callstack 22
  1144   001368                     
  1145                           ;MCAL_Layer/Interrupt/mcal_external_interrupt.c: 621:     if (((void*)0) == int_obj)
  1146   001368  0100               	movlb	0	; () banked
  1147   00136A  5186               	movf	Interrupt_RBx_Pin_Init@int_obj& (0+255),w,b
  1148   00136C  A4D8               	btfss	status,2,c
  1149   00136E  EFBB  F009         	goto	u2371
  1150   001372  EFBD  F009         	goto	u2370
  1151   001376                     u2371:
  1152   001376  EFE5  F009         	goto	l2461
  1153   00137A                     u2370:
  1154   00137A                     l2447:
  1155                           
  1156                           ; BSR set to: 0
  1157                           ;MCAL_Layer/Interrupt/mcal_external_interrupt.c: 622:     {;MCAL_Layer/Interrupt/mcal_ex
      +                          ternal_interrupt.c: 623:         ret = (Std_ReturnType)0x01u;
  1158   00137A  0E01               	movlw	1
  1159   00137C  6F87               	movwf	Interrupt_RBx_Pin_Init@ret& (0+255),b
  1160                           
  1161                           ;MCAL_Layer/Interrupt/mcal_external_interrupt.c: 624:     }
  1162   00137E  EF00  F00A         	goto	l2463
  1163   001382                     l2449:
  1164                           
  1165                           ; BSR set to: 0
  1166                           ;MCAL_Layer/Interrupt/mcal_external_interrupt.c: 630:                 ret = gpio_pin_ini
      +                          tialize(&(int_obj->mcu_pin));
  1167   001382  5186               	movf	Interrupt_RBx_Pin_Init@int_obj& (0+255),w,b
  1168   001384  0F04               	addlw	4
  1169   001386  6F83               	movwf	gpio_pin_initialize@_pin_config_t& (0+255),b
  1170   001388  EC02  F00C         	call	_gpio_pin_initialize	;wreg free
  1171   00138C  0100               	movlb	0	; () banked
  1172   00138E  6F87               	movwf	Interrupt_RBx_Pin_Init@ret& (0+255),b
  1173                           
  1174                           ;MCAL_Layer/Interrupt/mcal_external_interrupt.c: 631:                 break;
  1175   001390  EF00  F00A         	goto	l2463
  1176   001394                     l2451:
  1177                           
  1178                           ; BSR set to: 0
  1179                           ;MCAL_Layer/Interrupt/mcal_external_interrupt.c: 633:                 ret = gpio_pin_ini
      +                          tialize(&(int_obj->mcu_pin));
  1180   001394  5186               	movf	Interrupt_RBx_Pin_Init@int_obj& (0+255),w,b
  1181   001396  0F04               	addlw	4
  1182   001398  6F83               	movwf	gpio_pin_initialize@_pin_config_t& (0+255),b
  1183   00139A  EC02  F00C         	call	_gpio_pin_initialize	;wreg free
  1184   00139E  0100               	movlb	0	; () banked
  1185   0013A0  6F87               	movwf	Interrupt_RBx_Pin_Init@ret& (0+255),b
  1186                           
  1187                           ;MCAL_Layer/Interrupt/mcal_external_interrupt.c: 634:                 break;
  1188   0013A2  EF00  F00A         	goto	l2463
  1189   0013A6                     l2453:
  1190                           
  1191                           ; BSR set to: 0
  1192                           ;MCAL_Layer/Interrupt/mcal_external_interrupt.c: 636:                 ret = gpio_pin_ini
      +                          tialize(&(int_obj->mcu_pin));
  1193   0013A6  5186               	movf	Interrupt_RBx_Pin_Init@int_obj& (0+255),w,b
  1194   0013A8  0F04               	addlw	4
  1195   0013AA  6F83               	movwf	gpio_pin_initialize@_pin_config_t& (0+255),b
  1196   0013AC  EC02  F00C         	call	_gpio_pin_initialize	;wreg free
  1197   0013B0  0100               	movlb	0	; () banked
  1198   0013B2  6F87               	movwf	Interrupt_RBx_Pin_Init@ret& (0+255),b
  1199                           
  1200                           ;MCAL_Layer/Interrupt/mcal_external_interrupt.c: 637:                 break;
  1201   0013B4  EF00  F00A         	goto	l2463
  1202   0013B8                     l2455:
  1203                           
  1204                           ; BSR set to: 0
  1205                           ;MCAL_Layer/Interrupt/mcal_external_interrupt.c: 639:                 ret = gpio_pin_ini
      +                          tialize(&(int_obj->mcu_pin));
  1206   0013B8  5186               	movf	Interrupt_RBx_Pin_Init@int_obj& (0+255),w,b
  1207   0013BA  0F04               	addlw	4
  1208   0013BC  6F83               	movwf	gpio_pin_initialize@_pin_config_t& (0+255),b
  1209   0013BE  EC02  F00C         	call	_gpio_pin_initialize	;wreg free
  1210   0013C2  0100               	movlb	0	; () banked
  1211   0013C4  6F87               	movwf	Interrupt_RBx_Pin_Init@ret& (0+255),b
  1212                           
  1213                           ;MCAL_Layer/Interrupt/mcal_external_interrupt.c: 640:                 break;
  1214   0013C6  EF00  F00A         	goto	l2463
  1215   0013CA                     l2461:
  1216                           
  1217                           ; BSR set to: 0
  1218   0013CA  5186               	movf	Interrupt_RBx_Pin_Init@int_obj& (0+255),w,b
  1219   0013CC  6ED9               	movwf	fsr2l,c
  1220   0013CE  6ADA               	clrf	fsr2h,c
  1221   0013D0  0E04               	movlw	4
  1222   0013D2  26D9               	addwf	fsr2l,f,c
  1223   0013D4  30DF               	rrcf	223,w,c
  1224   0013D6  32E8               	rrcf	wreg,f,c
  1225   0013D8  32E8               	rrcf	wreg,f,c
  1226   0013DA  0B07               	andlw	7
  1227                           
  1228                           ; Switch size 1, requested type "simple"
  1229                           ; Number of cases is 4, Range of values is 4 to 7
  1230                           ; switch strategies available:
  1231                           ; Name         Instructions Cycles
  1232                           ; simple_byte           13     7 (average)
  1233                           ;	Chosen strategy is simple_byte
  1234   0013DC  0A04               	xorlw	4	; case 4
  1235   0013DE  B4D8               	btfsc	status,2,c
  1236   0013E0  EFC1  F009         	goto	l2449
  1237   0013E4  0A01               	xorlw	1	; case 5
  1238   0013E6  B4D8               	btfsc	status,2,c
  1239   0013E8  EFCA  F009         	goto	l2451
  1240   0013EC  0A03               	xorlw	3	; case 6
  1241   0013EE  B4D8               	btfsc	status,2,c
  1242   0013F0  EFD3  F009         	goto	l2453
  1243   0013F4  0A01               	xorlw	1	; case 7
  1244   0013F6  B4D8               	btfsc	status,2,c
  1245   0013F8  EFDC  F009         	goto	l2455
  1246   0013FC  EFBD  F009         	goto	l2447
  1247   001400                     l2463:
  1248                           
  1249                           ; BSR set to: 0
  1250                           ;MCAL_Layer/Interrupt/mcal_external_interrupt.c: 646:     return (ret);
  1251   001400  5187               	movf	Interrupt_RBx_Pin_Init@ret& (0+255),w,b
  1252   001402                     
  1253                           ; BSR set to: 0
  1254   001402  0012               	return		;funcret
  1255   001404                     __end_of_Interrupt_RBx_Pin_Init:
  1256                           	callstack 0
  1257                           
  1258 ;; *************** function _gpio_pin_initialize *****************
  1259 ;; Defined at:
  1260 ;;		line 17 in file "MCAL_Layer/GPIO/hal_gpio.c"
  1261 ;; Parameters:    Size  Location     Type
  1262 ;;  _pin_config_    1    7[BANK0 ] PTR const struct .
  1263 ;;		 -> RB7_obj(6), RB6_obj(6), RB5_obj(6), RB4_obj(6), 
  1264 ;;		 -> led_initialize@pin(1), 
  1265 ;; Auto vars:     Size  Location     Type
  1266 ;;  ret             1    9[BANK0 ] unsigned char 
  1267 ;; Return value:  Size  Location     Type
  1268 ;;                  1    wreg      unsigned char 
  1269 ;; Registers used:
  1270 ;;		wreg, fsr2l, fsr2h, status,2, status,0, prodl, prodh, cstack
  1271 ;; Tracked objects:
  1272 ;;		On entry : 0/0
  1273 ;;		On exit  : 0/0
  1274 ;;		Unchanged: 0/0
  1275 ;; Data sizes:     COMRAM   BANK0   BANK1   BANK2   BANK3   BANK4   BANK5   BANK6   BANK7   BANK8   BANK9  BANK10  BANK1
      +1  BANK12  BANK13  BANK14  BANK15
  1276 ;;      Params:         0       1       0       0       0       0       0       0       0       0       0       0       
      +0       0       0       0       0
  1277 ;;      Locals:         0       1       0       0       0       0       0       0       0       0       0       0       
      +0       0       0       0       0
  1278 ;;      Temps:          0       1       0       0       0       0       0       0       0       0       0       0       
      +0       0       0       0       0
  1279 ;;      Totals:         0       3       0       0       0       0       0       0       0       0       0       0       
      +0       0       0       0       0
  1280 ;;Total ram usage:        3 bytes
  1281 ;; Hardware stack levels used: 1
  1282 ;; Hardware stack levels required when called: 6
  1283 ;; This function calls:
  1284 ;;		_gpio_pin_direction_initialize
  1285 ;; This function is called by:
  1286 ;;		_led_initialize
  1287 ;;		_Interrupt_RBx_Pin_Init
  1288 ;;		_seven_segment_initialize
  1289 ;;		_Interrupt_INTx_Pin_Init
  1290 ;; This function uses a non-reentrant model
  1291 ;;
  1292                           
  1293                           	psect	text7
  1294   001804                     __ptext7:
  1295                           	callstack 0
  1296   001804                     _gpio_pin_initialize:
  1297                           	callstack 23
  1298   001804                     
  1299                           ;MCAL_Layer/GPIO/hal_gpio.c: 20:     if (((void*)0) == _pin_config_t || _pin_config_t->p
      +                          in > 8 - 1)
  1300   001804  0100               	movlb	0	; () banked
  1301   001806  5183               	movf	gpio_pin_initialize@_pin_config_t& (0+255),w,b
  1302   001808  B4D8               	btfsc	status,2,c
  1303   00180A  EF09  F00C         	goto	u2351
  1304   00180E  EF0B  F00C         	goto	u2350
  1305   001812                     u2351:
  1306   001812  EF1B  F00C         	goto	l2431
  1307   001816                     u2350:
  1308   001816                     
  1309                           ; BSR set to: 0
  1310   001816  5183               	movf	gpio_pin_initialize@_pin_config_t& (0+255),w,b
  1311   001818  6ED9               	movwf	fsr2l,c
  1312   00181A  6ADA               	clrf	fsr2h,c
  1313   00181C  30DF               	rrcf	223,w,c
  1314   00181E  32E8               	rrcf	wreg,f,c
  1315   001820  32E8               	rrcf	wreg,f,c
  1316   001822  0B07               	andlw	7
  1317   001824  6F84               	movwf	??_gpio_pin_initialize& (0+255),b
  1318   001826  0E07               	movlw	7
  1319   001828  6584               	cpfsgt	??_gpio_pin_initialize& (0+255),b
  1320   00182A  EF19  F00C         	goto	u2361
  1321   00182E  EF1B  F00C         	goto	u2360
  1322   001832                     u2361:
  1323   001832  EF1F  F00C         	goto	l2433
  1324   001836                     u2360:
  1325   001836                     l2431:
  1326                           
  1327                           ; BSR set to: 0
  1328                           ;MCAL_Layer/GPIO/hal_gpio.c: 21:     {;MCAL_Layer/GPIO/hal_gpio.c: 22:         ret = (St
      +                          d_ReturnType)0x01u;
  1329   001836  0E01               	movlw	1
  1330   001838  6F85               	movwf	gpio_pin_initialize@ret& (0+255),b
  1331                           
  1332                           ;MCAL_Layer/GPIO/hal_gpio.c: 23:     }
  1333   00183A  EF25  F00C         	goto	l2435
  1334   00183E                     l2433:
  1335                           
  1336                           ; BSR set to: 0
  1337                           ;MCAL_Layer/GPIO/hal_gpio.c: 25:     {;MCAL_Layer/GPIO/hal_gpio.c: 26:         ret = gpi
      +                          o_pin_direction_initialize(_pin_config_t);
  1338   00183E  C083  F07C         	movff	gpio_pin_initialize@_pin_config_t,gpio_pin_direction_initialize@_pin_config_t
  1339   001842  ECB4  F008         	call	_gpio_pin_direction_initialize	;wreg free
  1340   001846  0100               	movlb	0	; () banked
  1341   001848  6F85               	movwf	gpio_pin_initialize@ret& (0+255),b
  1342   00184A                     l2435:
  1343                           
  1344                           ; BSR set to: 0
  1345                           ;MCAL_Layer/GPIO/hal_gpio.c: 28:     return (ret);
  1346   00184A  5185               	movf	gpio_pin_initialize@ret& (0+255),w,b
  1347   00184C                     
  1348                           ; BSR set to: 0
  1349   00184C  0012               	return		;funcret
  1350   00184E                     __end_of_gpio_pin_initialize:
  1351                           	callstack 0
  1352                           
  1353 ;; *************** function _gpio_pin_direction_initialize *****************
  1354 ;; Defined at:
  1355 ;;		line 38 in file "MCAL_Layer/GPIO/hal_gpio.c"
  1356 ;; Parameters:    Size  Location     Type
  1357 ;;  _pin_config_    1    0[BANK0 ] PTR const struct .
  1358 ;;		 -> RB7_obj(6), RB6_obj(6), RB5_obj(6), RB4_obj(6), 
  1359 ;;		 -> led_initialize@pin(1), 
  1360 ;; Auto vars:     Size  Location     Type
  1361 ;;  ret             1    6[BANK0 ] unsigned char 
  1362 ;; Return value:  Size  Location     Type
  1363 ;;                  1    wreg      unsigned char 
  1364 ;; Registers used:
  1365 ;;		wreg, fsr2l, fsr2h, status,2, status,0, prodl, prodh
  1366 ;; Tracked objects:
  1367 ;;		On entry : 0/0
  1368 ;;		On exit  : 0/0
  1369 ;;		Unchanged: 0/0
  1370 ;; Data sizes:     COMRAM   BANK0   BANK1   BANK2   BANK3   BANK4   BANK5   BANK6   BANK7   BANK8   BANK9  BANK10  BANK1
      +1  BANK12  BANK13  BANK14  BANK15
  1371 ;;      Params:         0       1       0       0       0       0       0       0       0       0       0       0       
      +0       0       0       0       0
  1372 ;;      Locals:         0       1       0       0       0       0       0       0       0       0       0       0       
      +0       0       0       0       0
  1373 ;;      Temps:          0       5       0       0       0       0       0       0       0       0       0       0       
      +0       0       0       0       0
  1374 ;;      Totals:         0       7       0       0       0       0       0       0       0       0       0       0       
      +0       0       0       0       0
  1375 ;;Total ram usage:        7 bytes
  1376 ;; Hardware stack levels used: 1
  1377 ;; Hardware stack levels required when called: 5
  1378 ;; This function calls:
  1379 ;;		Nothing
  1380 ;; This function is called by:
  1381 ;;		_gpio_pin_initialize
  1382 ;; This function uses a non-reentrant model
  1383 ;;
  1384                           
  1385                           	psect	text8
  1386   001168                     __ptext8:
  1387                           	callstack 0
  1388   001168                     _gpio_pin_direction_initialize:
  1389                           	callstack 23
  1390   001168                     
  1391                           ;MCAL_Layer/GPIO/hal_gpio.c: 38: Std_ReturnType gpio_pin_direction_initialize(const pin_
      +                          config_t *_pin_config_t);MCAL_Layer/GPIO/hal_gpio.c: 39: {;MCAL_Layer/GPIO/hal_gpio.c: 4
      +                          0:     Std_ReturnType ret = (Std_ReturnType)0x00u;
  1392   001168  0E00               	movlw	0
  1393   00116A  0100               	movlb	0	; () banked
  1394   00116C  6F82               	movwf	gpio_pin_direction_initialize@ret& (0+255),b
  1395                           
  1396                           ;MCAL_Layer/GPIO/hal_gpio.c: 42:     if (((void*)0) == _pin_config_t || _pin_config_t->p
      +                          in > 8 - 1)
  1397   00116E  517C               	movf	gpio_pin_direction_initialize@_pin_config_t& (0+255),w,b
  1398   001170  B4D8               	btfsc	status,2,c
  1399   001172  EFBD  F008         	goto	u2301
  1400   001176  EFBF  F008         	goto	u2300
  1401   00117A                     u2301:
  1402   00117A  EFCF  F008         	goto	l2411
  1403   00117E                     u2300:
  1404   00117E                     
  1405                           ; BSR set to: 0
  1406   00117E  517C               	movf	gpio_pin_direction_initialize@_pin_config_t& (0+255),w,b
  1407   001180  6ED9               	movwf	fsr2l,c
  1408   001182  6ADA               	clrf	fsr2h,c
  1409   001184  30DF               	rrcf	223,w,c
  1410   001186  32E8               	rrcf	wreg,f,c
  1411   001188  32E8               	rrcf	wreg,f,c
  1412   00118A  0B07               	andlw	7
  1413   00118C  6F7D               	movwf	??_gpio_pin_direction_initialize& (0+255),b
  1414   00118E  0E07               	movlw	7
  1415   001190  657D               	cpfsgt	??_gpio_pin_direction_initialize& (0+255),b
  1416   001192  EFCD  F008         	goto	u2311
  1417   001196  EFCF  F008         	goto	u2310
  1418   00119A                     u2311:
  1419   00119A  EF28  F009         	goto	l2421
  1420   00119E                     u2310:
  1421   00119E                     l2411:
  1422                           
  1423                           ; BSR set to: 0
  1424                           ;MCAL_Layer/GPIO/hal_gpio.c: 43:     {;MCAL_Layer/GPIO/hal_gpio.c: 44:         ret = (St
      +                          d_ReturnType)0x01u;
  1425   00119E  0E01               	movlw	1
  1426   0011A0  6F82               	movwf	gpio_pin_direction_initialize@ret& (0+255),b
  1427                           
  1428                           ;MCAL_Layer/GPIO/hal_gpio.c: 45:     }
  1429   0011A2  EF3E  F009         	goto	l2423
  1430   0011A6                     l2413:
  1431                           
  1432                           ; BSR set to: 0
  1433                           ;MCAL_Layer/GPIO/hal_gpio.c: 51:                 (*tris_registers[_pin_config_t->port] |
      +                          = ((uint8)1 << _pin_config_t->pin));
  1434   0011A6  517C               	movf	gpio_pin_direction_initialize@_pin_config_t& (0+255),w,b
  1435   0011A8  6ED9               	movwf	fsr2l,c
  1436   0011AA  6ADA               	clrf	fsr2h,c
  1437   0011AC  30DF               	rrcf	223,w,c
  1438   0011AE  32E8               	rrcf	wreg,f,c
  1439   0011B0  32E8               	rrcf	wreg,f,c
  1440   0011B2  0B07               	andlw	7
  1441   0011B4  6F7D               	movwf	??_gpio_pin_direction_initialize& (0+255),b
  1442   0011B6  0E01               	movlw	1
  1443   0011B8  6F7E               	movwf	(??_gpio_pin_direction_initialize+1)& (0+255),b
  1444   0011BA  2B7D               	incf	??_gpio_pin_direction_initialize& (0+255),f,b
  1445   0011BC  EFE2  F008         	goto	u2324
  1446   0011C0                     u2325:
  1447   0011C0  90D8               	bcf	status,0,c
  1448   0011C2  377E               	rlcf	(??_gpio_pin_direction_initialize+1)& (0+255),f,b
  1449   0011C4                     u2324:
  1450   0011C4  2F7D               	decfsz	??_gpio_pin_direction_initialize& (0+255),f,b
  1451   0011C6  EFE0  F008         	goto	u2325
  1452   0011CA  0100               	movlb	0	; () banked
  1453   0011CC  517C               	movf	gpio_pin_direction_initialize@_pin_config_t& (0+255),w,b
  1454   0011CE  6ED9               	movwf	fsr2l,c
  1455   0011D0  6ADA               	clrf	fsr2h,c
  1456   0011D2  50DF               	movf	223,w,c
  1457   0011D4  0B07               	andlw	7
  1458   0011D6  0D02               	mullw	2
  1459   0011D8  50F3               	movf	243,w,c
  1460   0011DA  0F01               	addlw	low _tris_registers
  1461   0011DC  6ED9               	movwf	fsr2l,c
  1462   0011DE  6ADA               	clrf	fsr2h,c
  1463   0011E0  CFDE F07F          	movff	postinc2,??_gpio_pin_direction_initialize+2
  1464   0011E4  CFDD F080          	movff	postdec2,??_gpio_pin_direction_initialize+3
  1465   0011E8  C07F  FFD9         	movff	??_gpio_pin_direction_initialize+2,fsr2l
  1466   0011EC  C080  FFDA         	movff	??_gpio_pin_direction_initialize+3,fsr2h
  1467   0011F0  517E               	movf	(??_gpio_pin_direction_initialize+1)& (0+255),w,b
  1468   0011F2  12DF               	iorwf	indf2,f,c
  1469                           
  1470                           ;MCAL_Layer/GPIO/hal_gpio.c: 52:                 break;
  1471   0011F4  EF3E  F009         	goto	l2423
  1472   0011F8                     l2415:
  1473                           
  1474                           ; BSR set to: 0
  1475                           ;MCAL_Layer/GPIO/hal_gpio.c: 54:                 (*tris_registers[_pin_config_t->port] &
      +                          = ~((uint8)1 << _pin_config_t->pin));
  1476   0011F8  517C               	movf	gpio_pin_direction_initialize@_pin_config_t& (0+255),w,b
  1477   0011FA  6ED9               	movwf	fsr2l,c
  1478   0011FC  6ADA               	clrf	fsr2h,c
  1479   0011FE  30DF               	rrcf	223,w,c
  1480   001200  32E8               	rrcf	wreg,f,c
  1481   001202  32E8               	rrcf	wreg,f,c
  1482   001204  0B07               	andlw	7
  1483   001206  6F7D               	movwf	??_gpio_pin_direction_initialize& (0+255),b
  1484   001208  0E01               	movlw	1
  1485   00120A  6F7E               	movwf	(??_gpio_pin_direction_initialize+1)& (0+255),b
  1486   00120C  2B7D               	incf	??_gpio_pin_direction_initialize& (0+255),f,b
  1487   00120E  EF0B  F009         	goto	u2334
  1488   001212                     u2335:
  1489   001212  90D8               	bcf	status,0,c
  1490   001214  377E               	rlcf	(??_gpio_pin_direction_initialize+1)& (0+255),f,b
  1491   001216                     u2334:
  1492   001216  2F7D               	decfsz	??_gpio_pin_direction_initialize& (0+255),f,b
  1493   001218  EF09  F009         	goto	u2335
  1494   00121C  0100               	movlb	0	; () banked
  1495   00121E  517E               	movf	(??_gpio_pin_direction_initialize+1)& (0+255),w,b
  1496   001220  0AFF               	xorlw	255
  1497   001222  6F7F               	movwf	(??_gpio_pin_direction_initialize+2)& (0+255),b
  1498   001224  517C               	movf	gpio_pin_direction_initialize@_pin_config_t& (0+255),w,b
  1499   001226  6ED9               	movwf	fsr2l,c
  1500   001228  6ADA               	clrf	fsr2h,c
  1501   00122A  50DF               	movf	223,w,c
  1502   00122C  0B07               	andlw	7
  1503   00122E  0D02               	mullw	2
  1504   001230  50F3               	movf	243,w,c
  1505   001232  0F01               	addlw	low _tris_registers
  1506   001234  6ED9               	movwf	fsr2l,c
  1507   001236  6ADA               	clrf	fsr2h,c
  1508   001238  CFDE F080          	movff	postinc2,??_gpio_pin_direction_initialize+3
  1509   00123C  CFDD F081          	movff	postdec2,??_gpio_pin_direction_initialize+4
  1510   001240  C080  FFD9         	movff	??_gpio_pin_direction_initialize+3,fsr2l
  1511   001244  C081  FFDA         	movff	??_gpio_pin_direction_initialize+4,fsr2h
  1512   001248  517F               	movf	(??_gpio_pin_direction_initialize+2)& (0+255),w,b
  1513   00124A  16DF               	andwf	indf2,f,c
  1514                           
  1515                           ;MCAL_Layer/GPIO/hal_gpio.c: 55:                 break;
  1516   00124C  EF3E  F009         	goto	l2423
  1517   001250                     l2421:
  1518                           
  1519                           ; BSR set to: 0
  1520   001250  517C               	movf	gpio_pin_direction_initialize@_pin_config_t& (0+255),w,b
  1521   001252  6ED9               	movwf	fsr2l,c
  1522   001254  6ADA               	clrf	fsr2h,c
  1523   001256  BCDF               	btfsc	indf2,6,c
  1524   001258  EF30  F009         	goto	u2341
  1525   00125C  EF33  F009         	goto	u2340
  1526   001260                     u2341:
  1527   001260  0E01               	movlw	1
  1528   001262  EF34  F009         	goto	u2346
  1529   001266                     u2340:
  1530   001266  0E00               	movlw	0
  1531   001268                     u2346:
  1532                           
  1533                           ; Switch size 1, requested type "simple"
  1534                           ; Number of cases is 2, Range of values is 0 to 1
  1535                           ; switch strategies available:
  1536                           ; Name         Instructions Cycles
  1537                           ; simple_byte            7     4 (average)
  1538                           ;	Chosen strategy is simple_byte
  1539   001268  0A00               	xorlw	0	; case 0
  1540   00126A  B4D8               	btfsc	status,2,c
  1541   00126C  EFFC  F008         	goto	l2415
  1542   001270  0A01               	xorlw	1	; case 1
  1543   001272  B4D8               	btfsc	status,2,c
  1544   001274  EFD3  F008         	goto	l2413
  1545   001278  EFCF  F008         	goto	l2411
  1546   00127C                     l2423:
  1547                           
  1548                           ; BSR set to: 0
  1549                           ;MCAL_Layer/GPIO/hal_gpio.c: 61:     return (ret);
  1550   00127C  5182               	movf	gpio_pin_direction_initialize@ret& (0+255),w,b
  1551   00127E                     
  1552                           ; BSR set to: 0
  1553   00127E  0012               	return		;funcret
  1554   001280                     __end_of_gpio_pin_direction_initialize:
  1555                           	callstack 0
  1556                           
  1557 ;; *************** function _Interrupt_RBx_Enable *****************
  1558 ;; Defined at:
  1559 ;;		line 653 in file "MCAL_Layer/Interrupt/mcal_external_interrupt.c"
  1560 ;; Parameters:    Size  Location     Type
  1561 ;;  int_obj         1    0[BANK0 ] PTR const struct .
  1562 ;;		 -> RB7_obj(6), RB6_obj(6), RB5_obj(6), RB4_obj(6), 
  1563 ;; Auto vars:     Size  Location     Type
  1564 ;;  ret             1    0        unsigned char 
  1565 ;; Return value:  Size  Location     Type
  1566 ;;                  1    wreg      unsigned char 
  1567 ;; Registers used:
  1568 ;;		wreg, status,2
  1569 ;; Tracked objects:
  1570 ;;		On entry : 0/0
  1571 ;;		On exit  : 0/0
  1572 ;;		Unchanged: 0/0
  1573 ;; Data sizes:     COMRAM   BANK0   BANK1   BANK2   BANK3   BANK4   BANK5   BANK6   BANK7   BANK8   BANK9  BANK10  BANK1
      +1  BANK12  BANK13  BANK14  BANK15
  1574 ;;      Params:         0       1       0       0       0       0       0       0       0       0       0       0       
      +0       0       0       0       0
  1575 ;;      Locals:         0       0       0       0       0       0       0       0       0       0       0       0       
      +0       0       0       0       0
  1576 ;;      Temps:          0       0       0       0       0       0       0       0       0       0       0       0       
      +0       0       0       0       0
  1577 ;;      Totals:         0       1       0       0       0       0       0       0       0       0       0       0       
      +0       0       0       0       0
  1578 ;;Total ram usage:        1 bytes
  1579 ;; Hardware stack levels used: 1
  1580 ;; Hardware stack levels required when called: 5
  1581 ;; This function calls:
  1582 ;;		Nothing
  1583 ;; This function is called by:
  1584 ;;		_Interrupt_RBx_Init
  1585 ;; This function uses a non-reentrant model
  1586 ;;
  1587                           
  1588                           	psect	text9
  1589   0018B6                     __ptext9:
  1590                           	callstack 0
  1591   0018B6                     _Interrupt_RBx_Enable:
  1592                           	callstack 24
  1593   0018B6                     
  1594                           ;MCAL_Layer/Interrupt/mcal_external_interrupt.c: 657:     if (((void*)0) == int_obj)
  1595   0018B6  0100               	movlb	0	; () banked
  1596   0018B8  517C               	movf	Interrupt_RBx_Enable@int_obj& (0+255),w,b
  1597   0018BA  A4D8               	btfss	status,2,c
  1598   0018BC  EF62  F00C         	goto	u2391
  1599   0018C0  EF64  F00C         	goto	u2390
  1600   0018C4                     u2391:
  1601   0018C4  EF66  F00C         	goto	l353
  1602   0018C8                     u2390:
  1603   0018C8                     
  1604                           ; BSR set to: 0
  1605                           ;MCAL_Layer/Interrupt/mcal_external_interrupt.c: 660:     }
  1606   0018C8  EF69  F00C         	goto	l355
  1607   0018CC                     l353:
  1608                           
  1609                           ; BSR set to: 0
  1610                           ;MCAL_Layer/Interrupt/mcal_external_interrupt.c: 662:     {;MCAL_Layer/Interrupt/mcal_ex
      +                          ternal_interrupt.c: 665:         (INTCONbits.PEIE = 1);
  1611   0018CC  8CF2               	bsf	242,6,c	;volatile
  1612                           
  1613                           ;MCAL_Layer/Interrupt/mcal_external_interrupt.c: 666:         (INTCONbits.GIE = 1);
  1614   0018CE  8EF2               	bsf	242,7,c	;volatile
  1615                           
  1616                           ;MCAL_Layer/Interrupt/mcal_external_interrupt.c: 670:         (INTCONbits.RBIE = 1);
  1617   0018D0  86F2               	bsf	242,3,c	;volatile
  1618   0018D2                     l355:
  1619                           
  1620                           ; BSR set to: 0
  1621   0018D2  0012               	return		;funcret
  1622   0018D4                     __end_of_Interrupt_RBx_Enable:
  1623                           	callstack 0
  1624                           
  1625 ;; *************** function _Interrupt_Manager *****************
  1626 ;; Defined at:
  1627 ;;		line 39 in file "MCAL_Layer/Interrupt/mcal_interrupt_manager.c"
  1628 ;; Parameters:    Size  Location     Type
  1629 ;;		None
  1630 ;; Auto vars:     Size  Location     Type
  1631 ;;		None
  1632 ;; Return value:  Size  Location     Type
  1633 ;;                  1    wreg      void 
  1634 ;; Registers used:
  1635 ;;		wreg, fsr2l, fsr2h, status,2, status,0, pcl, pclath, pclatu, tosl, prodl, prodh, cstack
  1636 ;; Tracked objects:
  1637 ;;		On entry : 0/0
  1638 ;;		On exit  : 0/0
  1639 ;;		Unchanged: 0/0
  1640 ;; Data sizes:     COMRAM   BANK0   BANK1   BANK2   BANK3   BANK4   BANK5   BANK6   BANK7   BANK8   BANK9  BANK10  BANK1
      +1  BANK12  BANK13  BANK14  BANK15
  1641 ;;      Params:         0       0       0       0       0       0       0       0       0       0       0       0       
      +0       0       0       0       0
  1642 ;;      Locals:         0       0       0       0       0       0       0       0       0       0       0       0       
      +0       0       0       0       0
  1643 ;;      Temps:          6       0       0       0       0       0       0       0       0       0       0       0       
      +0       0       0       0       0
  1644 ;;      Totals:         6       0       0       0       0       0       0       0       0       0       0       0       
      +0       0       0       0       0
  1645 ;;Total ram usage:        6 bytes
  1646 ;; Hardware stack levels used: 1
  1647 ;; Hardware stack levels required when called: 4
  1648 ;; This function calls:
  1649 ;;		_INT0_ISR
  1650 ;;		_INT1_ISR
  1651 ;;		_INT2_ISR
  1652 ;;		_RB4_ISR
  1653 ;;		_RB5_ISR
  1654 ;;		_RB6_ISR
  1655 ;;		_RB7_ISR
  1656 ;; This function is called by:
  1657 ;;		Interrupt level 2
  1658 ;; This function uses a non-reentrant model
  1659 ;;
  1660                           
  1661                           	psect	intcode
  1662   000008                     __pintcode:
  1663                           	callstack 0
  1664   000008                     _Interrupt_Manager:
  1665                           	callstack 22
  1666                           
  1667                           ; BSR set to: 0
  1668                           ;incstack = 0
  1669   000008  824F               	bsf	int$flags,1,c	;set compiler interrupt flag (level 2)
  1670   00000A  CFFA F049          	movff	pclath,??_Interrupt_Manager
  1671   00000E  CFFB F04A          	movff	pclatu,??_Interrupt_Manager+1
  1672   000012  CFD9 F04B          	movff	fsr2l,??_Interrupt_Manager+2
  1673   000016  CFDA F04C          	movff	fsr2h,??_Interrupt_Manager+3
  1674   00001A  CFF3 F04D          	movff	prodl,??_Interrupt_Manager+4
  1675   00001E  CFF4 F04E          	movff	prodh,??_Interrupt_Manager+5
  1676   000022                     
  1677                           ;MCAL_Layer/Interrupt/mcal_interrupt_manager.c: 43:     if ((1 == INTCONbits.INT0IE) && 
      +                          (1 == INTCONbits.INT0IF))
  1678   000022  A8F2               	btfss	242,4,c	;volatile
  1679   000024  EF16  F000         	goto	i2u191_41
  1680   000028  EF18  F000         	goto	i2u191_40
  1681   00002C                     i2u191_41:
  1682   00002C  EF21  F000         	goto	i2l2287
  1683   000030                     i2u191_40:
  1684   000030  A2F2               	btfss	242,1,c	;volatile
  1685   000032  EF1D  F000         	goto	i2u192_41
  1686   000036  EF1F  F000         	goto	i2u192_40
  1687   00003A                     i2u192_41:
  1688   00003A  EF21  F000         	goto	i2l2287
  1689   00003E                     i2u192_40:
  1690   00003E                     
  1691                           ;MCAL_Layer/Interrupt/mcal_interrupt_manager.c: 44:     {;MCAL_Layer/Interrupt/mcal_inte
      +                          rrupt_manager.c: 45:         INT0_ISR();
  1692   00003E  ECAC  F00C         	call	_INT0_ISR	;wreg free
  1693   000042                     i2l2287:
  1694                           
  1695                           ;MCAL_Layer/Interrupt/mcal_interrupt_manager.c: 48:     if ((1 == INTCON3bits.INT1IE) &&
      +                           (1 == INTCON3bits.INT1IF))
  1696   000042  A6F0               	btfss	240,3,c	;volatile
  1697   000044  EF26  F000         	goto	i2u193_41
  1698   000048  EF28  F000         	goto	i2u193_40
  1699   00004C                     i2u193_41:
  1700   00004C  EF31  F000         	goto	i2l2293
  1701   000050                     i2u193_40:
  1702   000050  A0F0               	btfss	240,0,c	;volatile
  1703   000052  EF2D  F000         	goto	i2u194_41
  1704   000056  EF2F  F000         	goto	i2u194_40
  1705   00005A                     i2u194_41:
  1706   00005A  EF31  F000         	goto	i2l2293
  1707   00005E                     i2u194_40:
  1708   00005E                     
  1709                           ;MCAL_Layer/Interrupt/mcal_interrupt_manager.c: 49:     {;MCAL_Layer/Interrupt/mcal_inte
      +                          rrupt_manager.c: 50:         INT1_ISR();
  1710   00005E  ECAA  F00C         	call	_INT1_ISR	;wreg free
  1711   000062                     i2l2293:
  1712                           
  1713                           ;MCAL_Layer/Interrupt/mcal_interrupt_manager.c: 53:     if ((1 == INTCON3bits.INT2IE) &&
      +                           (1 == INTCON3bits.INT2IF))
  1714   000062  A8F0               	btfss	240,4,c	;volatile
  1715   000064  EF36  F000         	goto	i2u195_41
  1716   000068  EF38  F000         	goto	i2u195_40
  1717   00006C                     i2u195_41:
  1718   00006C  EF41  F000         	goto	i2l2299
  1719   000070                     i2u195_40:
  1720   000070  A2F0               	btfss	240,1,c	;volatile
  1721   000072  EF3D  F000         	goto	i2u196_41
  1722   000076  EF3F  F000         	goto	i2u196_40
  1723   00007A                     i2u196_41:
  1724   00007A  EF41  F000         	goto	i2l2299
  1725   00007E                     i2u196_40:
  1726   00007E                     
  1727                           ;MCAL_Layer/Interrupt/mcal_interrupt_manager.c: 54:     {;MCAL_Layer/Interrupt/mcal_inte
      +                          rrupt_manager.c: 55:         INT2_ISR();
  1728   00007E  ECA8  F00C         	call	_INT2_ISR	;wreg free
  1729   000082                     i2l2299:
  1730                           
  1731                           ;MCAL_Layer/Interrupt/mcal_interrupt_manager.c: 59:     if ((1 == INTCONbits.RBIE) && (1
      +                           == INTCONbits.RBIF) &&
  1732   000082  A6F2               	btfss	242,3,c	;volatile
  1733   000084  EF46  F000         	goto	i2u197_41
  1734   000088  EF48  F000         	goto	i2u197_40
  1735   00008C                     i2u197_41:
  1736   00008C  EF63  F000         	goto	i2l2311
  1737   000090                     i2u197_40:
  1738   000090  A0F2               	btfss	242,0,c	;volatile
  1739   000092  EF4D  F000         	goto	i2u198_41
  1740   000096  EF4F  F000         	goto	i2u198_40
  1741   00009A                     i2u198_41:
  1742   00009A  EF63  F000         	goto	i2l2311
  1743   00009E                     i2u198_40:
  1744   00009E  A881               	btfss	129,4,c	;volatile
  1745   0000A0  EF54  F000         	goto	i2u199_41
  1746   0000A4  EF56  F000         	goto	i2u199_40
  1747   0000A8                     i2u199_41:
  1748   0000A8  EF63  F000         	goto	i2l2311
  1749   0000AC                     i2u199_40:
  1750   0000AC  0418               	decf	_RB4_Flag^0,w,c	;volatile
  1751   0000AE  A4D8               	btfss	status,2,c
  1752   0000B0  EF5C  F000         	goto	i2u200_41
  1753   0000B4  EF5E  F000         	goto	i2u200_40
  1754   0000B8                     i2u200_41:
  1755   0000B8  EF63  F000         	goto	i2l2311
  1756   0000BC                     i2u200_40:
  1757   0000BC                     
  1758                           ;MCAL_Layer/Interrupt/mcal_interrupt_manager.c: 61:     {;MCAL_Layer/Interrupt/mcal_inte
      +                          rrupt_manager.c: 62:         RB4_Flag = 0;
  1759   0000BC  0E00               	movlw	0
  1760   0000BE  6E18               	movwf	_RB4_Flag^0,c	;volatile
  1761   0000C0                     
  1762                           ;MCAL_Layer/Interrupt/mcal_interrupt_manager.c: 63:         RB4_ISR(0);
  1763   0000C0  0E00               	movlw	0
  1764   0000C2  EC30  F00B         	call	_RB4_ISR
  1765   0000C6                     i2l2311:
  1766                           
  1767                           ;MCAL_Layer/Interrupt/mcal_interrupt_manager.c: 65:     if ((1 == INTCONbits.RBIE) && (1
      +                           == INTCONbits.RBIF)&&
  1768   0000C6  A6F2               	btfss	242,3,c	;volatile
  1769   0000C8  EF68  F000         	goto	i2u201_41
  1770   0000CC  EF6A  F000         	goto	i2u201_40
  1771   0000D0                     i2u201_41:
  1772   0000D0  EF85  F000         	goto	i2l2323
  1773   0000D4                     i2u201_40:
  1774   0000D4  A0F2               	btfss	242,0,c	;volatile
  1775   0000D6  EF6F  F000         	goto	i2u202_41
  1776   0000DA  EF71  F000         	goto	i2u202_40
  1777   0000DE                     i2u202_41:
  1778   0000DE  EF85  F000         	goto	i2l2323
  1779   0000E2                     i2u202_40:
  1780   0000E2  B881               	btfsc	129,4,c	;volatile
  1781   0000E4  EF76  F000         	goto	i2u203_41
  1782   0000E8  EF78  F000         	goto	i2u203_40
  1783   0000EC                     i2u203_41:
  1784   0000EC  EF85  F000         	goto	i2l2323
  1785   0000F0                     i2u203_40:
  1786   0000F0  5018               	movf	_RB4_Flag^0,w,c	;volatile
  1787   0000F2  A4D8               	btfss	status,2,c
  1788   0000F4  EF7E  F000         	goto	i2u204_41
  1789   0000F8  EF80  F000         	goto	i2u204_40
  1790   0000FC                     i2u204_41:
  1791   0000FC  EF85  F000         	goto	i2l2323
  1792   000100                     i2u204_40:
  1793   000100                     
  1794                           ;MCAL_Layer/Interrupt/mcal_interrupt_manager.c: 67:     {;MCAL_Layer/Interrupt/mcal_inte
      +                          rrupt_manager.c: 68:         RB4_Flag = 1;
  1795   000100  0E01               	movlw	1
  1796   000102  6E18               	movwf	_RB4_Flag^0,c	;volatile
  1797   000104                     
  1798                           ;MCAL_Layer/Interrupt/mcal_interrupt_manager.c: 69:         RB4_ISR(1);
  1799   000104  0E01               	movlw	1
  1800   000106  EC30  F00B         	call	_RB4_ISR
  1801   00010A                     i2l2323:
  1802                           
  1803                           ;MCAL_Layer/Interrupt/mcal_interrupt_manager.c: 73:     if ((1 == INTCONbits.RBIE) && (1
      +                           == INTCONbits.RBIF) &&
  1804   00010A  A6F2               	btfss	242,3,c	;volatile
  1805   00010C  EF8A  F000         	goto	i2u205_41
  1806   000110  EF8C  F000         	goto	i2u205_40
  1807   000114                     i2u205_41:
  1808   000114  EFA7  F000         	goto	i2l2335
  1809   000118                     i2u205_40:
  1810   000118  A0F2               	btfss	242,0,c	;volatile
  1811   00011A  EF91  F000         	goto	i2u206_41
  1812   00011E  EF93  F000         	goto	i2u206_40
  1813   000122                     i2u206_41:
  1814   000122  EFA7  F000         	goto	i2l2335
  1815   000126                     i2u206_40:
  1816   000126  AA81               	btfss	129,5,c	;volatile
  1817   000128  EF98  F000         	goto	i2u207_41
  1818   00012C  EF9A  F000         	goto	i2u207_40
  1819   000130                     i2u207_41:
  1820   000130  EFA7  F000         	goto	i2l2335
  1821   000134                     i2u207_40:
  1822   000134  0417               	decf	_RB5_Flag^0,w,c	;volatile
  1823   000136  A4D8               	btfss	status,2,c
  1824   000138  EFA0  F000         	goto	i2u208_41
  1825   00013C  EFA2  F000         	goto	i2u208_40
  1826   000140                     i2u208_41:
  1827   000140  EFA7  F000         	goto	i2l2335
  1828   000144                     i2u208_40:
  1829   000144                     
  1830                           ;MCAL_Layer/Interrupt/mcal_interrupt_manager.c: 75:     {;MCAL_Layer/Interrupt/mcal_inte
      +                          rrupt_manager.c: 76:         RB5_Flag = 0;
  1831   000144  0E00               	movlw	0
  1832   000146  6E17               	movwf	_RB5_Flag^0,c	;volatile
  1833   000148                     
  1834                           ;MCAL_Layer/Interrupt/mcal_interrupt_manager.c: 77:         RB5_ISR(0);
  1835   000148  0E00               	movlw	0
  1836   00014A  ECF5  F00A         	call	_RB5_ISR
  1837   00014E                     i2l2335:
  1838                           
  1839                           ;MCAL_Layer/Interrupt/mcal_interrupt_manager.c: 79:     if ((1 == INTCONbits.RBIE) && (1
      +                           == INTCONbits.RBIF) &&
  1840   00014E  A6F2               	btfss	242,3,c	;volatile
  1841   000150  EFAC  F000         	goto	i2u209_41
  1842   000154  EFAE  F000         	goto	i2u209_40
  1843   000158                     i2u209_41:
  1844   000158  EFC9  F000         	goto	i2l2347
  1845   00015C                     i2u209_40:
  1846   00015C  A0F2               	btfss	242,0,c	;volatile
  1847   00015E  EFB3  F000         	goto	i2u210_41
  1848   000162  EFB5  F000         	goto	i2u210_40
  1849   000166                     i2u210_41:
  1850   000166  EFC9  F000         	goto	i2l2347
  1851   00016A                     i2u210_40:
  1852   00016A  BA81               	btfsc	129,5,c	;volatile
  1853   00016C  EFBA  F000         	goto	i2u211_41
  1854   000170  EFBC  F000         	goto	i2u211_40
  1855   000174                     i2u211_41:
  1856   000174  EFC9  F000         	goto	i2l2347
  1857   000178                     i2u211_40:
  1858   000178  5017               	movf	_RB5_Flag^0,w,c	;volatile
  1859   00017A  A4D8               	btfss	status,2,c
  1860   00017C  EFC2  F000         	goto	i2u212_41
  1861   000180  EFC4  F000         	goto	i2u212_40
  1862   000184                     i2u212_41:
  1863   000184  EFC9  F000         	goto	i2l2347
  1864   000188                     i2u212_40:
  1865   000188                     
  1866                           ;MCAL_Layer/Interrupt/mcal_interrupt_manager.c: 81:     {;MCAL_Layer/Interrupt/mcal_inte
      +                          rrupt_manager.c: 82:         RB5_Flag = 1;
  1867   000188  0E01               	movlw	1
  1868   00018A  6E17               	movwf	_RB5_Flag^0,c	;volatile
  1869   00018C                     
  1870                           ;MCAL_Layer/Interrupt/mcal_interrupt_manager.c: 83:         RB5_ISR(1);
  1871   00018C  0E01               	movlw	1
  1872   00018E  ECF5  F00A         	call	_RB5_ISR
  1873   000192                     i2l2347:
  1874                           
  1875                           ;MCAL_Layer/Interrupt/mcal_interrupt_manager.c: 86:     if ((1 == INTCONbits.RBIE) && (1
      +                           == INTCONbits.RBIF) &&
  1876   000192  A6F2               	btfss	242,3,c	;volatile
  1877   000194  EFCE  F000         	goto	i2u213_41
  1878   000198  EFD0  F000         	goto	i2u213_40
  1879   00019C                     i2u213_41:
  1880   00019C  EFEB  F000         	goto	i2l2359
  1881   0001A0                     i2u213_40:
  1882   0001A0  A0F2               	btfss	242,0,c	;volatile
  1883   0001A2  EFD5  F000         	goto	i2u214_41
  1884   0001A6  EFD7  F000         	goto	i2u214_40
  1885   0001AA                     i2u214_41:
  1886   0001AA  EFEB  F000         	goto	i2l2359
  1887   0001AE                     i2u214_40:
  1888   0001AE  AC81               	btfss	129,6,c	;volatile
  1889   0001B0  EFDC  F000         	goto	i2u215_41
  1890   0001B4  EFDE  F000         	goto	i2u215_40
  1891   0001B8                     i2u215_41:
  1892   0001B8  EFEB  F000         	goto	i2l2359
  1893   0001BC                     i2u215_40:
  1894   0001BC  0416               	decf	_RB6_Flag^0,w,c	;volatile
  1895   0001BE  A4D8               	btfss	status,2,c
  1896   0001C0  EFE4  F000         	goto	i2u216_41
  1897   0001C4  EFE6  F000         	goto	i2u216_40
  1898   0001C8                     i2u216_41:
  1899   0001C8  EFEB  F000         	goto	i2l2359
  1900   0001CC                     i2u216_40:
  1901   0001CC                     
  1902                           ;MCAL_Layer/Interrupt/mcal_interrupt_manager.c: 88:     {;MCAL_Layer/Interrupt/mcal_inte
      +                          rrupt_manager.c: 89:         RB6_Flag = 0;
  1903   0001CC  0E00               	movlw	0
  1904   0001CE  6E16               	movwf	_RB6_Flag^0,c	;volatile
  1905   0001D0                     
  1906                           ;MCAL_Layer/Interrupt/mcal_interrupt_manager.c: 90:         RB6_ISR(0);
  1907   0001D0  0E00               	movlw	0
  1908   0001D2  ECBA  F00A         	call	_RB6_ISR
  1909   0001D6                     i2l2359:
  1910                           
  1911                           ;MCAL_Layer/Interrupt/mcal_interrupt_manager.c: 92:     if ((1 == INTCONbits.RBIE) && (1
      +                           == INTCONbits.RBIF) &&
  1912   0001D6  A6F2               	btfss	242,3,c	;volatile
  1913   0001D8  EFF0  F000         	goto	i2u217_41
  1914   0001DC  EFF2  F000         	goto	i2u217_40
  1915   0001E0                     i2u217_41:
  1916   0001E0  EF0D  F001         	goto	i2l2371
  1917   0001E4                     i2u217_40:
  1918   0001E4  A0F2               	btfss	242,0,c	;volatile
  1919   0001E6  EFF7  F000         	goto	i2u218_41
  1920   0001EA  EFF9  F000         	goto	i2u218_40
  1921   0001EE                     i2u218_41:
  1922   0001EE  EF0D  F001         	goto	i2l2371
  1923   0001F2                     i2u218_40:
  1924   0001F2  BC81               	btfsc	129,6,c	;volatile
  1925   0001F4  EFFE  F000         	goto	i2u219_41
  1926   0001F8  EF00  F001         	goto	i2u219_40
  1927   0001FC                     i2u219_41:
  1928   0001FC  EF0D  F001         	goto	i2l2371
  1929   000200                     i2u219_40:
  1930   000200  5016               	movf	_RB6_Flag^0,w,c	;volatile
  1931   000202  A4D8               	btfss	status,2,c
  1932   000204  EF06  F001         	goto	i2u220_41
  1933   000208  EF08  F001         	goto	i2u220_40
  1934   00020C                     i2u220_41:
  1935   00020C  EF0D  F001         	goto	i2l2371
  1936   000210                     i2u220_40:
  1937   000210                     
  1938                           ;MCAL_Layer/Interrupt/mcal_interrupt_manager.c: 94:     {;MCAL_Layer/Interrupt/mcal_inte
      +                          rrupt_manager.c: 95:         RB6_Flag = 1;
  1939   000210  0E01               	movlw	1
  1940   000212  6E16               	movwf	_RB6_Flag^0,c	;volatile
  1941   000214                     
  1942                           ;MCAL_Layer/Interrupt/mcal_interrupt_manager.c: 96:         RB6_ISR(1);
  1943   000214  0E01               	movlw	1
  1944   000216  ECBA  F00A         	call	_RB6_ISR
  1945   00021A                     i2l2371:
  1946                           
  1947                           ;MCAL_Layer/Interrupt/mcal_interrupt_manager.c: 99:     if ((1 == INTCONbits.RBIE) && (1
      +                           == INTCONbits.RBIF) &&
  1948   00021A  A6F2               	btfss	242,3,c	;volatile
  1949   00021C  EF12  F001         	goto	i2u221_41
  1950   000220  EF14  F001         	goto	i2u221_40
  1951   000224                     i2u221_41:
  1952   000224  EF2F  F001         	goto	i2l2383
  1953   000228                     i2u221_40:
  1954   000228  A0F2               	btfss	242,0,c	;volatile
  1955   00022A  EF19  F001         	goto	i2u222_41
  1956   00022E  EF1B  F001         	goto	i2u222_40
  1957   000232                     i2u222_41:
  1958   000232  EF2F  F001         	goto	i2l2383
  1959   000236                     i2u222_40:
  1960   000236  AE81               	btfss	129,7,c	;volatile
  1961   000238  EF20  F001         	goto	i2u223_41
  1962   00023C  EF22  F001         	goto	i2u223_40
  1963   000240                     i2u223_41:
  1964   000240  EF2F  F001         	goto	i2l2383
  1965   000244                     i2u223_40:
  1966   000244  0415               	decf	_RB7_Flag^0,w,c	;volatile
  1967   000246  A4D8               	btfss	status,2,c
  1968   000248  EF28  F001         	goto	i2u224_41
  1969   00024C  EF2A  F001         	goto	i2u224_40
  1970   000250                     i2u224_41:
  1971   000250  EF2F  F001         	goto	i2l2383
  1972   000254                     i2u224_40:
  1973   000254                     
  1974                           ;MCAL_Layer/Interrupt/mcal_interrupt_manager.c: 101:     {;MCAL_Layer/Interrupt/mcal_int
      +                          errupt_manager.c: 102:         RB7_Flag = 0;
  1975   000254  0E00               	movlw	0
  1976   000256  6E15               	movwf	_RB7_Flag^0,c	;volatile
  1977   000258                     
  1978                           ;MCAL_Layer/Interrupt/mcal_interrupt_manager.c: 103:         RB7_ISR(0);
  1979   000258  0E00               	movlw	0
  1980   00025A  EC7F  F00A         	call	_RB7_ISR
  1981   00025E                     i2l2383:
  1982                           
  1983                           ;MCAL_Layer/Interrupt/mcal_interrupt_manager.c: 105:     if ((1 == INTCONbits.RBIE) && (
      +                          1 == INTCONbits.RBIF) &&
  1984   00025E  A6F2               	btfss	242,3,c	;volatile
  1985   000260  EF34  F001         	goto	i2u225_41
  1986   000264  EF36  F001         	goto	i2u225_40
  1987   000268                     i2u225_41:
  1988   000268  EF51  F001         	goto	i2l439
  1989   00026C                     i2u225_40:
  1990   00026C  A0F2               	btfss	242,0,c	;volatile
  1991   00026E  EF3B  F001         	goto	i2u226_41
  1992   000272  EF3D  F001         	goto	i2u226_40
  1993   000276                     i2u226_41:
  1994   000276  EF51  F001         	goto	i2l439
  1995   00027A                     i2u226_40:
  1996   00027A  BE81               	btfsc	129,7,c	;volatile
  1997   00027C  EF42  F001         	goto	i2u227_41
  1998   000280  EF44  F001         	goto	i2u227_40
  1999   000284                     i2u227_41:
  2000   000284  EF51  F001         	goto	i2l439
  2001   000288                     i2u227_40:
  2002   000288  5015               	movf	_RB7_Flag^0,w,c	;volatile
  2003   00028A  A4D8               	btfss	status,2,c
  2004   00028C  EF4A  F001         	goto	i2u228_41
  2005   000290  EF4C  F001         	goto	i2u228_40
  2006   000294                     i2u228_41:
  2007   000294  EF51  F001         	goto	i2l439
  2008   000298                     i2u228_40:
  2009   000298                     
  2010                           ;MCAL_Layer/Interrupt/mcal_interrupt_manager.c: 107:     {;MCAL_Layer/Interrupt/mcal_int
      +                          errupt_manager.c: 108:         RB7_Flag = 1;
  2011   000298  0E01               	movlw	1
  2012   00029A  6E15               	movwf	_RB7_Flag^0,c	;volatile
  2013   00029C                     
  2014                           ;MCAL_Layer/Interrupt/mcal_interrupt_manager.c: 109:         RB7_ISR(1);
  2015   00029C  0E01               	movlw	1
  2016   00029E  EC7F  F00A         	call	_RB7_ISR
  2017   0002A2                     i2l439:
  2018   0002A2  C04E  FFF4         	movff	??_Interrupt_Manager+5,prodh
  2019   0002A6  C04D  FFF3         	movff	??_Interrupt_Manager+4,prodl
  2020   0002AA  C04C  FFDA         	movff	??_Interrupt_Manager+3,fsr2h
  2021   0002AE  C04B  FFD9         	movff	??_Interrupt_Manager+2,fsr2l
  2022   0002B2  C04A  FFFB         	movff	??_Interrupt_Manager+1,pclatu
  2023   0002B6  C049  FFFA         	movff	??_Interrupt_Manager,pclath
  2024   0002BA  924F               	bcf	int$flags,1,c	;clear compiler interrupt flag (level 2)
  2025   0002BC  0011               	retfie		f
  2026   0002BE                     __end_of_Interrupt_Manager:
  2027                           	callstack 0
  2028                           
  2029 ;; *************** function _RB7_ISR *****************
  2030 ;; Defined at:
  2031 ;;		line 811 in file "MCAL_Layer/Interrupt/mcal_external_interrupt.c"
  2032 ;; Parameters:    Size  Location     Type
  2033 ;;  source          1    wreg     unsigned char 
  2034 ;; Auto vars:     Size  Location     Type
  2035 ;;  source          1   11[COMRAM] unsigned char 
  2036 ;; Return value:  Size  Location     Type
  2037 ;;                  1    wreg      void 
  2038 ;; Registers used:
  2039 ;;		wreg, fsr2l, fsr2h, status,2, status,0, pcl, pclath, pclatu, tosl, prodl, prodh, cstack
  2040 ;; Tracked objects:
  2041 ;;		On entry : 0/0
  2042 ;;		On exit  : 0/0
  2043 ;;		Unchanged: 0/0
  2044 ;; Data sizes:     COMRAM   BANK0   BANK1   BANK2   BANK3   BANK4   BANK5   BANK6   BANK7   BANK8   BANK9  BANK10  BANK1
      +1  BANK12  BANK13  BANK14  BANK15
  2045 ;;      Params:         0       0       0       0       0       0       0       0       0       0       0       0       
      +0       0       0       0       0
  2046 ;;      Locals:         1       0       0       0       0       0       0       0       0       0       0       0       
      +0       0       0       0       0
  2047 ;;      Temps:          0       0       0       0       0       0       0       0       0       0       0       0       
      +0       0       0       0       0
  2048 ;;      Totals:         1       0       0       0       0       0       0       0       0       0       0       0       
      +0       0       0       0       0
  2049 ;;Total ram usage:        1 bytes
  2050 ;; Hardware stack levels used: 1
  2051 ;; Hardware stack levels required when called: 3
  2052 ;; This function calls:
  2053 ;;		_RB4_INT_APP_ISR_HIGH
  2054 ;;		_RB4_INT_APP_ISR_LOW
  2055 ;;		_RB5_INT_APP_ISR_HIGH
  2056 ;;		_RB5_INT_APP_ISR_LOW
  2057 ;;		_RB6_INT_APP_ISR_HIGH
  2058 ;;		_RB6_INT_APP_ISR_LOW
  2059 ;;		_RB7_INT_APP_ISR_HIGH
  2060 ;;		_RB7_INT_APP_ISR_LOW
  2061 ;; This function is called by:
  2062 ;;		_Interrupt_Manager
  2063 ;; This function uses a non-reentrant model
  2064 ;;
  2065                           
  2066                           	psect	text11
  2067   0014FE                     __ptext11:
  2068                           	callstack 0
  2069   0014FE                     _RB7_ISR:
  2070                           	callstack 22
  2071                           
  2072                           ;incstack = 0
  2073                           ;RB7_ISR@source stored from wreg
  2074   0014FE  6E48               	movwf	RB7_ISR@source^0,c
  2075   001500                     
  2076                           ;MCAL_Layer/Interrupt/mcal_external_interrupt.c: 811: void RB7_ISR(uint8 source);MCAL_La
      +                          yer/Interrupt/mcal_external_interrupt.c: 812: {;MCAL_Layer/Interrupt/mcal_external_inter
      +                          rupt.c: 814:     (INTCONbits.RBIF = 0);
  2077   001500  90F2               	bcf	242,0,c	;volatile
  2078   001502                     
  2079                           ;MCAL_Layer/Interrupt/mcal_external_interrupt.c: 818:     if (0 == source)
  2080   001502  5048               	movf	RB7_ISR@source^0,w,c
  2081   001504  A4D8               	btfss	status,2,c
  2082   001506  EF87  F00A         	goto	i2u168_41
  2083   00150A  EF89  F00A         	goto	i2u168_40
  2084   00150E                     i2u168_41:
  2085   00150E  EFA3  F00A         	goto	i2l2169
  2086   001512                     i2u168_40:
  2087   001512                     
  2088                           ;MCAL_Layer/Interrupt/mcal_external_interrupt.c: 819:     {;MCAL_Layer/Interrupt/mcal_ex
      +                          ternal_interrupt.c: 820:         if (RB7_ISRS[1])
  2089   001512  5025               	movf	(_RB7_ISRS+2)^0,w,c
  2090   001514  1026               	iorwf	(_RB7_ISRS+3)^0,w,c
  2091   001516  B4D8               	btfsc	status,2,c
  2092   001518  EF90  F00A         	goto	i2u169_41
  2093   00151C  EF92  F00A         	goto	i2u169_40
  2094   001520                     i2u169_41:
  2095   001520  EFB9  F00A         	goto	i2l395
  2096   001524                     i2u169_40:
  2097   001524                     
  2098                           ;MCAL_Layer/Interrupt/mcal_external_interrupt.c: 821:         {;MCAL_Layer/Interrupt/mca
      +                          l_external_interrupt.c: 822:             RB7_ISRS[1]();
  2099   001524  EE20  F025         	lfsr	2,_RB7_ISRS+2
  2100   001528  D802               	call	i2u170_48
  2101   00152A  EFA1  F00A         	goto	i2u170_49
  2102   00152E                     i2u170_48:
  2103   00152E  0005               	push	
  2104   001530  6EFA               	movwf	pclath,c
  2105   001532  50DE               	movf	postinc2,w,c
  2106   001534  6EFD               	movwf	tosl,c
  2107   001536  50DE               	movf	postinc2,w,c
  2108   001538  6EFE               	movwf	tosh,c
  2109   00153A  50F8               	movf	tblptru,w,c
  2110   00153C  6EFF               	movwf	tosu,c
  2111   00153E  50FA               	movf	pclath,w,c
  2112   001540  0012               	return		;indir
  2113   001542                     i2u170_49:
  2114   001542  EFB9  F00A         	goto	i2l395
  2115   001546                     i2l2169:
  2116                           
  2117                           ;MCAL_Layer/Interrupt/mcal_external_interrupt.c: 826:     {;MCAL_Layer/Interrupt/mcal_ex
      +                          ternal_interrupt.c: 827:         if (RB7_ISRS[0])
  2118   001546  5023               	movf	_RB7_ISRS^0,w,c
  2119   001548  1024               	iorwf	(_RB7_ISRS+1)^0,w,c
  2120   00154A  B4D8               	btfsc	status,2,c
  2121   00154C  EFAA  F00A         	goto	i2u171_41
  2122   001550  EFAC  F00A         	goto	i2u171_40
  2123   001554                     i2u171_41:
  2124   001554  EFB9  F00A         	goto	i2l395
  2125   001558                     i2u171_40:
  2126   001558                     
  2127                           ;MCAL_Layer/Interrupt/mcal_external_interrupt.c: 828:         {;MCAL_Layer/Interrupt/mca
      +                          l_external_interrupt.c: 829:             RB7_ISRS[0]();
  2128   001558  D802               	call	i2u172_48
  2129   00155A  EFB9  F00A         	goto	i2u172_49
  2130   00155E                     i2u172_48:
  2131   00155E  0005               	push	
  2132   001560  6EFA               	movwf	pclath,c
  2133   001562  5023               	movf	_RB7_ISRS^0,w,c
  2134   001564  6EFD               	movwf	tosl,c
  2135   001566  5024               	movf	(_RB7_ISRS+1)^0,w,c
  2136   001568  6EFE               	movwf	tosh,c
  2137   00156A  50F8               	movf	tblptru,w,c
  2138   00156C  6EFF               	movwf	tosu,c
  2139   00156E  50FA               	movf	pclath,w,c
  2140   001570  0012               	return		;indir
  2141   001572                     i2u172_49:
  2142   001572                     i2l395:
  2143   001572  0012               	return		;funcret
  2144   001574                     __end_of_RB7_ISR:
  2145                           	callstack 0
  2146                           
  2147 ;; *************** function _RB6_ISR *****************
  2148 ;; Defined at:
  2149 ;;		line 783 in file "MCAL_Layer/Interrupt/mcal_external_interrupt.c"
  2150 ;; Parameters:    Size  Location     Type
  2151 ;;  source          1    wreg     unsigned char 
  2152 ;; Auto vars:     Size  Location     Type
  2153 ;;  source          1   11[COMRAM] unsigned char 
  2154 ;; Return value:  Size  Location     Type
  2155 ;;                  1    wreg      void 
  2156 ;; Registers used:
  2157 ;;		wreg, fsr2l, fsr2h, status,2, status,0, pcl, pclath, pclatu, tosl, prodl, prodh, cstack
  2158 ;; Tracked objects:
  2159 ;;		On entry : 0/0
  2160 ;;		On exit  : 0/0
  2161 ;;		Unchanged: 0/0
  2162 ;; Data sizes:     COMRAM   BANK0   BANK1   BANK2   BANK3   BANK4   BANK5   BANK6   BANK7   BANK8   BANK9  BANK10  BANK1
      +1  BANK12  BANK13  BANK14  BANK15
  2163 ;;      Params:         0       0       0       0       0       0       0       0       0       0       0       0       
      +0       0       0       0       0
  2164 ;;      Locals:         1       0       0       0       0       0       0       0       0       0       0       0       
      +0       0       0       0       0
  2165 ;;      Temps:          0       0       0       0       0       0       0       0       0       0       0       0       
      +0       0       0       0       0
  2166 ;;      Totals:         1       0       0       0       0       0       0       0       0       0       0       0       
      +0       0       0       0       0
  2167 ;;Total ram usage:        1 bytes
  2168 ;; Hardware stack levels used: 1
  2169 ;; Hardware stack levels required when called: 3
  2170 ;; This function calls:
  2171 ;;		_RB4_INT_APP_ISR_HIGH
  2172 ;;		_RB4_INT_APP_ISR_LOW
  2173 ;;		_RB5_INT_APP_ISR_HIGH
  2174 ;;		_RB5_INT_APP_ISR_LOW
  2175 ;;		_RB6_INT_APP_ISR_HIGH
  2176 ;;		_RB6_INT_APP_ISR_LOW
  2177 ;;		_RB7_INT_APP_ISR_HIGH
  2178 ;;		_RB7_INT_APP_ISR_LOW
  2179 ;; This function is called by:
  2180 ;;		_Interrupt_Manager
  2181 ;; This function uses a non-reentrant model
  2182 ;;
  2183                           
  2184                           	psect	text12
  2185   001574                     __ptext12:
  2186                           	callstack 0
  2187   001574                     _RB6_ISR:
  2188                           	callstack 22
  2189                           
  2190                           ;incstack = 0
  2191                           ;RB6_ISR@source stored from wreg
  2192   001574  6E48               	movwf	RB6_ISR@source^0,c
  2193   001576                     
  2194                           ;MCAL_Layer/Interrupt/mcal_external_interrupt.c: 783: void RB6_ISR(uint8 source);MCAL_La
      +                          yer/Interrupt/mcal_external_interrupt.c: 784: {;MCAL_Layer/Interrupt/mcal_external_inter
      +                          rupt.c: 786:     (INTCONbits.RBIF = 0);
  2195   001576  90F2               	bcf	242,0,c	;volatile
  2196   001578                     
  2197                           ;MCAL_Layer/Interrupt/mcal_external_interrupt.c: 790:     if (0 == source)
  2198   001578  5048               	movf	RB6_ISR@source^0,w,c
  2199   00157A  A4D8               	btfss	status,2,c
  2200   00157C  EFC2  F00A         	goto	i2u163_41
  2201   001580  EFC4  F00A         	goto	i2u163_40
  2202   001584                     i2u163_41:
  2203   001584  EFDE  F00A         	goto	i2l2157
  2204   001588                     i2u163_40:
  2205   001588                     
  2206                           ;MCAL_Layer/Interrupt/mcal_external_interrupt.c: 791:     {;MCAL_Layer/Interrupt/mcal_ex
      +                          ternal_interrupt.c: 792:         if (RB6_ISRS[1])
  2207   001588  5029               	movf	(_RB6_ISRS+2)^0,w,c
  2208   00158A  102A               	iorwf	(_RB6_ISRS+3)^0,w,c
  2209   00158C  B4D8               	btfsc	status,2,c
  2210   00158E  EFCB  F00A         	goto	i2u164_41
  2211   001592  EFCD  F00A         	goto	i2u164_40
  2212   001596                     i2u164_41:
  2213   001596  EFF4  F00A         	goto	i2l388
  2214   00159A                     i2u164_40:
  2215   00159A                     
  2216                           ;MCAL_Layer/Interrupt/mcal_external_interrupt.c: 793:         {;MCAL_Layer/Interrupt/mca
      +                          l_external_interrupt.c: 794:             RB6_ISRS[1]();
  2217   00159A  EE20  F029         	lfsr	2,_RB6_ISRS+2
  2218   00159E  D802               	call	i2u165_48
  2219   0015A0  EFDC  F00A         	goto	i2u165_49
  2220   0015A4                     i2u165_48:
  2221   0015A4  0005               	push	
  2222   0015A6  6EFA               	movwf	pclath,c
  2223   0015A8  50DE               	movf	postinc2,w,c
  2224   0015AA  6EFD               	movwf	tosl,c
  2225   0015AC  50DE               	movf	postinc2,w,c
  2226   0015AE  6EFE               	movwf	tosh,c
  2227   0015B0  50F8               	movf	tblptru,w,c
  2228   0015B2  6EFF               	movwf	tosu,c
  2229   0015B4  50FA               	movf	pclath,w,c
  2230   0015B6  0012               	return		;indir
  2231   0015B8                     i2u165_49:
  2232   0015B8  EFF4  F00A         	goto	i2l388
  2233   0015BC                     i2l2157:
  2234                           
  2235                           ;MCAL_Layer/Interrupt/mcal_external_interrupt.c: 798:     {;MCAL_Layer/Interrupt/mcal_ex
      +                          ternal_interrupt.c: 799:         if (RB6_ISRS[0])
  2236   0015BC  5027               	movf	_RB6_ISRS^0,w,c
  2237   0015BE  1028               	iorwf	(_RB6_ISRS+1)^0,w,c
  2238   0015C0  B4D8               	btfsc	status,2,c
  2239   0015C2  EFE5  F00A         	goto	i2u166_41
  2240   0015C6  EFE7  F00A         	goto	i2u166_40
  2241   0015CA                     i2u166_41:
  2242   0015CA  EFF4  F00A         	goto	i2l388
  2243   0015CE                     i2u166_40:
  2244   0015CE                     
  2245                           ;MCAL_Layer/Interrupt/mcal_external_interrupt.c: 800:         {;MCAL_Layer/Interrupt/mca
      +                          l_external_interrupt.c: 801:             RB6_ISRS[0]();
  2246   0015CE  D802               	call	i2u167_48
  2247   0015D0  EFF4  F00A         	goto	i2u167_49
  2248   0015D4                     i2u167_48:
  2249   0015D4  0005               	push	
  2250   0015D6  6EFA               	movwf	pclath,c
  2251   0015D8  5027               	movf	_RB6_ISRS^0,w,c
  2252   0015DA  6EFD               	movwf	tosl,c
  2253   0015DC  5028               	movf	(_RB6_ISRS+1)^0,w,c
  2254   0015DE  6EFE               	movwf	tosh,c
  2255   0015E0  50F8               	movf	tblptru,w,c
  2256   0015E2  6EFF               	movwf	tosu,c
  2257   0015E4  50FA               	movf	pclath,w,c
  2258   0015E6  0012               	return		;indir
  2259   0015E8                     i2u167_49:
  2260   0015E8                     i2l388:
  2261   0015E8  0012               	return		;funcret
  2262   0015EA                     __end_of_RB6_ISR:
  2263                           	callstack 0
  2264                           
  2265 ;; *************** function _RB5_ISR *****************
  2266 ;; Defined at:
  2267 ;;		line 755 in file "MCAL_Layer/Interrupt/mcal_external_interrupt.c"
  2268 ;; Parameters:    Size  Location     Type
  2269 ;;  source          1    wreg     unsigned char 
  2270 ;; Auto vars:     Size  Location     Type
  2271 ;;  source          1   11[COMRAM] unsigned char 
  2272 ;; Return value:  Size  Location     Type
  2273 ;;                  1    wreg      void 
  2274 ;; Registers used:
  2275 ;;		wreg, fsr2l, fsr2h, status,2, status,0, pcl, pclath, pclatu, tosl, prodl, prodh, cstack
  2276 ;; Tracked objects:
  2277 ;;		On entry : 0/0
  2278 ;;		On exit  : 0/0
  2279 ;;		Unchanged: 0/0
  2280 ;; Data sizes:     COMRAM   BANK0   BANK1   BANK2   BANK3   BANK4   BANK5   BANK6   BANK7   BANK8   BANK9  BANK10  BANK1
      +1  BANK12  BANK13  BANK14  BANK15
  2281 ;;      Params:         0       0       0       0       0       0       0       0       0       0       0       0       
      +0       0       0       0       0
  2282 ;;      Locals:         1       0       0       0       0       0       0       0       0       0       0       0       
      +0       0       0       0       0
  2283 ;;      Temps:          0       0       0       0       0       0       0       0       0       0       0       0       
      +0       0       0       0       0
  2284 ;;      Totals:         1       0       0       0       0       0       0       0       0       0       0       0       
      +0       0       0       0       0
  2285 ;;Total ram usage:        1 bytes
  2286 ;; Hardware stack levels used: 1
  2287 ;; Hardware stack levels required when called: 3
  2288 ;; This function calls:
  2289 ;;		_RB4_INT_APP_ISR_HIGH
  2290 ;;		_RB4_INT_APP_ISR_LOW
  2291 ;;		_RB5_INT_APP_ISR_HIGH
  2292 ;;		_RB5_INT_APP_ISR_LOW
  2293 ;;		_RB6_INT_APP_ISR_HIGH
  2294 ;;		_RB6_INT_APP_ISR_LOW
  2295 ;;		_RB7_INT_APP_ISR_HIGH
  2296 ;;		_RB7_INT_APP_ISR_LOW
  2297 ;; This function is called by:
  2298 ;;		_Interrupt_Manager
  2299 ;; This function uses a non-reentrant model
  2300 ;;
  2301                           
  2302                           	psect	text13
  2303   0015EA                     __ptext13:
  2304                           	callstack 0
  2305   0015EA                     _RB5_ISR:
  2306                           	callstack 22
  2307                           
  2308                           ;incstack = 0
  2309                           ;RB5_ISR@source stored from wreg
  2310   0015EA  6E48               	movwf	RB5_ISR@source^0,c
  2311   0015EC                     
  2312                           ;MCAL_Layer/Interrupt/mcal_external_interrupt.c: 755: void RB5_ISR(uint8 source);MCAL_La
      +                          yer/Interrupt/mcal_external_interrupt.c: 756: {;MCAL_Layer/Interrupt/mcal_external_inter
      +                          rupt.c: 758:     (INTCONbits.RBIF = 0);
  2313   0015EC  90F2               	bcf	242,0,c	;volatile
  2314   0015EE                     
  2315                           ;MCAL_Layer/Interrupt/mcal_external_interrupt.c: 762:     if (0 == source)
  2316   0015EE  5048               	movf	RB5_ISR@source^0,w,c
  2317   0015F0  A4D8               	btfss	status,2,c
  2318   0015F2  EFFD  F00A         	goto	i2u158_41
  2319   0015F6  EFFF  F00A         	goto	i2u158_40
  2320   0015FA                     i2u158_41:
  2321   0015FA  EF17  F00B         	goto	i2l2145
  2322   0015FE                     i2u158_40:
  2323   0015FE                     
  2324                           ;MCAL_Layer/Interrupt/mcal_external_interrupt.c: 763:     {;MCAL_Layer/Interrupt/mcal_ex
      +                          ternal_interrupt.c: 764:         if (RB5_ISRS[0])
  2325   0015FE  502B               	movf	_RB5_ISRS^0,w,c
  2326   001600  102C               	iorwf	(_RB5_ISRS+1)^0,w,c
  2327   001602  B4D8               	btfsc	status,2,c
  2328   001604  EF06  F00B         	goto	i2u159_41
  2329   001608  EF08  F00B         	goto	i2u159_40
  2330   00160C                     i2u159_41:
  2331   00160C  EF2F  F00B         	goto	i2l381
  2332   001610                     i2u159_40:
  2333   001610                     
  2334                           ;MCAL_Layer/Interrupt/mcal_external_interrupt.c: 765:         {;MCAL_Layer/Interrupt/mca
      +                          l_external_interrupt.c: 766:             RB5_ISRS[0]();
  2335   001610  D802               	call	i2u160_48
  2336   001612  EF15  F00B         	goto	i2u160_49
  2337   001616                     i2u160_48:
  2338   001616  0005               	push	
  2339   001618  6EFA               	movwf	pclath,c
  2340   00161A  502B               	movf	_RB5_ISRS^0,w,c
  2341   00161C  6EFD               	movwf	tosl,c
  2342   00161E  502C               	movf	(_RB5_ISRS+1)^0,w,c
  2343   001620  6EFE               	movwf	tosh,c
  2344   001622  50F8               	movf	tblptru,w,c
  2345   001624  6EFF               	movwf	tosu,c
  2346   001626  50FA               	movf	pclath,w,c
  2347   001628  0012               	return		;indir
  2348   00162A                     i2u160_49:
  2349   00162A  EF2F  F00B         	goto	i2l381
  2350   00162E                     i2l2145:
  2351                           
  2352                           ;MCAL_Layer/Interrupt/mcal_external_interrupt.c: 770:     {;MCAL_Layer/Interrupt/mcal_ex
      +                          ternal_interrupt.c: 771:         if (RB5_ISRS[1])
  2353   00162E  502D               	movf	(_RB5_ISRS+2)^0,w,c
  2354   001630  102E               	iorwf	(_RB5_ISRS+3)^0,w,c
  2355   001632  B4D8               	btfsc	status,2,c
  2356   001634  EF1E  F00B         	goto	i2u161_41
  2357   001638  EF20  F00B         	goto	i2u161_40
  2358   00163C                     i2u161_41:
  2359   00163C  EF2F  F00B         	goto	i2l381
  2360   001640                     i2u161_40:
  2361   001640                     
  2362                           ;MCAL_Layer/Interrupt/mcal_external_interrupt.c: 772:         {;MCAL_Layer/Interrupt/mca
      +                          l_external_interrupt.c: 773:             RB5_ISRS[1]();
  2363   001640  EE20  F02D         	lfsr	2,_RB5_ISRS+2
  2364   001644  D802               	call	i2u162_48
  2365   001646  EF2F  F00B         	goto	i2u162_49
  2366   00164A                     i2u162_48:
  2367   00164A  0005               	push	
  2368   00164C  6EFA               	movwf	pclath,c
  2369   00164E  50DE               	movf	postinc2,w,c
  2370   001650  6EFD               	movwf	tosl,c
  2371   001652  50DE               	movf	postinc2,w,c
  2372   001654  6EFE               	movwf	tosh,c
  2373   001656  50F8               	movf	tblptru,w,c
  2374   001658  6EFF               	movwf	tosu,c
  2375   00165A  50FA               	movf	pclath,w,c
  2376   00165C  0012               	return		;indir
  2377   00165E                     i2u162_49:
  2378   00165E                     i2l381:
  2379   00165E  0012               	return		;funcret
  2380   001660                     __end_of_RB5_ISR:
  2381                           	callstack 0
  2382                           
  2383 ;; *************** function _RB4_ISR *****************
  2384 ;; Defined at:
  2385 ;;		line 727 in file "MCAL_Layer/Interrupt/mcal_external_interrupt.c"
  2386 ;; Parameters:    Size  Location     Type
  2387 ;;  source          1    wreg     unsigned char 
  2388 ;; Auto vars:     Size  Location     Type
  2389 ;;  source          1   11[COMRAM] unsigned char 
  2390 ;; Return value:  Size  Location     Type
  2391 ;;                  1    wreg      void 
  2392 ;; Registers used:
  2393 ;;		wreg, fsr2l, fsr2h, status,2, status,0, pcl, pclath, pclatu, tosl, prodl, prodh, cstack
  2394 ;; Tracked objects:
  2395 ;;		On entry : 0/0
  2396 ;;		On exit  : 0/0
  2397 ;;		Unchanged: 0/0
  2398 ;; Data sizes:     COMRAM   BANK0   BANK1   BANK2   BANK3   BANK4   BANK5   BANK6   BANK7   BANK8   BANK9  BANK10  BANK1
      +1  BANK12  BANK13  BANK14  BANK15
  2399 ;;      Params:         0       0       0       0       0       0       0       0       0       0       0       0       
      +0       0       0       0       0
  2400 ;;      Locals:         1       0       0       0       0       0       0       0       0       0       0       0       
      +0       0       0       0       0
  2401 ;;      Temps:          0       0       0       0       0       0       0       0       0       0       0       0       
      +0       0       0       0       0
  2402 ;;      Totals:         1       0       0       0       0       0       0       0       0       0       0       0       
      +0       0       0       0       0
  2403 ;;Total ram usage:        1 bytes
  2404 ;; Hardware stack levels used: 1
  2405 ;; Hardware stack levels required when called: 3
  2406 ;; This function calls:
  2407 ;;		_RB4_INT_APP_ISR_HIGH
  2408 ;;		_RB4_INT_APP_ISR_LOW
  2409 ;;		_RB5_INT_APP_ISR_HIGH
  2410 ;;		_RB5_INT_APP_ISR_LOW
  2411 ;;		_RB6_INT_APP_ISR_HIGH
  2412 ;;		_RB6_INT_APP_ISR_LOW
  2413 ;;		_RB7_INT_APP_ISR_HIGH
  2414 ;;		_RB7_INT_APP_ISR_LOW
  2415 ;; This function is called by:
  2416 ;;		_Interrupt_Manager
  2417 ;; This function uses a non-reentrant model
  2418 ;;
  2419                           
  2420                           	psect	text14
  2421   001660                     __ptext14:
  2422                           	callstack 0
  2423   001660                     _RB4_ISR:
  2424                           	callstack 22
  2425                           
  2426                           ;incstack = 0
  2427                           ;RB4_ISR@source stored from wreg
  2428   001660  6E48               	movwf	RB4_ISR@source^0,c
  2429   001662                     
  2430                           ;MCAL_Layer/Interrupt/mcal_external_interrupt.c: 727: void RB4_ISR(uint8 source);MCAL_La
      +                          yer/Interrupt/mcal_external_interrupt.c: 728: {;MCAL_Layer/Interrupt/mcal_external_inter
      +                          rupt.c: 730:     (INTCONbits.RBIF = 0);
  2431   001662  90F2               	bcf	242,0,c	;volatile
  2432   001664                     
  2433                           ;MCAL_Layer/Interrupt/mcal_external_interrupt.c: 734:     if (0 == source)
  2434   001664  5048               	movf	RB4_ISR@source^0,w,c
  2435   001666  A4D8               	btfss	status,2,c
  2436   001668  EF38  F00B         	goto	i2u153_41
  2437   00166C  EF3A  F00B         	goto	i2u153_40
  2438   001670                     i2u153_41:
  2439   001670  EF52  F00B         	goto	i2l2133
  2440   001674                     i2u153_40:
  2441   001674                     
  2442                           ;MCAL_Layer/Interrupt/mcal_external_interrupt.c: 735:     {;MCAL_Layer/Interrupt/mcal_ex
      +                          ternal_interrupt.c: 736:         if (RB4_ISRS[0])
  2443   001674  502F               	movf	_RB4_ISRS^0,w,c
  2444   001676  1030               	iorwf	(_RB4_ISRS+1)^0,w,c
  2445   001678  B4D8               	btfsc	status,2,c
  2446   00167A  EF41  F00B         	goto	i2u154_41
  2447   00167E  EF43  F00B         	goto	i2u154_40
  2448   001682                     i2u154_41:
  2449   001682  EF6A  F00B         	goto	i2l374
  2450   001686                     i2u154_40:
  2451   001686                     
  2452                           ;MCAL_Layer/Interrupt/mcal_external_interrupt.c: 737:         {;MCAL_Layer/Interrupt/mca
      +                          l_external_interrupt.c: 738:             RB4_ISRS[0]();
  2453   001686  D802               	call	i2u155_48
  2454   001688  EF50  F00B         	goto	i2u155_49
  2455   00168C                     i2u155_48:
  2456   00168C  0005               	push	
  2457   00168E  6EFA               	movwf	pclath,c
  2458   001690  502F               	movf	_RB4_ISRS^0,w,c
  2459   001692  6EFD               	movwf	tosl,c
  2460   001694  5030               	movf	(_RB4_ISRS+1)^0,w,c
  2461   001696  6EFE               	movwf	tosh,c
  2462   001698  50F8               	movf	tblptru,w,c
  2463   00169A  6EFF               	movwf	tosu,c
  2464   00169C  50FA               	movf	pclath,w,c
  2465   00169E  0012               	return		;indir
  2466   0016A0                     i2u155_49:
  2467   0016A0  EF6A  F00B         	goto	i2l374
  2468   0016A4                     i2l2133:
  2469                           
  2470                           ;MCAL_Layer/Interrupt/mcal_external_interrupt.c: 742:     {;MCAL_Layer/Interrupt/mcal_ex
      +                          ternal_interrupt.c: 743:         if (RB4_ISRS[1])
  2471   0016A4  5031               	movf	(_RB4_ISRS+2)^0,w,c
  2472   0016A6  1032               	iorwf	(_RB4_ISRS+3)^0,w,c
  2473   0016A8  B4D8               	btfsc	status,2,c
  2474   0016AA  EF59  F00B         	goto	i2u156_41
  2475   0016AE  EF5B  F00B         	goto	i2u156_40
  2476   0016B2                     i2u156_41:
  2477   0016B2  EF6A  F00B         	goto	i2l374
  2478   0016B6                     i2u156_40:
  2479   0016B6                     
  2480                           ;MCAL_Layer/Interrupt/mcal_external_interrupt.c: 744:         {;MCAL_Layer/Interrupt/mca
      +                          l_external_interrupt.c: 745:             RB4_ISRS[1]();
  2481   0016B6  EE20  F031         	lfsr	2,_RB4_ISRS+2
  2482   0016BA  D802               	call	i2u157_48
  2483   0016BC  EF6A  F00B         	goto	i2u157_49
  2484   0016C0                     i2u157_48:
  2485   0016C0  0005               	push	
  2486   0016C2  6EFA               	movwf	pclath,c
  2487   0016C4  50DE               	movf	postinc2,w,c
  2488   0016C6  6EFD               	movwf	tosl,c
  2489   0016C8  50DE               	movf	postinc2,w,c
  2490   0016CA  6EFE               	movwf	tosh,c
  2491   0016CC  50F8               	movf	tblptru,w,c
  2492   0016CE  6EFF               	movwf	tosu,c
  2493   0016D0  50FA               	movf	pclath,w,c
  2494   0016D2  0012               	return		;indir
  2495   0016D4                     i2u157_49:
  2496   0016D4                     i2l374:
  2497   0016D4  0012               	return		;funcret
  2498   0016D6                     __end_of_RB4_ISR:
  2499                           	callstack 0
  2500                           
  2501 ;; *************** function _RB7_INT_APP_ISR_HIGH *****************
  2502 ;; Defined at:
  2503 ;;		line 44 in file "app.c"
  2504 ;; Parameters:    Size  Location     Type
  2505 ;;		None
  2506 ;; Auto vars:     Size  Location     Type
  2507 ;;		None
  2508 ;; Return value:  Size  Location     Type
  2509 ;;                  1    wreg      void 
  2510 ;; Registers used:
  2511 ;;		wreg, fsr2l, fsr2h, status,2, status,0, prodl, prodh, cstack
  2512 ;; Tracked objects:
  2513 ;;		On entry : 0/0
  2514 ;;		On exit  : 0/0
  2515 ;;		Unchanged: 0/0
  2516 ;; Data sizes:     COMRAM   BANK0   BANK1   BANK2   BANK3   BANK4   BANK5   BANK6   BANK7   BANK8   BANK9  BANK10  BANK1
      +1  BANK12  BANK13  BANK14  BANK15
  2517 ;;      Params:         0       0       0       0       0       0       0       0       0       0       0       0       
      +0       0       0       0       0
  2518 ;;      Locals:         0       0       0       0       0       0       0       0       0       0       0       0       
      +0       0       0       0       0
  2519 ;;      Temps:          0       0       0       0       0       0       0       0       0       0       0       0       
      +0       0       0       0       0
  2520 ;;      Totals:         0       0       0       0       0       0       0       0       0       0       0       0       
      +0       0       0       0       0
  2521 ;;Total ram usage:        0 bytes
  2522 ;; Hardware stack levels used: 1
  2523 ;; Hardware stack levels required when called: 2
  2524 ;; This function calls:
  2525 ;;		_led_turn_off
  2526 ;; This function is called by:
  2527 ;;		_RB4_ISR
  2528 ;;		_RB5_ISR
  2529 ;;		_RB6_ISR
  2530 ;;		_RB7_ISR
  2531 ;; This function uses a non-reentrant model
  2532 ;;
  2533                           
  2534                           	psect	text15
  2535   0018FC                     __ptext15:
  2536                           	callstack 0
  2537   0018FC                     _RB7_INT_APP_ISR_HIGH:
  2538                           	callstack 22
  2539   0018FC                     
  2540                           ;app.c: 46:     led_turn_off(&led4);
  2541   0018FC  0E1F               	movlw	low _led4
  2542   0018FE  6E45               	movwf	led_turn_off@led^0,c
  2543   001900  EC6B  F00B         	call	_led_turn_off	;wreg free
  2544   001904  0012               	return		;funcret
  2545   001906                     __end_of_RB7_INT_APP_ISR_HIGH:
  2546                           	callstack 0
  2547                           
  2548 ;; *************** function _RB6_INT_APP_ISR_LOW *****************
  2549 ;; Defined at:
  2550 ;;		line 39 in file "app.c"
  2551 ;; Parameters:    Size  Location     Type
  2552 ;;		None
  2553 ;; Auto vars:     Size  Location     Type
  2554 ;;		None
  2555 ;; Return value:  Size  Location     Type
  2556 ;;                  1    wreg      void 
  2557 ;; Registers used:
  2558 ;;		wreg, fsr2l, fsr2h, status,2, status,0, prodl, prodh, cstack
  2559 ;; Tracked objects:
  2560 ;;		On entry : 0/0
  2561 ;;		On exit  : 0/0
  2562 ;;		Unchanged: 0/0
  2563 ;; Data sizes:     COMRAM   BANK0   BANK1   BANK2   BANK3   BANK4   BANK5   BANK6   BANK7   BANK8   BANK9  BANK10  BANK1
      +1  BANK12  BANK13  BANK14  BANK15
  2564 ;;      Params:         0       0       0       0       0       0       0       0       0       0       0       0       
      +0       0       0       0       0
  2565 ;;      Locals:         0       0       0       0       0       0       0       0       0       0       0       0       
      +0       0       0       0       0
  2566 ;;      Temps:          0       0       0       0       0       0       0       0       0       0       0       0       
      +0       0       0       0       0
  2567 ;;      Totals:         0       0       0       0       0       0       0       0       0       0       0       0       
      +0       0       0       0       0
  2568 ;;Total ram usage:        0 bytes
  2569 ;; Hardware stack levels used: 1
  2570 ;; Hardware stack levels required when called: 2
  2571 ;; This function calls:
  2572 ;;		_led_turn_on
  2573 ;; This function is called by:
  2574 ;;		_RB4_ISR
  2575 ;;		_RB5_ISR
  2576 ;;		_RB6_ISR
  2577 ;;		_RB7_ISR
  2578 ;; This function uses a non-reentrant model
  2579 ;;
  2580                           
  2581                           	psect	text16
  2582   001906                     __ptext16:
  2583                           	callstack 0
  2584   001906                     _RB6_INT_APP_ISR_LOW:
  2585                           	callstack 22
  2586   001906                     
  2587                           ;app.c: 41:     led_turn_on(&led4);
  2588   001906  0E1F               	movlw	low _led4
  2589   001908  6E45               	movwf	led_turn_on@led^0,c
  2590   00190A  ECA0  F00B         	call	_led_turn_on	;wreg free
  2591   00190E  0012               	return		;funcret
  2592   001910                     __end_of_RB6_INT_APP_ISR_LOW:
  2593                           	callstack 0
  2594                           
  2595 ;; *************** function _RB6_INT_APP_ISR_HIGH *****************
  2596 ;; Defined at:
  2597 ;;		line 35 in file "app.c"
  2598 ;; Parameters:    Size  Location     Type
  2599 ;;		None
  2600 ;; Auto vars:     Size  Location     Type
  2601 ;;		None
  2602 ;; Return value:  Size  Location     Type
  2603 ;;                  1    wreg      void 
  2604 ;; Registers used:
  2605 ;;		wreg, fsr2l, fsr2h, status,2, status,0, prodl, prodh, cstack
  2606 ;; Tracked objects:
  2607 ;;		On entry : 0/0
  2608 ;;		On exit  : 0/0
  2609 ;;		Unchanged: 0/0
  2610 ;; Data sizes:     COMRAM   BANK0   BANK1   BANK2   BANK3   BANK4   BANK5   BANK6   BANK7   BANK8   BANK9  BANK10  BANK1
      +1  BANK12  BANK13  BANK14  BANK15
  2611 ;;      Params:         0       0       0       0       0       0       0       0       0       0       0       0       
      +0       0       0       0       0
  2612 ;;      Locals:         0       0       0       0       0       0       0       0       0       0       0       0       
      +0       0       0       0       0
  2613 ;;      Temps:          0       0       0       0       0       0       0       0       0       0       0       0       
      +0       0       0       0       0
  2614 ;;      Totals:         0       0       0       0       0       0       0       0       0       0       0       0       
      +0       0       0       0       0
  2615 ;;Total ram usage:        0 bytes
  2616 ;; Hardware stack levels used: 1
  2617 ;; Hardware stack levels required when called: 2
  2618 ;; This function calls:
  2619 ;;		_led_turn_on
  2620 ;; This function is called by:
  2621 ;;		_RB4_ISR
  2622 ;;		_RB5_ISR
  2623 ;;		_RB6_ISR
  2624 ;;		_RB7_ISR
  2625 ;; This function uses a non-reentrant model
  2626 ;;
  2627                           
  2628                           	psect	text17
  2629   001910                     __ptext17:
  2630                           	callstack 0
  2631   001910                     _RB6_INT_APP_ISR_HIGH:
  2632                           	callstack 22
  2633   001910                     
  2634                           ;app.c: 37:     led_turn_on(&led3);
  2635   001910  0E20               	movlw	low _led3
  2636   001912  6E45               	movwf	led_turn_on@led^0,c
  2637   001914  ECA0  F00B         	call	_led_turn_on	;wreg free
  2638   001918  0012               	return		;funcret
  2639   00191A                     __end_of_RB6_INT_APP_ISR_HIGH:
  2640                           	callstack 0
  2641                           
  2642 ;; *************** function _RB5_INT_APP_ISR_LOW *****************
  2643 ;; Defined at:
  2644 ;;		line 30 in file "app.c"
  2645 ;; Parameters:    Size  Location     Type
  2646 ;;		None
  2647 ;; Auto vars:     Size  Location     Type
  2648 ;;		None
  2649 ;; Return value:  Size  Location     Type
  2650 ;;                  1    wreg      void 
  2651 ;; Registers used:
  2652 ;;		wreg, fsr2l, fsr2h, status,2, status,0, prodl, prodh, cstack
  2653 ;; Tracked objects:
  2654 ;;		On entry : 0/0
  2655 ;;		On exit  : 0/0
  2656 ;;		Unchanged: 0/0
  2657 ;; Data sizes:     COMRAM   BANK0   BANK1   BANK2   BANK3   BANK4   BANK5   BANK6   BANK7   BANK8   BANK9  BANK10  BANK1
      +1  BANK12  BANK13  BANK14  BANK15
  2658 ;;      Params:         0       0       0       0       0       0       0       0       0       0       0       0       
      +0       0       0       0       0
  2659 ;;      Locals:         0       0       0       0       0       0       0       0       0       0       0       0       
      +0       0       0       0       0
  2660 ;;      Temps:          0       0       0       0       0       0       0       0       0       0       0       0       
      +0       0       0       0       0
  2661 ;;      Totals:         0       0       0       0       0       0       0       0       0       0       0       0       
      +0       0       0       0       0
  2662 ;;Total ram usage:        0 bytes
  2663 ;; Hardware stack levels used: 1
  2664 ;; Hardware stack levels required when called: 2
  2665 ;; This function calls:
  2666 ;;		_led_turn_off
  2667 ;; This function is called by:
  2668 ;;		_RB4_ISR
  2669 ;;		_RB5_ISR
  2670 ;;		_RB6_ISR
  2671 ;;		_RB7_ISR
  2672 ;; This function uses a non-reentrant model
  2673 ;;
  2674                           
  2675                           	psect	text18
  2676   00191A                     __ptext18:
  2677                           	callstack 0
  2678   00191A                     _RB5_INT_APP_ISR_LOW:
  2679                           	callstack 22
  2680   00191A                     
  2681                           ;app.c: 32:     led_turn_off(&led1);
  2682   00191A  0E22               	movlw	low _led1
  2683   00191C  6E45               	movwf	led_turn_off@led^0,c
  2684   00191E  EC6B  F00B         	call	_led_turn_off	;wreg free
  2685   001922  0012               	return		;funcret
  2686   001924                     __end_of_RB5_INT_APP_ISR_LOW:
  2687                           	callstack 0
  2688                           
  2689 ;; *************** function _RB5_INT_APP_ISR_HIGH *****************
  2690 ;; Defined at:
  2691 ;;		line 26 in file "app.c"
  2692 ;; Parameters:    Size  Location     Type
  2693 ;;		None
  2694 ;; Auto vars:     Size  Location     Type
  2695 ;;		None
  2696 ;; Return value:  Size  Location     Type
  2697 ;;                  1    wreg      void 
  2698 ;; Registers used:
  2699 ;;		wreg, fsr2l, fsr2h, status,2, status,0, prodl, prodh, cstack
  2700 ;; Tracked objects:
  2701 ;;		On entry : 0/0
  2702 ;;		On exit  : 0/0
  2703 ;;		Unchanged: 0/0
  2704 ;; Data sizes:     COMRAM   BANK0   BANK1   BANK2   BANK3   BANK4   BANK5   BANK6   BANK7   BANK8   BANK9  BANK10  BANK1
      +1  BANK12  BANK13  BANK14  BANK15
  2705 ;;      Params:         0       0       0       0       0       0       0       0       0       0       0       0       
      +0       0       0       0       0
  2706 ;;      Locals:         0       0       0       0       0       0       0       0       0       0       0       0       
      +0       0       0       0       0
  2707 ;;      Temps:          0       0       0       0       0       0       0       0       0       0       0       0       
      +0       0       0       0       0
  2708 ;;      Totals:         0       0       0       0       0       0       0       0       0       0       0       0       
      +0       0       0       0       0
  2709 ;;Total ram usage:        0 bytes
  2710 ;; Hardware stack levels used: 1
  2711 ;; Hardware stack levels required when called: 2
  2712 ;; This function calls:
  2713 ;;		_led_turn_off
  2714 ;; This function is called by:
  2715 ;;		_RB4_ISR
  2716 ;;		_RB5_ISR
  2717 ;;		_RB6_ISR
  2718 ;;		_RB7_ISR
  2719 ;; This function uses a non-reentrant model
  2720 ;;
  2721                           
  2722                           	psect	text19
  2723   001924                     __ptext19:
  2724                           	callstack 0
  2725   001924                     _RB5_INT_APP_ISR_HIGH:
  2726                           	callstack 22
  2727   001924                     
  2728                           ;app.c: 28:     led_turn_off(&led2);
  2729   001924  0E21               	movlw	low _led2
  2730   001926  6E45               	movwf	led_turn_off@led^0,c
  2731   001928  EC6B  F00B         	call	_led_turn_off	;wreg free
  2732   00192C  0012               	return		;funcret
  2733   00192E                     __end_of_RB5_INT_APP_ISR_HIGH:
  2734                           	callstack 0
  2735                           
  2736 ;; *************** function _RB4_INT_APP_ISR_LOW *****************
  2737 ;; Defined at:
  2738 ;;		line 21 in file "app.c"
  2739 ;; Parameters:    Size  Location     Type
  2740 ;;		None
  2741 ;; Auto vars:     Size  Location     Type
  2742 ;;		None
  2743 ;; Return value:  Size  Location     Type
  2744 ;;                  1    wreg      void 
  2745 ;; Registers used:
  2746 ;;		wreg, fsr2l, fsr2h, status,2, status,0, prodl, prodh, cstack
  2747 ;; Tracked objects:
  2748 ;;		On entry : 0/0
  2749 ;;		On exit  : 0/0
  2750 ;;		Unchanged: 0/0
  2751 ;; Data sizes:     COMRAM   BANK0   BANK1   BANK2   BANK3   BANK4   BANK5   BANK6   BANK7   BANK8   BANK9  BANK10  BANK1
      +1  BANK12  BANK13  BANK14  BANK15
  2752 ;;      Params:         0       0       0       0       0       0       0       0       0       0       0       0       
      +0       0       0       0       0
  2753 ;;      Locals:         0       0       0       0       0       0       0       0       0       0       0       0       
      +0       0       0       0       0
  2754 ;;      Temps:          0       0       0       0       0       0       0       0       0       0       0       0       
      +0       0       0       0       0
  2755 ;;      Totals:         0       0       0       0       0       0       0       0       0       0       0       0       
      +0       0       0       0       0
  2756 ;;Total ram usage:        0 bytes
  2757 ;; Hardware stack levels used: 1
  2758 ;; Hardware stack levels required when called: 2
  2759 ;; This function calls:
  2760 ;;		_led_turn_on
  2761 ;; This function is called by:
  2762 ;;		_RB4_ISR
  2763 ;;		_RB5_ISR
  2764 ;;		_RB6_ISR
  2765 ;;		_RB7_ISR
  2766 ;; This function uses a non-reentrant model
  2767 ;;
  2768                           
  2769                           	psect	text20
  2770   00192E                     __ptext20:
  2771                           	callstack 0
  2772   00192E                     _RB4_INT_APP_ISR_LOW:
  2773                           	callstack 22
  2774   00192E                     
  2775                           ;app.c: 23:     led_turn_on(&led2);
  2776   00192E  0E21               	movlw	low _led2
  2777   001930  6E45               	movwf	led_turn_on@led^0,c
  2778   001932  ECA0  F00B         	call	_led_turn_on	;wreg free
  2779   001936  0012               	return		;funcret
  2780   001938                     __end_of_RB4_INT_APP_ISR_LOW:
  2781                           	callstack 0
  2782                           
  2783 ;; *************** function _RB4_INT_APP_ISR_HIGH *****************
  2784 ;; Defined at:
  2785 ;;		line 17 in file "app.c"
  2786 ;; Parameters:    Size  Location     Type
  2787 ;;		None
  2788 ;; Auto vars:     Size  Location     Type
  2789 ;;		None
  2790 ;; Return value:  Size  Location     Type
  2791 ;;                  1    wreg      void 
  2792 ;; Registers used:
  2793 ;;		wreg, fsr2l, fsr2h, status,2, status,0, prodl, prodh, cstack
  2794 ;; Tracked objects:
  2795 ;;		On entry : 0/0
  2796 ;;		On exit  : 0/0
  2797 ;;		Unchanged: 0/0
  2798 ;; Data sizes:     COMRAM   BANK0   BANK1   BANK2   BANK3   BANK4   BANK5   BANK6   BANK7   BANK8   BANK9  BANK10  BANK1
      +1  BANK12  BANK13  BANK14  BANK15
  2799 ;;      Params:         0       0       0       0       0       0       0       0       0       0       0       0       
      +0       0       0       0       0
  2800 ;;      Locals:         0       0       0       0       0       0       0       0       0       0       0       0       
      +0       0       0       0       0
  2801 ;;      Temps:          0       0       0       0       0       0       0       0       0       0       0       0       
      +0       0       0       0       0
  2802 ;;      Totals:         0       0       0       0       0       0       0       0       0       0       0       0       
      +0       0       0       0       0
  2803 ;;Total ram usage:        0 bytes
  2804 ;; Hardware stack levels used: 1
  2805 ;; Hardware stack levels required when called: 2
  2806 ;; This function calls:
  2807 ;;		_led_turn_on
  2808 ;; This function is called by:
  2809 ;;		_RB4_ISR
  2810 ;;		_RB5_ISR
  2811 ;;		_RB6_ISR
  2812 ;;		_RB7_ISR
  2813 ;; This function uses a non-reentrant model
  2814 ;;
  2815                           
  2816                           	psect	text21
  2817   001938                     __ptext21:
  2818                           	callstack 0
  2819   001938                     _RB4_INT_APP_ISR_HIGH:
  2820                           	callstack 22
  2821   001938                     
  2822                           ;app.c: 19:     led_turn_on(&led1);
  2823   001938  0E22               	movlw	low _led1
  2824   00193A  6E45               	movwf	led_turn_on@led^0,c
  2825   00193C  ECA0  F00B         	call	_led_turn_on	;wreg free
  2826   001940  0012               	return		;funcret
  2827   001942                     __end_of_RB4_INT_APP_ISR_HIGH:
  2828                           	callstack 0
  2829                           
  2830 ;; *************** function _RB7_INT_APP_ISR_LOW *****************
  2831 ;; Defined at:
  2832 ;;		line 48 in file "app.c"
  2833 ;; Parameters:    Size  Location     Type
  2834 ;;		None
  2835 ;; Auto vars:     Size  Location     Type
  2836 ;;		None
  2837 ;; Return value:  Size  Location     Type
  2838 ;;                  1    wreg      void 
  2839 ;; Registers used:
  2840 ;;		wreg, fsr2l, fsr2h, status,2, status,0, prodl, prodh, cstack
  2841 ;; Tracked objects:
  2842 ;;		On entry : 0/0
  2843 ;;		On exit  : 0/0
  2844 ;;		Unchanged: 0/0
  2845 ;; Data sizes:     COMRAM   BANK0   BANK1   BANK2   BANK3   BANK4   BANK5   BANK6   BANK7   BANK8   BANK9  BANK10  BANK1
      +1  BANK12  BANK13  BANK14  BANK15
  2846 ;;      Params:         0       0       0       0       0       0       0       0       0       0       0       0       
      +0       0       0       0       0
  2847 ;;      Locals:         0       0       0       0       0       0       0       0       0       0       0       0       
      +0       0       0       0       0
  2848 ;;      Temps:          0       0       0       0       0       0       0       0       0       0       0       0       
      +0       0       0       0       0
  2849 ;;      Totals:         0       0       0       0       0       0       0       0       0       0       0       0       
      +0       0       0       0       0
  2850 ;;Total ram usage:        0 bytes
  2851 ;; Hardware stack levels used: 1
  2852 ;; Hardware stack levels required when called: 2
  2853 ;; This function calls:
  2854 ;;		_led_turn_off
  2855 ;; This function is called by:
  2856 ;;		_RB4_ISR
  2857 ;;		_RB5_ISR
  2858 ;;		_RB6_ISR
  2859 ;;		_RB7_ISR
  2860 ;; This function uses a non-reentrant model
  2861 ;;
  2862                           
  2863                           	psect	text22
  2864   001942                     __ptext22:
  2865                           	callstack 0
  2866   001942                     _RB7_INT_APP_ISR_LOW:
  2867                           	callstack 22
  2868   001942                     
  2869                           ;app.c: 50:     led_turn_off(&led3);
  2870   001942  0E20               	movlw	low _led3
  2871   001944  6E45               	movwf	led_turn_off@led^0,c
  2872   001946  EC6B  F00B         	call	_led_turn_off	;wreg free
  2873   00194A  0012               	return		;funcret
  2874   00194C                     __end_of_RB7_INT_APP_ISR_LOW:
  2875                           	callstack 0
  2876                           
  2877 ;; *************** function _led_turn_off *****************
  2878 ;; Defined at:
  2879 ;;		line 84 in file "ECU_Layer/led/ecu_led.c"
  2880 ;; Parameters:    Size  Location     Type
  2881 ;;  led             1    8[COMRAM] PTR const struct .
  2882 ;;		 -> led4(1), led3(1), led2(1), led1(1), 
  2883 ;; Auto vars:     Size  Location     Type
  2884 ;;  pin             1   10[COMRAM] struct .
  2885 ;;  ret             1    0        unsigned char 
  2886 ;; Return value:  Size  Location     Type
  2887 ;;                  1    wreg      unsigned char 
  2888 ;; Registers used:
  2889 ;;		wreg, fsr2l, fsr2h, status,2, status,0, prodl, prodh, cstack
  2890 ;; Tracked objects:
  2891 ;;		On entry : 0/0
  2892 ;;		On exit  : 0/0
  2893 ;;		Unchanged: 0/0
  2894 ;; Data sizes:     COMRAM   BANK0   BANK1   BANK2   BANK3   BANK4   BANK5   BANK6   BANK7   BANK8   BANK9  BANK10  BANK1
      +1  BANK12  BANK13  BANK14  BANK15
  2895 ;;      Params:         1       0       0       0       0       0       0       0       0       0       0       0       
      +0       0       0       0       0
  2896 ;;      Locals:         1       0       0       0       0       0       0       0       0       0       0       0       
      +0       0       0       0       0
  2897 ;;      Temps:          1       0       0       0       0       0       0       0       0       0       0       0       
      +0       0       0       0       0
  2898 ;;      Totals:         3       0       0       0       0       0       0       0       0       0       0       0       
      +0       0       0       0       0
  2899 ;;Total ram usage:        3 bytes
  2900 ;; Hardware stack levels used: 1
  2901 ;; Hardware stack levels required when called: 1
  2902 ;; This function calls:
  2903 ;;		_gpio_pin_write_logic
  2904 ;; This function is called by:
  2905 ;;		_RB5_INT_APP_ISR_HIGH
  2906 ;;		_RB5_INT_APP_ISR_LOW
  2907 ;;		_RB7_INT_APP_ISR_HIGH
  2908 ;;		_RB7_INT_APP_ISR_LOW
  2909 ;; This function uses a non-reentrant model
  2910 ;;
  2911                           
  2912                           	psect	text23
  2913   0016D6                     __ptext23:
  2914                           	callstack 0
  2915   0016D6                     _led_turn_off:
  2916                           	callstack 22
  2917   0016D6                     
  2918                           ;ECU_Layer/led/ecu_led.c: 87:     if (((void*)0) == led)
  2919   0016D6  5045               	movf	led_turn_off@led^0,w,c
  2920   0016D8  A4D8               	btfss	status,2,c
  2921   0016DA  EF71  F00B         	goto	i2u145_41
  2922   0016DE  EF73  F00B         	goto	i2u145_40
  2923   0016E2                     i2u145_41:
  2924   0016E2  EF75  F00B         	goto	i2l23
  2925   0016E6                     i2u145_40:
  2926   0016E6                     
  2927                           ;ECU_Layer/led/ecu_led.c: 90:     }
  2928   0016E6  EF9F  F00B         	goto	i2l27
  2929   0016EA                     i2l23:
  2930                           
  2931                           ;ECU_Layer/led/ecu_led.c: 92:     {;ECU_Layer/led/ecu_led.c: 93:         pin_config_t pi
      +                          n = {
  2932   0016EA  C03A  F047         	movff	led_turn_off@F3166,led_turn_off@pin
  2933   0016EE  5045               	movf	led_turn_off@led^0,w,c
  2934   0016F0  6ED9               	movwf	fsr2l,c
  2935   0016F2  6ADA               	clrf	fsr2h,c
  2936   0016F4  50DF               	movf	223,w,c
  2937   0016F6  0B0F               	andlw	15
  2938   0016F8  6E46               	movwf	??_led_turn_off^0,c
  2939   0016FA  5047               	movf	led_turn_off@pin^0,w,c
  2940   0016FC  1846               	xorwf	??_led_turn_off^0,w,c
  2941   0016FE  0BF8               	andlw	-8
  2942   001700  1846               	xorwf	??_led_turn_off^0,w,c
  2943   001702  6E47               	movwf	led_turn_off@pin^0,c
  2944   001704  5045               	movf	led_turn_off@led^0,w,c
  2945   001706  6ED9               	movwf	fsr2l,c
  2946   001708  6ADA               	clrf	fsr2h,c
  2947   00170A  38DF               	swapf	223,w,c
  2948   00170C  0B07               	andlw	7
  2949   00170E  6E46               	movwf	??_led_turn_off^0,c
  2950   001710  4646               	rlncf	??_led_turn_off^0,f,c
  2951   001712  4646               	rlncf	??_led_turn_off^0,f,c
  2952   001714  4646               	rlncf	??_led_turn_off^0,f,c
  2953   001716  5047               	movf	led_turn_off@pin^0,w,c
  2954   001718  1846               	xorwf	??_led_turn_off^0,w,c
  2955   00171A  0BC7               	andlw	-57
  2956   00171C  1846               	xorwf	??_led_turn_off^0,w,c
  2957   00171E  6E47               	movwf	led_turn_off@pin^0,c
  2958   001720  9C47               	bcf	led_turn_off@pin^0,6,c
  2959   001722  5045               	movf	led_turn_off@led^0,w,c
  2960   001724  6ED9               	movwf	fsr2l,c
  2961   001726  6ADA               	clrf	fsr2h,c
  2962   001728  AEDF               	btfss	indf2,7,c
  2963   00172A  D002               	bra	i2u146_45
  2964   00172C  8E47               	bsf	led_turn_off@pin^0,7,c
  2965   00172E  D001               	bra	i2u146_47
  2966   001730                     i2u146_45:
  2967   001730  9E47               	bcf	led_turn_off@pin^0,7,c
  2968   001732                     i2u146_47:
  2969   001732                     
  2970                           ;ECU_Layer/led/ecu_led.c: 99:         gpio_pin_write_logic(&pin, GPIO_LOW);
  2971   001732  0E47               	movlw	low led_turn_off@pin
  2972   001734  6E3D               	movwf	gpio_pin_write_logic@_pin_config_t^0,c
  2973   001736  0E00               	movlw	0
  2974   001738  6E3E               	movwf	gpio_pin_write_logic@logic^0,c
  2975   00173A  EC01  F008         	call	_gpio_pin_write_logic	;wreg free
  2976   00173E                     i2l27:
  2977   00173E  0012               	return		;funcret
  2978   001740                     __end_of_led_turn_off:
  2979                           	callstack 0
  2980                           
  2981 ;; *************** function _led_turn_on *****************
  2982 ;; Defined at:
  2983 ;;		line 60 in file "ECU_Layer/led/ecu_led.c"
  2984 ;; Parameters:    Size  Location     Type
  2985 ;;  led             1    8[COMRAM] PTR const struct .
  2986 ;;		 -> led4(1), led3(1), led2(1), led1(1), 
  2987 ;; Auto vars:     Size  Location     Type
  2988 ;;  pin             1   10[COMRAM] struct .
  2989 ;;  ret             1    0        unsigned char 
  2990 ;; Return value:  Size  Location     Type
  2991 ;;                  1    wreg      unsigned char 
  2992 ;; Registers used:
  2993 ;;		wreg, fsr2l, fsr2h, status,2, status,0, prodl, prodh, cstack
  2994 ;; Tracked objects:
  2995 ;;		On entry : 0/0
  2996 ;;		On exit  : 0/0
  2997 ;;		Unchanged: 0/0
  2998 ;; Data sizes:     COMRAM   BANK0   BANK1   BANK2   BANK3   BANK4   BANK5   BANK6   BANK7   BANK8   BANK9  BANK10  BANK1
      +1  BANK12  BANK13  BANK14  BANK15
  2999 ;;      Params:         1       0       0       0       0       0       0       0       0       0       0       0       
      +0       0       0       0       0
  3000 ;;      Locals:         1       0       0       0       0       0       0       0       0       0       0       0       
      +0       0       0       0       0
  3001 ;;      Temps:          1       0       0       0       0       0       0       0       0       0       0       0       
      +0       0       0       0       0
  3002 ;;      Totals:         3       0       0       0       0       0       0       0       0       0       0       0       
      +0       0       0       0       0
  3003 ;;Total ram usage:        3 bytes
  3004 ;; Hardware stack levels used: 1
  3005 ;; Hardware stack levels required when called: 1
  3006 ;; This function calls:
  3007 ;;		_gpio_pin_write_logic
  3008 ;; This function is called by:
  3009 ;;		_RB4_INT_APP_ISR_HIGH
  3010 ;;		_RB4_INT_APP_ISR_LOW
  3011 ;;		_RB6_INT_APP_ISR_HIGH
  3012 ;;		_RB6_INT_APP_ISR_LOW
  3013 ;; This function uses a non-reentrant model
  3014 ;;
  3015                           
  3016                           	psect	text24
  3017   001740                     __ptext24:
  3018                           	callstack 0
  3019   001740                     _led_turn_on:
  3020                           	callstack 22
  3021   001740                     
  3022                           ;ECU_Layer/led/ecu_led.c: 63:     if (((void*)0) == led)
  3023   001740  5045               	movf	led_turn_on@led^0,w,c
  3024   001742  A4D8               	btfss	status,2,c
  3025   001744  EFA6  F00B         	goto	i2u143_41
  3026   001748  EFA8  F00B         	goto	i2u143_40
  3027   00174C                     i2u143_41:
  3028   00174C  EFAA  F00B         	goto	i2l16
  3029   001750                     i2u143_40:
  3030   001750                     
  3031                           ;ECU_Layer/led/ecu_led.c: 66:     }
  3032   001750  EFD4  F00B         	goto	i2l20
  3033   001754                     i2l16:
  3034                           
  3035                           ;ECU_Layer/led/ecu_led.c: 68:     {;ECU_Layer/led/ecu_led.c: 69:         pin_config_t pi
      +                          n = {
  3036   001754  C03B  F047         	movff	led_turn_on@F3161,led_turn_on@pin
  3037   001758  5045               	movf	led_turn_on@led^0,w,c
  3038   00175A  6ED9               	movwf	fsr2l,c
  3039   00175C  6ADA               	clrf	fsr2h,c
  3040   00175E  50DF               	movf	223,w,c
  3041   001760  0B0F               	andlw	15
  3042   001762  6E46               	movwf	??_led_turn_on^0,c
  3043   001764  5047               	movf	led_turn_on@pin^0,w,c
  3044   001766  1846               	xorwf	??_led_turn_on^0,w,c
  3045   001768  0BF8               	andlw	-8
  3046   00176A  1846               	xorwf	??_led_turn_on^0,w,c
  3047   00176C  6E47               	movwf	led_turn_on@pin^0,c
  3048   00176E  5045               	movf	led_turn_on@led^0,w,c
  3049   001770  6ED9               	movwf	fsr2l,c
  3050   001772  6ADA               	clrf	fsr2h,c
  3051   001774  38DF               	swapf	223,w,c
  3052   001776  0B07               	andlw	7
  3053   001778  6E46               	movwf	??_led_turn_on^0,c
  3054   00177A  4646               	rlncf	??_led_turn_on^0,f,c
  3055   00177C  4646               	rlncf	??_led_turn_on^0,f,c
  3056   00177E  4646               	rlncf	??_led_turn_on^0,f,c
  3057   001780  5047               	movf	led_turn_on@pin^0,w,c
  3058   001782  1846               	xorwf	??_led_turn_on^0,w,c
  3059   001784  0BC7               	andlw	-57
  3060   001786  1846               	xorwf	??_led_turn_on^0,w,c
  3061   001788  6E47               	movwf	led_turn_on@pin^0,c
  3062   00178A  9C47               	bcf	led_turn_on@pin^0,6,c
  3063   00178C  5045               	movf	led_turn_on@led^0,w,c
  3064   00178E  6ED9               	movwf	fsr2l,c
  3065   001790  6ADA               	clrf	fsr2h,c
  3066   001792  AEDF               	btfss	indf2,7,c
  3067   001794  D002               	bra	i2u144_45
  3068   001796  8E47               	bsf	led_turn_on@pin^0,7,c
  3069   001798  D001               	bra	i2u144_47
  3070   00179A                     i2u144_45:
  3071   00179A  9E47               	bcf	led_turn_on@pin^0,7,c
  3072   00179C                     i2u144_47:
  3073   00179C                     
  3074                           ;ECU_Layer/led/ecu_led.c: 75:         gpio_pin_write_logic(&pin, GPIO_HIGH);
  3075   00179C  0E47               	movlw	low led_turn_on@pin
  3076   00179E  6E3D               	movwf	gpio_pin_write_logic@_pin_config_t^0,c
  3077   0017A0  0E01               	movlw	1
  3078   0017A2  6E3E               	movwf	gpio_pin_write_logic@logic^0,c
  3079   0017A4  EC01  F008         	call	_gpio_pin_write_logic	;wreg free
  3080   0017A8                     i2l20:
  3081   0017A8  0012               	return		;funcret
  3082   0017AA                     __end_of_led_turn_on:
  3083                           	callstack 0
  3084                           
  3085 ;; *************** function _gpio_pin_write_logic *****************
  3086 ;; Defined at:
  3087 ;;		line 95 in file "MCAL_Layer/GPIO/hal_gpio.c"
  3088 ;; Parameters:    Size  Location     Type
  3089 ;;  _pin_config_    1    0[COMRAM] PTR const struct .
  3090 ;;		 -> led_turn_off@pin(1), led_turn_on@pin(1), 
  3091 ;;  logic           1    1[COMRAM] enum E3074
  3092 ;; Auto vars:     Size  Location     Type
  3093 ;;  ret             1    7[COMRAM] unsigned char 
  3094 ;; Return value:  Size  Location     Type
  3095 ;;                  1    wreg      unsigned char 
  3096 ;; Registers used:
  3097 ;;		wreg, fsr2l, fsr2h, status,2, status,0, prodl, prodh
  3098 ;; Tracked objects:
  3099 ;;		On entry : 0/0
  3100 ;;		On exit  : 0/0
  3101 ;;		Unchanged: 0/0
  3102 ;; Data sizes:     COMRAM   BANK0   BANK1   BANK2   BANK3   BANK4   BANK5   BANK6   BANK7   BANK8   BANK9  BANK10  BANK1
      +1  BANK12  BANK13  BANK14  BANK15
  3103 ;;      Params:         2       0       0       0       0       0       0       0       0       0       0       0       
      +0       0       0       0       0
  3104 ;;      Locals:         1       0       0       0       0       0       0       0       0       0       0       0       
      +0       0       0       0       0
  3105 ;;      Temps:          5       0       0       0       0       0       0       0       0       0       0       0       
      +0       0       0       0       0
  3106 ;;      Totals:         8       0       0       0       0       0       0       0       0       0       0       0       
      +0       0       0       0       0
  3107 ;;Total ram usage:        8 bytes
  3108 ;; Hardware stack levels used: 1
  3109 ;; This function calls:
  3110 ;;		Nothing
  3111 ;; This function is called by:
  3112 ;;		_led_turn_on
  3113 ;;		_led_turn_off
  3114 ;;		_seven_segment_write_number
  3115 ;; This function uses a non-reentrant model
  3116 ;;
  3117                           
  3118                           	psect	text25
  3119   001002                     __ptext25:
  3120                           	callstack 0
  3121   001002                     _gpio_pin_write_logic:
  3122                           	callstack 22
  3123   001002                     
  3124                           ;MCAL_Layer/GPIO/hal_gpio.c: 95: Std_ReturnType gpio_pin_write_logic(const pin_config_t 
      +                          *_pin_config_t, logic_t logic);MCAL_Layer/GPIO/hal_gpio.c: 96: {;MCAL_Layer/GPIO/hal_gpi
      +                          o.c: 97:     Std_ReturnType ret = (Std_ReturnType)0x00u;
  3125   001002  0E00               	movlw	0
  3126   001004  6E44               	movwf	gpio_pin_write_logic@ret^0,c
  3127                           
  3128                           ;MCAL_Layer/GPIO/hal_gpio.c: 98:     if (((void*)0) == _pin_config_t || _pin_config_t->p
      +                          in > 8 - 1)
  3129   001006  503D               	movf	gpio_pin_write_logic@_pin_config_t^0,w,c
  3130   001008  B4D8               	btfsc	status,2,c
  3131   00100A  EF09  F008         	goto	i2u131_41
  3132   00100E  EF0B  F008         	goto	i2u131_40
  3133   001012                     i2u131_41:
  3134   001012  EF1B  F008         	goto	i2l1935
  3135   001016                     i2u131_40:
  3136   001016  503D               	movf	gpio_pin_write_logic@_pin_config_t^0,w,c
  3137   001018  6ED9               	movwf	fsr2l,c
  3138   00101A  6ADA               	clrf	fsr2h,c
  3139   00101C  30DF               	rrcf	223,w,c
  3140   00101E  32E8               	rrcf	wreg,f,c
  3141   001020  32E8               	rrcf	wreg,f,c
  3142   001022  0B07               	andlw	7
  3143   001024  6E3F               	movwf	??_gpio_pin_write_logic^0,c
  3144   001026  0E07               	movlw	7
  3145   001028  643F               	cpfsgt	??_gpio_pin_write_logic^0,c
  3146   00102A  EF19  F008         	goto	i2u132_41
  3147   00102E  EF1B  F008         	goto	i2u132_40
  3148   001032                     i2u132_41:
  3149   001032  EF9D  F008         	goto	i2l1947
  3150   001036                     i2u132_40:
  3151   001036                     i2l1935:
  3152                           
  3153                           ;MCAL_Layer/GPIO/hal_gpio.c: 99:     {;MCAL_Layer/GPIO/hal_gpio.c: 100:         ret = (S
      +                          td_ReturnType)0x01u;
  3154   001036  0E01               	movlw	1
  3155   001038  6E44               	movwf	gpio_pin_write_logic@ret^0,c
  3156                           
  3157                           ;MCAL_Layer/GPIO/hal_gpio.c: 101:     }
  3158   00103A  EFB2  F008         	goto	i2l1949
  3159   00103E                     i2l1937:
  3160                           
  3161                           ;MCAL_Layer/GPIO/hal_gpio.c: 107:                 (*lat_registers[_pin_config_t->port] |
      +                          = ((uint8)1 << _pin_config_t->pin));
  3162   00103E  503D               	movf	gpio_pin_write_logic@_pin_config_t^0,w,c
  3163   001040  6ED9               	movwf	fsr2l,c
  3164   001042  6ADA               	clrf	fsr2h,c
  3165   001044  30DF               	rrcf	223,w,c
  3166   001046  32E8               	rrcf	wreg,f,c
  3167   001048  32E8               	rrcf	wreg,f,c
  3168   00104A  0B07               	andlw	7
  3169   00104C  6E3F               	movwf	??_gpio_pin_write_logic^0,c
  3170   00104E  0E01               	movlw	1
  3171   001050  6E40               	movwf	(??_gpio_pin_write_logic+1)^0,c
  3172   001052  2A3F               	incf	??_gpio_pin_write_logic^0,f,c
  3173   001054  EF2E  F008         	goto	i2u133_44
  3174   001058                     i2u133_45:
  3175   001058  90D8               	bcf	status,0,c
  3176   00105A  3640               	rlcf	(??_gpio_pin_write_logic+1)^0,f,c
  3177   00105C                     i2u133_44:
  3178   00105C  2E3F               	decfsz	??_gpio_pin_write_logic^0,f,c
  3179   00105E  EF2C  F008         	goto	i2u133_45
  3180   001062  503D               	movf	gpio_pin_write_logic@_pin_config_t^0,w,c
  3181   001064  6ED9               	movwf	fsr2l,c
  3182   001066  6ADA               	clrf	fsr2h,c
  3183   001068  50DF               	movf	223,w,c
  3184   00106A  0B07               	andlw	7
  3185   00106C  0D02               	mullw	2
  3186   00106E  50F3               	movf	243,w,c
  3187   001070  0F0B               	addlw	low _lat_registers
  3188   001072  6ED9               	movwf	fsr2l,c
  3189   001074  6ADA               	clrf	fsr2h,c
  3190   001076  CFDE F041          	movff	postinc2,??_gpio_pin_write_logic+2
  3191   00107A  CFDD F042          	movff	postdec2,??_gpio_pin_write_logic+3
  3192   00107E  C041  FFD9         	movff	??_gpio_pin_write_logic+2,fsr2l
  3193   001082  C042  FFDA         	movff	??_gpio_pin_write_logic+3,fsr2h
  3194   001086  5040               	movf	(??_gpio_pin_write_logic+1)^0,w,c
  3195   001088  12DF               	iorwf	indf2,f,c
  3196                           
  3197                           ;MCAL_Layer/GPIO/hal_gpio.c: 108:                 break;
  3198   00108A  EFB2  F008         	goto	i2l1949
  3199   00108E                     i2l1939:
  3200                           
  3201                           ;MCAL_Layer/GPIO/hal_gpio.c: 110:                 (*lat_registers[_pin_config_t->port] &
      +                          = ~((uint8)1 << _pin_config_t->pin));
  3202   00108E  503D               	movf	gpio_pin_write_logic@_pin_config_t^0,w,c
  3203   001090  6ED9               	movwf	fsr2l,c
  3204   001092  6ADA               	clrf	fsr2h,c
  3205   001094  30DF               	rrcf	223,w,c
  3206   001096  32E8               	rrcf	wreg,f,c
  3207   001098  32E8               	rrcf	wreg,f,c
  3208   00109A  0B07               	andlw	7
  3209   00109C  6E3F               	movwf	??_gpio_pin_write_logic^0,c
  3210   00109E  0E01               	movlw	1
  3211   0010A0  6E40               	movwf	(??_gpio_pin_write_logic+1)^0,c
  3212   0010A2  2A3F               	incf	??_gpio_pin_write_logic^0,f,c
  3213   0010A4  EF56  F008         	goto	i2u134_44
  3214   0010A8                     i2u134_45:
  3215   0010A8  90D8               	bcf	status,0,c
  3216   0010AA  3640               	rlcf	(??_gpio_pin_write_logic+1)^0,f,c
  3217   0010AC                     i2u134_44:
  3218   0010AC  2E3F               	decfsz	??_gpio_pin_write_logic^0,f,c
  3219   0010AE  EF54  F008         	goto	i2u134_45
  3220   0010B2  5040               	movf	(??_gpio_pin_write_logic+1)^0,w,c
  3221   0010B4  0AFF               	xorlw	255
  3222   0010B6  6E41               	movwf	(??_gpio_pin_write_logic+2)^0,c
  3223   0010B8  503D               	movf	gpio_pin_write_logic@_pin_config_t^0,w,c
  3224   0010BA  6ED9               	movwf	fsr2l,c
  3225   0010BC  6ADA               	clrf	fsr2h,c
  3226   0010BE  50DF               	movf	223,w,c
  3227   0010C0  0B07               	andlw	7
  3228   0010C2  0D02               	mullw	2
  3229   0010C4  50F3               	movf	243,w,c
  3230   0010C6  0F0B               	addlw	low _lat_registers
  3231   0010C8  6ED9               	movwf	fsr2l,c
  3232   0010CA  6ADA               	clrf	fsr2h,c
  3233   0010CC  CFDE F042          	movff	postinc2,??_gpio_pin_write_logic+3
  3234   0010D0  CFDD F043          	movff	postdec2,??_gpio_pin_write_logic+4
  3235   0010D4  C042  FFD9         	movff	??_gpio_pin_write_logic+3,fsr2l
  3236   0010D8  C043  FFDA         	movff	??_gpio_pin_write_logic+4,fsr2h
  3237   0010DC  5041               	movf	(??_gpio_pin_write_logic+2)^0,w,c
  3238   0010DE  16DF               	andwf	indf2,f,c
  3239                           
  3240                           ;MCAL_Layer/GPIO/hal_gpio.c: 111:                 break;
  3241   0010E0  EFB2  F008         	goto	i2l1949
  3242   0010E4                     i2l1941:
  3243                           
  3244                           ;MCAL_Layer/GPIO/hal_gpio.c: 113:                 (*lat_registers[_pin_config_t->port] &
      +                          = ~((uint8)1 << _pin_config_t->pin));
  3245   0010E4  503D               	movf	gpio_pin_write_logic@_pin_config_t^0,w,c
  3246   0010E6  6ED9               	movwf	fsr2l,c
  3247   0010E8  6ADA               	clrf	fsr2h,c
  3248   0010EA  30DF               	rrcf	223,w,c
  3249   0010EC  32E8               	rrcf	wreg,f,c
  3250   0010EE  32E8               	rrcf	wreg,f,c
  3251   0010F0  0B07               	andlw	7
  3252   0010F2  6E3F               	movwf	??_gpio_pin_write_logic^0,c
  3253   0010F4  0E01               	movlw	1
  3254   0010F6  6E40               	movwf	(??_gpio_pin_write_logic+1)^0,c
  3255   0010F8  2A3F               	incf	??_gpio_pin_write_logic^0,f,c
  3256   0010FA  EF81  F008         	goto	i2u135_44
  3257   0010FE                     i2u135_45:
  3258   0010FE  90D8               	bcf	status,0,c
  3259   001100  3640               	rlcf	(??_gpio_pin_write_logic+1)^0,f,c
  3260   001102                     i2u135_44:
  3261   001102  2E3F               	decfsz	??_gpio_pin_write_logic^0,f,c
  3262   001104  EF7F  F008         	goto	i2u135_45
  3263   001108  5040               	movf	(??_gpio_pin_write_logic+1)^0,w,c
  3264   00110A  0AFF               	xorlw	255
  3265   00110C  6E41               	movwf	(??_gpio_pin_write_logic+2)^0,c
  3266   00110E  503D               	movf	gpio_pin_write_logic@_pin_config_t^0,w,c
  3267   001110  6ED9               	movwf	fsr2l,c
  3268   001112  6ADA               	clrf	fsr2h,c
  3269   001114  50DF               	movf	223,w,c
  3270   001116  0B07               	andlw	7
  3271   001118  0D02               	mullw	2
  3272   00111A  50F3               	movf	243,w,c
  3273   00111C  0F0B               	addlw	low _lat_registers
  3274   00111E  6ED9               	movwf	fsr2l,c
  3275   001120  6ADA               	clrf	fsr2h,c
  3276   001122  CFDE F042          	movff	postinc2,??_gpio_pin_write_logic+3
  3277   001126  CFDD F043          	movff	postdec2,??_gpio_pin_write_logic+4
  3278   00112A  C042  FFD9         	movff	??_gpio_pin_write_logic+3,fsr2l
  3279   00112E  C043  FFDA         	movff	??_gpio_pin_write_logic+4,fsr2h
  3280   001132  5041               	movf	(??_gpio_pin_write_logic+2)^0,w,c
  3281   001134  16DF               	andwf	indf2,f,c
  3282   001136  EF1B  F008         	goto	i2l1935
  3283   00113A                     i2l1947:
  3284   00113A  503E               	movf	gpio_pin_write_logic@logic^0,w,c
  3285   00113C  6E3F               	movwf	??_gpio_pin_write_logic^0,c
  3286   00113E  6A40               	clrf	(??_gpio_pin_write_logic+1)^0,c
  3287                           
  3288                           ; Switch on 2 bytes has been partitioned into a top level switch of size 1, and 1 sub-sw
      +                          itches
  3289                           ; Switch size 1, requested type "simple"
  3290                           ; Number of cases is 1, Range of values is 0 to 0
  3291                           ; switch strategies available:
  3292                           ; Name         Instructions Cycles
  3293                           ; simple_byte            4     3 (average)
  3294                           ;	Chosen strategy is simple_byte
  3295   001140  5040               	movf	(??_gpio_pin_write_logic+1)^0,w,c
  3296   001142  0A00               	xorlw	0	; case 0
  3297   001144  B4D8               	btfsc	status,2,c
  3298   001146  EFA7  F008         	goto	i2l2617
  3299   00114A  EF72  F008         	goto	i2l1941
  3300   00114E                     i2l2617:
  3301                           
  3302                           ; Switch size 1, requested type "simple"
  3303                           ; Number of cases is 2, Range of values is 0 to 1
  3304                           ; switch strategies available:
  3305                           ; Name         Instructions Cycles
  3306                           ; simple_byte            7     4 (average)
  3307                           ;	Chosen strategy is simple_byte
  3308   00114E  503F               	movf	??_gpio_pin_write_logic^0,w,c
  3309   001150  0A00               	xorlw	0	; case 0
  3310   001152  B4D8               	btfsc	status,2,c
  3311   001154  EF47  F008         	goto	i2l1939
  3312   001158  0A01               	xorlw	1	; case 1
  3313   00115A  B4D8               	btfsc	status,2,c
  3314   00115C  EF1F  F008         	goto	i2l1937
  3315   001160  EF72  F008         	goto	i2l1941
  3316   001164                     i2l1949:
  3317                           
  3318                           ;MCAL_Layer/GPIO/hal_gpio.c: 118:     return (ret);
  3319   001164  5044               	movf	gpio_pin_write_logic@ret^0,w,c
  3320   001166  0012               	return		;funcret
  3321   001168                     __end_of_gpio_pin_write_logic:
  3322                           	callstack 0
  3323                           
  3324 ;; *************** function _INT2_ISR *****************
  3325 ;; Defined at:
  3326 ;;		line 500 in file "MCAL_Layer/Interrupt/mcal_external_interrupt.c"
  3327 ;; Parameters:    Size  Location     Type
  3328 ;;		None
  3329 ;; Auto vars:     Size  Location     Type
  3330 ;;		None
  3331 ;; Return value:  Size  Location     Type
  3332 ;;                  1    wreg      void 
  3333 ;; Registers used:
  3334 ;;		None
  3335 ;; Tracked objects:
  3336 ;;		On entry : 0/0
  3337 ;;		On exit  : 0/0
  3338 ;;		Unchanged: 0/0
  3339 ;; Data sizes:     COMRAM   BANK0   BANK1   BANK2   BANK3   BANK4   BANK5   BANK6   BANK7   BANK8   BANK9  BANK10  BANK1
      +1  BANK12  BANK13  BANK14  BANK15
  3340 ;;      Params:         0       0       0       0       0       0       0       0       0       0       0       0       
      +0       0       0       0       0
  3341 ;;      Locals:         0       0       0       0       0       0       0       0       0       0       0       0       
      +0       0       0       0       0
  3342 ;;      Temps:          0       0       0       0       0       0       0       0       0       0       0       0       
      +0       0       0       0       0
  3343 ;;      Totals:         0       0       0       0       0       0       0       0       0       0       0       0       
      +0       0       0       0       0
  3344 ;;Total ram usage:        0 bytes
  3345 ;; Hardware stack levels used: 1
  3346 ;; This function calls:
  3347 ;;		Nothing
  3348 ;; This function is called by:
  3349 ;;		_Interrupt_Manager
  3350 ;; This function uses a non-reentrant model
  3351 ;;
  3352                           
  3353                           	psect	text26
  3354   001950                     __ptext26:
  3355                           	callstack 0
  3356   001950                     _INT2_ISR:
  3357                           	callstack 25
  3358   001950                     
  3359                           ;MCAL_Layer/Interrupt/mcal_external_interrupt.c: 503:     (INTCON3bits.INT2IF = 0);
  3360   001950  92F0               	bcf	240,1,c	;volatile
  3361   001952  0012               	return		;funcret
  3362   001954                     __end_of_INT2_ISR:
  3363                           	callstack 0
  3364                           
  3365 ;; *************** function _INT1_ISR *****************
  3366 ;; Defined at:
  3367 ;;		line 484 in file "MCAL_Layer/Interrupt/mcal_external_interrupt.c"
  3368 ;; Parameters:    Size  Location     Type
  3369 ;;		None
  3370 ;; Auto vars:     Size  Location     Type
  3371 ;;		None
  3372 ;; Return value:  Size  Location     Type
  3373 ;;                  1    wreg      void 
  3374 ;; Registers used:
  3375 ;;		None
  3376 ;; Tracked objects:
  3377 ;;		On entry : 0/0
  3378 ;;		On exit  : 0/0
  3379 ;;		Unchanged: 0/0
  3380 ;; Data sizes:     COMRAM   BANK0   BANK1   BANK2   BANK3   BANK4   BANK5   BANK6   BANK7   BANK8   BANK9  BANK10  BANK1
      +1  BANK12  BANK13  BANK14  BANK15
  3381 ;;      Params:         0       0       0       0       0       0       0       0       0       0       0       0       
      +0       0       0       0       0
  3382 ;;      Locals:         0       0       0       0       0       0       0       0       0       0       0       0       
      +0       0       0       0       0
  3383 ;;      Temps:          0       0       0       0       0       0       0       0       0       0       0       0       
      +0       0       0       0       0
  3384 ;;      Totals:         0       0       0       0       0       0       0       0       0       0       0       0       
      +0       0       0       0       0
  3385 ;;Total ram usage:        0 bytes
  3386 ;; Hardware stack levels used: 1
  3387 ;; This function calls:
  3388 ;;		Nothing
  3389 ;; This function is called by:
  3390 ;;		_Interrupt_Manager
  3391 ;; This function uses a non-reentrant model
  3392 ;;
  3393                           
  3394                           	psect	text27
  3395   001954                     __ptext27:
  3396                           	callstack 0
  3397   001954                     _INT1_ISR:
  3398                           	callstack 25
  3399   001954                     
  3400                           ;MCAL_Layer/Interrupt/mcal_external_interrupt.c: 487:     (INTCON3bits.INT1IF = 0);
  3401   001954  90F0               	bcf	240,0,c	;volatile
  3402   001956  0012               	return		;funcret
  3403   001958                     __end_of_INT1_ISR:
  3404                           	callstack 0
  3405                           
  3406 ;; *************** function _INT0_ISR *****************
  3407 ;; Defined at:
  3408 ;;		line 468 in file "MCAL_Layer/Interrupt/mcal_external_interrupt.c"
  3409 ;; Parameters:    Size  Location     Type
  3410 ;;		None
  3411 ;; Auto vars:     Size  Location     Type
  3412 ;;		None
  3413 ;; Return value:  Size  Location     Type
  3414 ;;                  1    wreg      void 
  3415 ;; Registers used:
  3416 ;;		None
  3417 ;; Tracked objects:
  3418 ;;		On entry : 0/0
  3419 ;;		On exit  : 0/0
  3420 ;;		Unchanged: 0/0
  3421 ;; Data sizes:     COMRAM   BANK0   BANK1   BANK2   BANK3   BANK4   BANK5   BANK6   BANK7   BANK8   BANK9  BANK10  BANK1
      +1  BANK12  BANK13  BANK14  BANK15
  3422 ;;      Params:         0       0       0       0       0       0       0       0       0       0       0       0       
      +0       0       0       0       0
  3423 ;;      Locals:         0       0       0       0       0       0       0       0       0       0       0       0       
      +0       0       0       0       0
  3424 ;;      Temps:          0       0       0       0       0       0       0       0       0       0       0       0       
      +0       0       0       0       0
  3425 ;;      Totals:         0       0       0       0       0       0       0       0       0       0       0       0       
      +0       0       0       0       0
  3426 ;;Total ram usage:        0 bytes
  3427 ;; Hardware stack levels used: 1
  3428 ;; This function calls:
  3429 ;;		Nothing
  3430 ;; This function is called by:
  3431 ;;		_Interrupt_Manager
  3432 ;; This function uses a non-reentrant model
  3433 ;;
  3434                           
  3435                           	psect	text28
  3436   001958                     __ptext28:
  3437                           	callstack 0
  3438   001958                     _INT0_ISR:
  3439                           	callstack 25
  3440   001958                     
  3441                           ;MCAL_Layer/Interrupt/mcal_external_interrupt.c: 471:     (INTCONbits.INT0IF = 0);
  3442   001958  92F2               	bcf	242,1,c	;volatile
  3443   00195A  0012               	return		;funcret
  3444   00195C                     __end_of_INT0_ISR:
  3445                           	callstack 0
  3446                           
  3447                           	psect	smallconst
  3448   001000                     __psmallconst:
  3449                           	callstack 0
  3450   001000  00                 	db	0
  3451   001001  00                 	db	0	; dummy byte at the end
  3452   000000                     
  3453                           	psect	rparam
  3454   000000                     
  3455                           	psect	temp
  3456   00004F                     btemp:
  3457                           	callstack 0
  3458   00004F                     	ds	1
  3459   000000                     int$flags	set	btemp
  3460   000000                     wtemp8	set	btemp+1
  3461   000000                     ttemp5	set	btemp+1
  3462   000000                     ttemp6	set	btemp+4
  3463   000000                     ttemp7	set	btemp+8
  3464                           
  3465                           	psect	config
  3466                           
  3467                           ; Padding undefined space
  3468   300000                     	org	3145728
  3469   300000  FF                 	db	255
  3470                           
  3471                           ;Config register CONFIG1H @ 0x300001
  3472                           ;	Oscillator Selection bits
  3473                           ;	FOSC = RCIO6, External RC oscillator, port function on RA6
  3474                           ;	Fail-Safe Clock Monitor Enable bit
  3475                           ;	FCMEN = OFF, Fail-Safe Clock Monitor disabled
  3476                           ;	Internal/External Oscillator Switchover bit
  3477                           ;	IESO = OFF, Oscillator Switchover mode disabled
  3478   300001                     	org	3145729
  3479   300001  07                 	db	7
  3480                           
  3481                           ;Config register CONFIG2L @ 0x300002
  3482                           ;	Power-up Timer Enable bit
  3483                           ;	PWRTEN = OFF, PWRT disabled
  3484                           ;	Brown-out Reset Enable bits
  3485                           ;	BOREN = SBORDIS, Brown-out Reset enabled in hardware only (SBOREN is disabled)
  3486                           ;	Brown Out Reset Voltage bits
  3487                           ;	BORV = 18, VBOR set to 1.8 V nominal
  3488   300002                     	org	3145730
  3489   300002  1F                 	db	31
  3490                           
  3491                           ;Config register CONFIG2H @ 0x300003
  3492                           ;	Watchdog Timer Enable bit
  3493                           ;	WDTEN = ON, WDT is always enabled. SWDTEN bit has no effect
  3494                           ;	Watchdog Timer Postscale Select bits
  3495                           ;	WDTPS = 32768, 1:32768
  3496   300003                     	org	3145731
  3497   300003  1F                 	db	31
  3498                           
  3499                           ; Padding undefined space
  3500   300004                     	org	3145732
  3501   300004  FF                 	db	255
  3502                           
  3503                           ;Config register CONFIG3H @ 0x300005
  3504                           ;	CCP2 MUX bit
  3505                           ;	CCP2MX = PORTC, CCP2 input/output is multiplexed with RC1
  3506                           ;	PORTB A/D Enable bit
  3507                           ;	PBADEN = OFF, PORTB<4:0> pins are configured as digital I/O on Reset
  3508                           ;	Low-Power Timer1 Oscillator Enable bit
  3509                           ;	LPT1OSC = OFF, Timer1 configured for higher power operation
  3510                           ;	HFINTOSC Fast Start-up
  3511                           ;	HFOFST = ON, HFINTOSC starts clocking the CPU without waiting for the oscillator to st
      +                          ablize.
  3512                           ;	MCLR Pin Enable bit
  3513                           ;	MCLRE = ON, MCLR pin enabled; RE3 input pin disabled
  3514   300005                     	org	3145733
  3515   300005  89                 	db	137
  3516                           
  3517                           ;Config register CONFIG4L @ 0x300006
  3518                           ;	Stack Full/Underflow Reset Enable bit
  3519                           ;	STVREN = ON, Stack full/underflow will cause Reset
  3520                           ;	Single-Supply ICSP Enable bit
  3521                           ;	LVP = ON, Single-Supply ICSP enabled
  3522                           ;	Extended Instruction Set Enable bit
  3523                           ;	XINST = OFF, Instruction set extension and Indexed Addressing mode disabled (Legacy mo
      +                          de)
  3524                           ;	Background Debugger Enable bit
  3525                           ;	DEBUG = 0x1, unprogrammed default
  3526   300006                     	org	3145734
  3527   300006  85                 	db	133
  3528                           
  3529                           ; Padding undefined space
  3530   300007                     	org	3145735
  3531   300007  FF                 	db	255
  3532                           
  3533                           ;Config register CONFIG5L @ 0x300008
  3534                           ;	Code Protection Block 0
  3535                           ;	CP0 = OFF, Block 0 (000800-003FFFh) not code-protected
  3536                           ;	Code Protection Block 1
  3537                           ;	CP1 = OFF, Block 1 (004000-007FFFh) not code-protected
  3538                           ;	Code Protection Block 2
  3539                           ;	CP2 = OFF, Block 2 (008000-00BFFFh) not code-protected
  3540                           ;	Code Protection Block 3
  3541                           ;	CP3 = OFF, Block 3 (00C000-00FFFFh) not code-protected
  3542   300008                     	org	3145736
  3543   300008  0F                 	db	15
  3544                           
  3545                           ;Config register CONFIG5H @ 0x300009
  3546                           ;	Boot Block Code Protection bit
  3547                           ;	CPB = OFF, Boot block (000000-0007FFh) not code-protected
  3548                           ;	Data EEPROM Code Protection bit
  3549                           ;	CPD = OFF, Data EEPROM not code-protected
  3550   300009                     	org	3145737
  3551   300009  C0                 	db	192
  3552                           
  3553                           ;Config register CONFIG6L @ 0x30000A
  3554                           ;	Write Protection Block 0
  3555                           ;	WRT0 = OFF, Block 0 (000800-003FFFh) not write-protected
  3556                           ;	Write Protection Block 1
  3557                           ;	WRT1 = OFF, Block 1 (004000-007FFFh) not write-protected
  3558                           ;	Write Protection Block 2
  3559                           ;	WRT2 = OFF, Block 2 (008000-00BFFFh) not write-protected
  3560                           ;	Write Protection Block 3
  3561                           ;	WRT3 = OFF, Block 3 (00C000h-00FFFFh) not write-protected
  3562   30000A                     	org	3145738
  3563   30000A  0F                 	db	15
  3564                           
  3565                           ;Config register CONFIG6H @ 0x30000B
  3566                           ;	Configuration Register Write Protection bit
  3567                           ;	WRTC = OFF, Configuration registers (300000-3000FFh) not write-protected
  3568                           ;	Boot Block Write Protection bit
  3569                           ;	WRTB = OFF, Boot Block (000000-0007FFh) not write-protected
  3570                           ;	Data EEPROM Write Protection bit
  3571                           ;	WRTD = OFF, Data EEPROM not write-protected
  3572   30000B                     	org	3145739
  3573   30000B  E0                 	db	224
  3574                           
  3575                           ;Config register CONFIG7L @ 0x30000C
  3576                           ;	Table Read Protection Block 0
  3577                           ;	EBTR0 = OFF, Block 0 (000800-003FFFh) not protected from table reads executed in other
      +                           blocks
  3578                           ;	Table Read Protection Block 1
  3579                           ;	EBTR1 = OFF, Block 1 (004000-007FFFh) not protected from table reads executed in other
      +                           blocks
  3580                           ;	Table Read Protection Block 2
  3581                           ;	EBTR2 = OFF, Block 2 (008000-00BFFFh) not protected from table reads executed in other
      +                           blocks
  3582                           ;	Table Read Protection Block 3
  3583                           ;	EBTR3 = OFF, Block 3 (00C000-00FFFFh) not protected from table reads executed in other
      +                           blocks
  3584   30000C                     	org	3145740
  3585   30000C  0F                 	db	15
  3586                           
  3587                           ;Config register CONFIG7H @ 0x30000D
  3588                           ;	Boot Block Table Read Protection bit
  3589                           ;	EBTRB = OFF, Boot Block (000000-0007FFh) not protected from table reads executed in ot
      +                          her blocks
  3590   30000D                     	org	3145741
  3591   30000D  40                 	db	64
  3592                           tosu	equ	0xFFF
  3593                           tosh	equ	0xFFE
  3594                           tosl	equ	0xFFD
  3595                           stkptr	equ	0xFFC
  3596                           pclatu	equ	0xFFB
  3597                           pclath	equ	0xFFA
  3598                           pcl	equ	0xFF9
  3599                           tblptru	equ	0xFF8
  3600                           tblptrh	equ	0xFF7
  3601                           tblptrl	equ	0xFF6
  3602                           tablat	equ	0xFF5
  3603                           prodh	equ	0xFF4
  3604                           prodl	equ	0xFF3
  3605                           indf0	equ	0xFEF
  3606                           postinc0	equ	0xFEE
  3607                           postdec0	equ	0xFED
  3608                           preinc0	equ	0xFEC
  3609                           plusw0	equ	0xFEB
  3610                           fsr0h	equ	0xFEA
  3611                           fsr0l	equ	0xFE9
  3612                           wreg	equ	0xFE8
  3613                           indf1	equ	0xFE7
  3614                           postinc1	equ	0xFE6
  3615                           postdec1	equ	0xFE5
  3616                           preinc1	equ	0xFE4
  3617                           plusw1	equ	0xFE3
  3618                           fsr1h	equ	0xFE2
  3619                           fsr1l	equ	0xFE1
  3620                           bsr	equ	0xFE0
  3621                           indf2	equ	0xFDF
  3622                           postinc2	equ	0xFDE
  3623                           postdec2	equ	0xFDD
  3624                           preinc2	equ	0xFDC
  3625                           plusw2	equ	0xFDB
  3626                           fsr2h	equ	0xFDA
  3627                           fsr2l	equ	0xFD9
  3628                           status	equ	0xFD8

Data Sizes:
    Strings     0
    Constant    0
    Data        62
    BSS         26
    Persistent  0
    Stack       0

Auto Spaces:
    Space          Size  Autos    Used
    COMRAM           94     18      78
    BANK0           160     15      43
    BANK1           256      0       0
    BANK2           256      0       0
    BANK3           256      0       0
    BANK4           256      0       0
    BANK5           256      0       0
    BANK6           256      0       0
    BANK7           256      0       0
    BANK8           256      0       0
    BANK9           256      0       0
    BANK10          256      0       0
    BANK11          256      0       0
    BANK12          256      0       0
    BANK13          256      0       0
    BANK14          256      0       0
    BANK15           96      0       0

Pointer List with Targets:

    gpio_pin_direction_initialize@_pin_config_t	PTR const struct . size(1) Largest target is 6
		 -> led_initialize@pin(BANK0[1]), RB4_obj(COMRAM[6]), RB5_obj(BANK0[6]), RB6_obj(BANK0[6]), 
		 -> RB7_obj(BANK0[6]), 

    gpio_pin_initialize@_pin_config_t	PTR const struct . size(1) Largest target is 6
		 -> led_initialize@pin(BANK0[1]), RB4_obj(COMRAM[6]), RB5_obj(BANK0[6]), RB6_obj(BANK0[6]), 
		 -> RB7_obj(BANK0[6]), 

    gpio_pin_write_logic@_pin_config_t	PTR const struct . size(1) Largest target is 1
		 -> led_turn_off@pin(COMRAM[1]), led_turn_on@pin(COMRAM[1]), 

    INT0_INTERRUPT_HANDLER	PTR FTN()void  size(2) Largest target is 1
		 -> NULL(), 

    INT1_INTERRUPT_HANDLER	PTR FTN()void  size(2) Largest target is 1
		 -> NULL(), 

    INT2_INTERRUPT_HANDLER	PTR FTN()void  size(2) Largest target is 1
		 -> NULL(), 

    Interrupt_INTx_Clear_Flag@int_obj$EXT_interrupt_handler	PTR FTN()void  size(2) Largest target is 0

    Interrupt_INTx_Disable@int_obj$EXT_interrupt_handler	PTR FTN()void  size(2) Largest target is 0

    Interrupt_INTx_Edge_Init@int_obj$EXT_interrupt_handler	PTR FTN()void  size(2) Largest target is 0

    Interrupt_INTx_Enable@int_obj$EXT_interrupt_handler	PTR FTN()void  size(2) Largest target is 0

    Interrupt_INTx_Pin_Init@int_obj$EXT_interrupt_handler	PTR FTN()void  size(2) Largest target is 0

    Interrupt_INTx_Set_Interrupt_Handler@int_obj$EXT_interrupt_handler	PTR FTN()void  size(2) Largest target is 0

    Interrupt_RBx_Enable@int_obj	PTR const struct . size(1) Largest target is 6
		 -> RB4_obj(COMRAM[6]), RB5_obj(BANK0[6]), RB6_obj(BANK0[6]), RB7_obj(BANK0[6]), 

    Interrupt_RBx_Init@int_obj	PTR const struct . size(1) Largest target is 6
		 -> RB4_obj(COMRAM[6]), RB5_obj(BANK0[6]), RB6_obj(BANK0[6]), RB7_obj(BANK0[6]), 

    Interrupt_RBx_Pin_Init@int_obj	PTR const struct . size(1) Largest target is 6
		 -> RB4_obj(COMRAM[6]), RB5_obj(BANK0[6]), RB6_obj(BANK0[6]), RB7_obj(BANK0[6]), 

    Interrupt_RBx_Pin_Init@int_obj$EXT_interrupt_handler_High	PTR FTN()void  size(2) Largest target is 1
		 -> RB4_INT_APP_ISR_HIGH(), RB5_INT_APP_ISR_HIGH(), RB6_INT_APP_ISR_HIGH(), RB7_INT_APP_ISR_HIGH(), 

    Interrupt_RBx_Pin_Init@int_obj$EXT_interrupt_handler_Low	PTR FTN()void  size(2) Largest target is 1
		 -> RB4_INT_APP_ISR_LOW(), RB5_INT_APP_ISR_LOW(), RB6_INT_APP_ISR_LOW(), RB7_INT_APP_ISR_LOW(), 

    Interrupt_RBx_Set_Interrupt_Handler@int_obj	PTR const struct . size(1) Largest target is 6
		 -> RB4_obj(COMRAM[6]), RB5_obj(BANK0[6]), RB6_obj(BANK0[6]), RB7_obj(BANK0[6]), 

    Interrupt_RBx_Set_Interrupt_Handler@int_obj$EXT_interrupt_handler_High	PTR FTN()void  size(2) Largest target is 1
		 -> RB4_INT_APP_ISR_HIGH(), RB5_INT_APP_ISR_HIGH(), RB6_INT_APP_ISR_HIGH(), RB7_INT_APP_ISR_HIGH(), 

    Interrupt_RBx_Set_Interrupt_Handler@int_obj$EXT_interrupt_handler_Low	PTR FTN()void  size(2) Largest target is 1
		 -> RB4_INT_APP_ISR_LOW(), RB5_INT_APP_ISR_LOW(), RB6_INT_APP_ISR_LOW(), RB7_INT_APP_ISR_LOW(), 

    lat_registers	PTR volatile unsigned char [5] size(2) Largest target is 1
		 -> LATA(BITBIGSFRll[1]), LATB(BITBIGSFRhl[1]), LATC(BITBIGSFRhl[1]), LATD(BITBIGSFRhl[1]), 
		 -> LATE(BITBIGSFRhl[1]), 

    led_initialize@led	PTR const struct . size(1) Largest target is 1
		 -> led1(COMRAM[1]), led2(COMRAM[1]), led3(COMRAM[1]), led4(COMRAM[1]), 

    led_turn_off@led	PTR const struct . size(1) Largest target is 1
		 -> led1(COMRAM[1]), led2(COMRAM[1]), led3(COMRAM[1]), led4(COMRAM[1]), 

    led_turn_on@led	PTR const struct . size(1) Largest target is 1
		 -> led1(COMRAM[1]), led2(COMRAM[1]), led3(COMRAM[1]), led4(COMRAM[1]), 

    port_registers	PTR volatile unsigned char [5] size(2) Largest target is 1
		 -> PORTA(BITBIGSFRll[1]), PORTB(BITBIGSFRlh[1]), PORTC(BITBIGSFRlh[1]), PORTD(BITBIGSFRlh[1]), 
		 -> PORTE(BITBIGSFRlh[1]), 

    RB4_ISRS	PTR FTN()void [2] size(2) Largest target is 1
		 -> RB4_INT_APP_ISR_HIGH(), RB4_INT_APP_ISR_LOW(), RB5_INT_APP_ISR_HIGH(), RB5_INT_APP_ISR_LOW(), 
		 -> RB6_INT_APP_ISR_HIGH(), RB6_INT_APP_ISR_LOW(), RB7_INT_APP_ISR_HIGH(), RB7_INT_APP_ISR_LOW(), 

    RB4_obj$EXT_interrupt_handler_High	PTR FTN()void  size(2) Largest target is 1
		 -> RB4_INT_APP_ISR_HIGH(), RB5_INT_APP_ISR_HIGH(), RB6_INT_APP_ISR_HIGH(), RB7_INT_APP_ISR_HIGH(), 

    RB4_obj$EXT_interrupt_handler_Low	PTR FTN()void  size(2) Largest target is 1
		 -> RB4_INT_APP_ISR_LOW(), RB5_INT_APP_ISR_LOW(), RB6_INT_APP_ISR_LOW(), RB7_INT_APP_ISR_LOW(), 

    RB5_ISRS	PTR FTN()void [2] size(2) Largest target is 1
		 -> RB4_INT_APP_ISR_HIGH(), RB4_INT_APP_ISR_LOW(), RB5_INT_APP_ISR_HIGH(), RB5_INT_APP_ISR_LOW(), 
		 -> RB6_INT_APP_ISR_HIGH(), RB6_INT_APP_ISR_LOW(), RB7_INT_APP_ISR_HIGH(), RB7_INT_APP_ISR_LOW(), 

    RB5_obj$EXT_interrupt_handler_High	PTR FTN()void  size(2) Largest target is 1
		 -> RB4_INT_APP_ISR_HIGH(), RB5_INT_APP_ISR_HIGH(), RB6_INT_APP_ISR_HIGH(), RB7_INT_APP_ISR_HIGH(), 

    RB5_obj$EXT_interrupt_handler_Low	PTR FTN()void  size(2) Largest target is 1
		 -> RB4_INT_APP_ISR_LOW(), RB5_INT_APP_ISR_LOW(), RB6_INT_APP_ISR_LOW(), RB7_INT_APP_ISR_LOW(), 

    RB6_ISRS	PTR FTN()void [2] size(2) Largest target is 1
		 -> RB4_INT_APP_ISR_HIGH(), RB4_INT_APP_ISR_LOW(), RB5_INT_APP_ISR_HIGH(), RB5_INT_APP_ISR_LOW(), 
		 -> RB6_INT_APP_ISR_HIGH(), RB6_INT_APP_ISR_LOW(), RB7_INT_APP_ISR_HIGH(), RB7_INT_APP_ISR_LOW(), 

    RB6_obj$EXT_interrupt_handler_High	PTR FTN()void  size(2) Largest target is 1
		 -> RB4_INT_APP_ISR_HIGH(), RB5_INT_APP_ISR_HIGH(), RB6_INT_APP_ISR_HIGH(), RB7_INT_APP_ISR_HIGH(), 

    RB6_obj$EXT_interrupt_handler_Low	PTR FTN()void  size(2) Largest target is 1
		 -> RB4_INT_APP_ISR_LOW(), RB5_INT_APP_ISR_LOW(), RB6_INT_APP_ISR_LOW(), RB7_INT_APP_ISR_LOW(), 

    RB7_ISRS	PTR FTN()void [2] size(2) Largest target is 1
		 -> RB4_INT_APP_ISR_HIGH(), RB4_INT_APP_ISR_LOW(), RB5_INT_APP_ISR_HIGH(), RB5_INT_APP_ISR_LOW(), 
		 -> RB6_INT_APP_ISR_HIGH(), RB6_INT_APP_ISR_LOW(), RB7_INT_APP_ISR_HIGH(), RB7_INT_APP_ISR_LOW(), 

    RB7_obj$EXT_interrupt_handler_High	PTR FTN()void  size(2) Largest target is 1
		 -> RB4_INT_APP_ISR_HIGH(), RB5_INT_APP_ISR_HIGH(), RB6_INT_APP_ISR_HIGH(), RB7_INT_APP_ISR_HIGH(), 

    RB7_obj$EXT_interrupt_handler_Low	PTR FTN()void  size(2) Largest target is 1
		 -> RB4_INT_APP_ISR_LOW(), RB5_INT_APP_ISR_LOW(), RB6_INT_APP_ISR_LOW(), RB7_INT_APP_ISR_LOW(), 

    S282$EXT_interrupt_handler	PTR FTN()void  size(2) Largest target is 0

    S457$EXT_interrupt_handler_High	PTR FTN()void  size(2) Largest target is 1
		 -> RB4_INT_APP_ISR_HIGH(), RB5_INT_APP_ISR_HIGH(), RB6_INT_APP_ISR_HIGH(), RB7_INT_APP_ISR_HIGH(), 

    S457$EXT_interrupt_handler_Low	PTR FTN()void  size(2) Largest target is 1
		 -> RB4_INT_APP_ISR_LOW(), RB5_INT_APP_ISR_LOW(), RB6_INT_APP_ISR_LOW(), RB7_INT_APP_ISR_LOW(), 

    tris_registers	PTR volatile unsigned char [5] size(2) Largest target is 1
		 -> TRISA(BITBIGSFRhl[1]), TRISB(BITBIGSFRhhll[1]), TRISC(BITBIGSFRhhll[1]), TRISD(BITBIGSFRhhll[1]), 
		 -> TRISE(BITBIGSFRhhll[1]), 


Critical Paths under _main in COMRAM

    None.

Critical Paths under _Interrupt_Manager in COMRAM

    _Interrupt_Manager->_RB4_ISR
    _Interrupt_Manager->_RB5_ISR
    _Interrupt_Manager->_RB6_ISR
    _Interrupt_Manager->_RB7_ISR
    _RB7_INT_APP_ISR_LOW->_led_turn_off
    _RB7_INT_APP_ISR_HIGH->_led_turn_off
    _RB6_INT_APP_ISR_LOW->_led_turn_on
    _RB6_INT_APP_ISR_HIGH->_led_turn_on
    _RB5_INT_APP_ISR_LOW->_led_turn_off
    _RB5_INT_APP_ISR_HIGH->_led_turn_off
    _led_turn_off->_gpio_pin_write_logic
    _RB4_INT_APP_ISR_LOW->_led_turn_on
    _RB4_INT_APP_ISR_HIGH->_led_turn_on
    _led_turn_on->_gpio_pin_write_logic

Critical Paths under _main in BANK0

    _main->_Interrupt_RBx_Init
    _main->_led_initialize
    _led_initialize->_gpio_pin_initialize
    _Interrupt_RBx_Init->_Interrupt_RBx_Pin_Init
    _Interrupt_RBx_Pin_Init->_gpio_pin_initialize
    _gpio_pin_initialize->_gpio_pin_direction_initialize

Critical Paths under _Interrupt_Manager in BANK0

    None.

Critical Paths under _main in BANK1

    None.

Critical Paths under _Interrupt_Manager in BANK1

    None.

Critical Paths under _main in BANK2

    None.

Critical Paths under _Interrupt_Manager in BANK2

    None.

Critical Paths under _main in BANK3

    None.

Critical Paths under _Interrupt_Manager in BANK3

    None.

Critical Paths under _main in BANK4

    None.

Critical Paths under _Interrupt_Manager in BANK4

    None.

Critical Paths under _main in BANK5

    None.

Critical Paths under _Interrupt_Manager in BANK5

    None.

Critical Paths under _main in BANK6

    None.

Critical Paths under _Interrupt_Manager in BANK6

    None.

Critical Paths under _main in BANK7

    None.

Critical Paths under _Interrupt_Manager in BANK7

    None.

Critical Paths under _main in BANK8

    None.

Critical Paths under _Interrupt_Manager in BANK8

    None.

Critical Paths under _main in BANK9

    None.

Critical Paths under _Interrupt_Manager in BANK9

    None.

Critical Paths under _main in BANK10

    None.

Critical Paths under _Interrupt_Manager in BANK10

    None.

Critical Paths under _main in BANK11

    None.

Critical Paths under _Interrupt_Manager in BANK11

    None.

Critical Paths under _main in BANK12

    None.

Critical Paths under _Interrupt_Manager in BANK12

    None.

Critical Paths under _main in BANK13

    None.

Critical Paths under _Interrupt_Manager in BANK13

    None.

Critical Paths under _main in BANK14

    None.

Critical Paths under _Interrupt_Manager in BANK14

    None.

Critical Paths under _main in BANK15

    None.

Critical Paths under _Interrupt_Manager in BANK15

    None.

Call Graph Tables:

 ---------------------------------------------------------------------------------
 (Depth) Function   	        Calls       Base Space   Used Autos Params    Refs
 ---------------------------------------------------------------------------------
 (0) _main                                                 1     1      0    4397
                                             14 BANK0      1     1      0
                 _Interrupt_RBx_Init
                   _application_init
                     _led_initialize
 ---------------------------------------------------------------------------------
 (1) _led_initialize                                       4     3      1    1698
                                             10 BANK0      4     3      1
                _gpio_pin_initialize
 ---------------------------------------------------------------------------------
 (1) _application_init                                     1     1      0     102
                                              0 BANK0      1     1      0
               _ecu_layer_initialize
 ---------------------------------------------------------------------------------
 (2) _ecu_layer_initialize                                 1     1      0      65
 ---------------------------------------------------------------------------------
 (1) _Interrupt_RBx_Init                                   2     1      1    2539
                                             12 BANK0      2     1      1
               _Interrupt_RBx_Enable
             _Interrupt_RBx_Pin_Init
_Interrupt_RBx_Set_Interrupt_Handler
 ---------------------------------------------------------------------------------
 (2) _Interrupt_RBx_Set_Interrupt_Handler                  2     1      1     440
                                              0 BANK0      2     1      1
 ---------------------------------------------------------------------------------
 (2) _Interrupt_RBx_Pin_Init                               2     1      1    1438
                                             10 BANK0      2     1      1
                _gpio_pin_initialize
 ---------------------------------------------------------------------------------
 (2) _gpio_pin_initialize                                  3     2      1    1110
                                              7 BANK0      3     2      1
      _gpio_pin_direction_initialize
 ---------------------------------------------------------------------------------
 (3) _gpio_pin_direction_initialize                        7     6      1     347
                                              0 BANK0      7     6      1
 ---------------------------------------------------------------------------------
 (2) _Interrupt_RBx_Enable                                 2     1      1     134
                                              0 BANK0      1     0      1
 ---------------------------------------------------------------------------------
 Estimated maximum stack depth 3
 ---------------------------------------------------------------------------------
 (Depth) Function   	        Calls       Base Space   Used Autos Params    Refs
 ---------------------------------------------------------------------------------
 (5) _Interrupt_Manager                                    6     6      0   35704
                                             12 COMRAM     6     6      0
                           _INT0_ISR
                           _INT1_ISR
                           _INT2_ISR
                            _RB4_ISR
                            _RB5_ISR
                            _RB6_ISR
                            _RB7_ISR
 ---------------------------------------------------------------------------------
 (6) _RB7_ISR                                              1     1      0    8926
                                             11 COMRAM     1     1      0
               _RB4_INT_APP_ISR_HIGH *
                _RB4_INT_APP_ISR_LOW *
               _RB5_INT_APP_ISR_HIGH *
                _RB5_INT_APP_ISR_LOW *
               _RB6_INT_APP_ISR_HIGH *
                _RB6_INT_APP_ISR_LOW *
               _RB7_INT_APP_ISR_HIGH *
                _RB7_INT_APP_ISR_LOW *
 ---------------------------------------------------------------------------------
 (6) _RB6_ISR                                              1     1      0    8926
                                             11 COMRAM     1     1      0
               _RB4_INT_APP_ISR_HIGH *
                _RB4_INT_APP_ISR_LOW *
               _RB5_INT_APP_ISR_HIGH *
                _RB5_INT_APP_ISR_LOW *
               _RB6_INT_APP_ISR_HIGH *
                _RB6_INT_APP_ISR_LOW *
               _RB7_INT_APP_ISR_HIGH *
                _RB7_INT_APP_ISR_LOW *
 ---------------------------------------------------------------------------------
 (6) _RB5_ISR                                              1     1      0    8926
                                             11 COMRAM     1     1      0
               _RB4_INT_APP_ISR_HIGH *
                _RB4_INT_APP_ISR_LOW *
               _RB5_INT_APP_ISR_HIGH *
                _RB5_INT_APP_ISR_LOW *
               _RB6_INT_APP_ISR_HIGH *
                _RB6_INT_APP_ISR_LOW *
               _RB7_INT_APP_ISR_HIGH *
                _RB7_INT_APP_ISR_LOW *
 ---------------------------------------------------------------------------------
 (6) _RB4_ISR                                              1     1      0    8926
                                             11 COMRAM     1     1      0
               _RB4_INT_APP_ISR_HIGH *
                _RB4_INT_APP_ISR_LOW *
               _RB5_INT_APP_ISR_HIGH *
                _RB5_INT_APP_ISR_LOW *
               _RB6_INT_APP_ISR_HIGH *
                _RB6_INT_APP_ISR_LOW *
               _RB7_INT_APP_ISR_HIGH *
                _RB7_INT_APP_ISR_LOW *
 ---------------------------------------------------------------------------------
 (7) _RB7_INT_APP_ISR_LOW                                  0     0      0    1113
                       _led_turn_off
 ---------------------------------------------------------------------------------
 (7) _RB7_INT_APP_ISR_HIGH                                 0     0      0    1113
                       _led_turn_off
 ---------------------------------------------------------------------------------
 (7) _RB6_INT_APP_ISR_LOW                                  0     0      0    1113
                        _led_turn_on
 ---------------------------------------------------------------------------------
 (7) _RB6_INT_APP_ISR_HIGH                                 0     0      0    1113
                        _led_turn_on
 ---------------------------------------------------------------------------------
 (7) _RB5_INT_APP_ISR_LOW                                  0     0      0    1113
                       _led_turn_off
 ---------------------------------------------------------------------------------
 (7) _RB5_INT_APP_ISR_HIGH                                 0     0      0    1113
                       _led_turn_off
 ---------------------------------------------------------------------------------
 (8) _led_turn_off                                         4     3      1    1113
                                              8 COMRAM     3     2      1
               _gpio_pin_write_logic
 ---------------------------------------------------------------------------------
 (7) _RB4_INT_APP_ISR_LOW                                  0     0      0    1113
                        _led_turn_on
 ---------------------------------------------------------------------------------
 (7) _RB4_INT_APP_ISR_HIGH                                 0     0      0    1113
                        _led_turn_on
 ---------------------------------------------------------------------------------
 (8) _led_turn_on                                          4     3      1    1113
                                              8 COMRAM     3     2      1
               _gpio_pin_write_logic
 ---------------------------------------------------------------------------------
 (9) _gpio_pin_write_logic                                 8     6      2     679
                                              0 COMRAM     8     6      2
 ---------------------------------------------------------------------------------
 (6) _INT2_ISR                                             0     0      0       0
 ---------------------------------------------------------------------------------
 (6) _INT1_ISR                                             0     0      0       0
 ---------------------------------------------------------------------------------
 (6) _INT0_ISR                                             0     0      0       0
 ---------------------------------------------------------------------------------
 Estimated maximum stack depth 9
 ---------------------------------------------------------------------------------

 Call Graph Graphs:

 _main (ROOT)
   _Interrupt_RBx_Init
     _Interrupt_RBx_Enable
     _Interrupt_RBx_Pin_Init
       _gpio_pin_initialize
         _gpio_pin_direction_initialize
     _Interrupt_RBx_Set_Interrupt_Handler
   _application_init
     _ecu_layer_initialize
   _led_initialize
     _gpio_pin_initialize

 _Interrupt_Manager (ROOT)
   _INT0_ISR
   _INT1_ISR
   _INT2_ISR
   _RB4_ISR
     _RB4_INT_APP_ISR_HIGH *
       _led_turn_on
         _gpio_pin_write_logic
     _RB4_INT_APP_ISR_LOW *
       _led_turn_on
     _RB5_INT_APP_ISR_HIGH *
       _led_turn_off
         _gpio_pin_write_logic
     _RB5_INT_APP_ISR_LOW *
       _led_turn_off
     _RB6_INT_APP_ISR_HIGH *
       _led_turn_on
     _RB6_INT_APP_ISR_LOW *
       _led_turn_on
     _RB7_INT_APP_ISR_HIGH *
       _led_turn_off
     _RB7_INT_APP_ISR_LOW *
       _led_turn_off
   _RB5_ISR
     _RB4_INT_APP_ISR_HIGH *
     _RB4_INT_APP_ISR_LOW *
     _RB5_INT_APP_ISR_HIGH *
     _RB5_INT_APP_ISR_LOW *
     _RB6_INT_APP_ISR_HIGH *
     _RB6_INT_APP_ISR_LOW *
     _RB7_INT_APP_ISR_HIGH *
     _RB7_INT_APP_ISR_LOW *
   _RB6_ISR
     _RB4_INT_APP_ISR_HIGH *
     _RB4_INT_APP_ISR_LOW *
     _RB5_INT_APP_ISR_HIGH *
     _RB5_INT_APP_ISR_LOW *
     _RB6_INT_APP_ISR_HIGH *
     _RB6_INT_APP_ISR_LOW *
     _RB7_INT_APP_ISR_HIGH *
     _RB7_INT_APP_ISR_LOW *
   _RB7_ISR
     _RB4_INT_APP_ISR_HIGH *
     _RB4_INT_APP_ISR_LOW *
     _RB5_INT_APP_ISR_HIGH *
     _RB5_INT_APP_ISR_LOW *
     _RB6_INT_APP_ISR_HIGH *
     _RB6_INT_APP_ISR_LOW *
     _RB7_INT_APP_ISR_HIGH *
     _RB7_INT_APP_ISR_LOW *

 Address spaces:
Name               Size   Autos  Total    Cost      Usage
BIGRAM             F5F      0       0      42        0.0%
EEDATA             400      0       0       0        0.0%
BITBANK14          100      0       0      32        0.0%
BANK14             100      0       0      33        0.0%
BITBANK13          100      0       0      30        0.0%
BANK13             100      0       0      31        0.0%
BITBANK12          100      0       0      28        0.0%
BANK12             100      0       0      29        0.0%
BITBANK11          100      0       0      26        0.0%
BANK11             100      0       0      27        0.0%
BITBANK10          100      0       0      24        0.0%
BANK10             100      0       0      25        0.0%
BITBANK9           100      0       0      22        0.0%
BANK9              100      0       0      23        0.0%
BITBANK8           100      0       0      20        0.0%
BANK8              100      0       0      21        0.0%
BITBANK7           100      0       0      18        0.0%
BANK7              100      0       0      19        0.0%
BITBANK6           100      0       0      16        0.0%
BANK6              100      0       0      17        0.0%
BITBANK5           100      0       0      14        0.0%
BANK5              100      0       0      15        0.0%
BITBANK4           100      0       0      12        0.0%
BANK4              100      0       0      13        0.0%
BITBANK3           100      0       0      10        0.0%
BANK3              100      0       0      11        0.0%
BITBANK2           100      0       0       8        0.0%
BANK2              100      0       0       9        0.0%
BITBANK1           100      0       0       6        0.0%
BANK1              100      0       0       7        0.0%
BITBANK0            A0      0       0       4        0.0%
BANK0               A0      F      2B       5       26.9%
BITBANK15           60      0       0      34        0.0%
BANK15              60      0       0      35        0.0%
BITCOMRAM           5E      0       0       0        0.0%
COMRAM              5E     12      4E       1       83.0%
BITBIGSFRhhll       59      0       0      37        0.0%
BITBIGSFRll         20      0       0      40        0.0%
BITBIGSFRhhh         D      0       0      36        0.0%
BITBIGSFRlh          4      0       0      39        0.0%
BITBIGSFRhl          4      0       0      38        0.0%
BIGSFR               0      0       0     200        0.0%
BITSFR               0      0       0     200        0.0%
SFR                  0      0       0     200        0.0%
STACK                0      0       0       2        0.0%
NULL                 0      0       0       0        0.0%
ABS                  0      0      79      41        0.0%
DATA                 0      0      79       3        0.0%
CODE                 0      0       0       0        0.0%


Microchip Technology PIC18 Macro Assembler V2.46 build 20240104201356 
Symbol Table                                                                                   Sat Aug 10 06:55:06 2024

                      ?_RB7_INT_APP_ISR_HIGH 003D                                            l9 14A6  
                                         l13 14FC                                           l60 194E  
                       ??_Interrupt_RBx_Init 0089                          ??_Interrupt_Manager 0049  
                                        l105 184C                                          l117 127E  
                                        l331 186A                                          l333 1892  
                                        l350 1402                                          l503 18FA  
                                        l353 18CC                                          l355 18D2  
                                        l367 1366                                          l497 1484  
                                        l498 1480                                          l499 1480  
                        led_initialize@F3156 003C                                          tosl 0FFD  
                                        wreg 0FE8                                 ?_led_turn_on 0045  
                            __end_of_RB4_ISR 16D6                              __end_of_RB5_ISR 1660  
                            __end_of_RB6_ISR 15EA                              __end_of_RB7_ISR 1574  
                                       l2411 119E                                         l2413 11A6  
                                       l2421 1250                                         l2501 1488  
                                       l2415 11F8                                         l2423 127C  
                                       l2407 1168                                         l2431 1836  
                                       l2511 14F0                                         l2503 149E  
                                       l2409 117E                                         l2433 183E  
                                       l2521 186E                                         l2441 194C  
                                       l2505 14AA                                         l2513 14F8  
                                       l2435 184A                                         l2427 1804  
                                       l2451 1394                                         l2523 187A  
                                       l2531 18F0                                         l2507 14DC  
                                       l2429 1816                                         l2453 13A6  
                                       l2461 13CA                                         l2445 1368  
                                       l2525 1886                                         l2517 184E  
                                       l2533 18F0                                         l2509 14DE  
                                       l2455 13B8                                         l2463 1400  
                                       l2447 137A                                         l2471 129E  
                                       l2527 188E                                         l2519 1864  
                                       l2439 194C                                         l2535 18F8  
                                       l2449 1382                                         l2481 12F4  
                                       l2473 12AC                                         l2483 130A  
                                       l2475 12C2                                         l2491 132E  
                                       l2467 1280                                         l2485 1318  
                                       l2477 12D0                                         l2493 1364  
                                       l2469 1296                                         l2479 12E6  
                                       l2591 140C                                         l2497 18B6  
                                       l2499 18C8                                         l2595 1420  
                                       l2589 1404                       ??_Interrupt_RBx_Enable 007D  
                                       u2300 117E                                         u2301 117A  
                                       _LATA 0F89                                         u2310 119E  
                                       _LATB 0F8A                                         u2311 119A  
                                       _LATC 0F8B                                         u2400 149E  
                                       _LATD 0F8C                                         u2401 149A  
                                       _LATE 0F8D                                         u2340 1266  
                                       u2324 11C4                                         u2420 1864  
                                       u2341 1260                                         u2325 11C0  
                                       u2421 1860                                         u2334 1216  
                                       u2350 1816                                         u2335 1212  
                                       u2351 1812                                         u2415 14EC  
                                       u2360 1836                                         u2361 1832  
                                       u2417 14F0                                         u2346 1268  
                                       u2370 137A                                         u2371 1376  
                                       u2380 1296                                         u2381 1292  
                                       u2390 18C8                                         u2391 18C4  
                                       u2480 141C                                         u2481 1418  
                                       i2l20 17A8                                         i2l23 16EA  
                                       i2l16 1754                                         i2l27 173E  
                  __end_of_Interrupt_Manager 02BE                                         _led1 0022  
                                       _led2 0021                                         _led3 0020  
                                       _led4 001F                                         _main 1404  
                                       fsr2h 0FDA                                         indf2 0FDF  
                                       fsr1l 0FE1                                         fsr2l 0FD9  
                                       btemp 004F                       __end_of_led_initialize 14FE  
                                       prodh 0FF4                                         prodl 0FF3  
                                       start 02BE             gpio_pin_initialize@_pin_config_t 0083  
                              ?_led_turn_off 0045                                 ___param_bank 0000  
                       _gpio_pin_write_logic 1002                             __end_of_INT0_ISR 195C  
                           __end_of_INT1_ISR 1958                             __end_of_INT2_ISR 1954  
                                      ?_main 003D                       _INT0_INTERRUPT_HANDLER 0037  
                                      i2l320 195A                                        i2l136 1166  
                                      i2l324 1956                                        i2l328 1952  
                                      i2l381 165E                                        i2l462 1940  
                                      i2l374 16D4                                        i2l471 1922  
                                      i2l439 02A2                                        i2l480 1904  
                                      i2l465 1936                                        i2l474 1918  
                                      i2l483 194A                                        i2l395 1572  
                                      i2l468 192C                                        i2l388 15E8  
                                      i2l477 190E                                        _PORTA 0F80  
                                      _PORTB 0F81                                        _PORTC 0F82  
                                      _PORTD 0F83                                        _PORTE 0F84  
                                      _TRISA 0F92                                        _TRISB 0F93  
                                      _TRISC 0F94                                        _TRISD 0F95  
                                      _TRISE 0F96                                        pclath 0FFA  
                                      pclatu 0FFB                                        tablat 0FF5  
                                      ttemp5 0050                                        ttemp6 0053  
                                      ttemp7 0057                                        status 0FD8  
              Interrupt_RBx_Pin_Init@int_obj 0086                                        wtemp8 0050  
                            ?_led_initialize 0086                               ??_led_turn_off 0046  
             ?_gpio_pin_direction_initialize 007C                       ??_RB7_INT_APP_ISR_HIGH 0048  
                            __initialization 17AA                                 __end_of_main 1488  
                      ?_gpio_pin_write_logic 003D   Interrupt_RBx_Set_Interrupt_Handler@int_obj 007C  
                              _lat_registers 000B                                       ??_main 008A  
                              __activetblptr 0002                             led_turn_on@F3161 003B  
                                  ??_RB4_ISR 0048                                    ??_RB5_ISR 0048  
                                  ??_RB6_ISR 0048                                    ??_RB7_ISR 0048  
                                     i2l2011 1722                                       i2l2003 16D6  
                                     i2l2013 1732                                       i2l2005 16E6  
                                     i2l2007 16EE                                       i2l2009 1720  
                                     i2l1403 1950                                       i2l2131 1686  
                                     i2l2133 16A4                                       i2l2125 1662  
                                     i2l2141 15FE                                       i2l2301 0090  
                                     i2l2135 16B6                                       i2l2127 1664  
                                     i2l2143 1610                                       i2l2151 1578  
                                     i2l2303 009E                                       i2l2311 00C6  
                                     i2l2081 192E                                       i2l2129 1674  
                                     i2l2145 162E                                       i2l2137 15EC  
                                     i2l2153 1588                                       i2l2161 1500  
                                     i2l2321 0104                                       i2l2313 00D4  
                                     i2l2305 00AC                                       i2l2083 1924  
                                     i2l2091 18FC                                       i2l2147 1640  
                                     i2l2139 15EE                                       i2l2155 159A  
                                     i2l2171 1558                                       i2l2163 1502  
                                     i2l2331 0144                                       i2l2315 00E2  
                                     i2l2323 010A                                       i2l2307 00BC  
                                     i2l2093 1942                                       i2l2085 191A  
                                     i2l2157 15BC                                       i2l2149 1576  
                                     i2l2165 1512                                       i2l2341 0178  
                                     i2l2333 0148                                       i2l2325 0118  
                                     i2l2317 00F0                                       i2l2309 00C0  
                                     i2l2079 1938                                       i2l2087 1910  
                                     i2l2159 15CE                                       i2l2167 1524  
                                     i2l2351 01AE                                       i2l2343 0188  
                                     i2l2327 0126                                       i2l2335 014E  
                                     i2l2319 0100                                       i2l2089 1906  
                                     i2l2169 1546                                       i2l2361 01E4  
                                     i2l2353 01BC                                       i2l2345 018C  
                                     i2l2337 015C                                       i2l2329 0134  
                                     i2l2281 0022                                       i2l1395 1958  
                                     i2l2363 01F2                                       i2l2371 021A  
                                     i2l2355 01CC                                       i2l2339 016A  
                                     i2l2347 0192                                       i2l2291 005E  
                                     i2l2283 0030                                       i2l2381 0258  
                                     i2l2373 0228                                       i2l2365 0200  
                                     i2l2357 01D0                                       i2l2349 01A0  
                                     i2l2293 0062                                       i2l2285 003E  
                                     i2l1399 1954                                       i2l2391 0298  
                                     i2l2375 0236                                       i2l2383 025E  
                                     i2l2367 0210                                       i2l2359 01D6  
                                     i2l2295 0070                                       i2l2287 0042  
                                     i2l2617 114E                                       i2l2393 029C  
                                     i2l2385 026C                                       i2l2377 0244  
                                     i2l2369 0214                                       i2l2297 007E  
                                     i2l2289 0050                                       i2l1931 1002  
                                     i2l2387 027A                                       i2l2379 0254  
                                     i2l2299 0082                                       i2l1941 10E4  
                                     i2l1933 1016                                       i2l2389 0288  
                                     i2l1935 1036                                       i2l1937 103E  
                                     i2l1939 108E                                       i2l1947 113A  
                                     i2l1949 1164                                       i2l1991 1750  
                                     i2l1993 1758                                       i2l1995 178A  
                                     i2l1997 178C                                       i2l1989 1740  
                                     i2l1999 179C                     ??_Interrupt_RBx_Pin_Init 0087  
__end_of_Interrupt_RBx_Set_Interrupt_Handler 1368        ??_Interrupt_RBx_Set_Interrupt_Handler 007D  
       ?_Interrupt_RBx_Set_Interrupt_Handler 007C          _Interrupt_RBx_Set_Interrupt_Handler 1280  
                                     clear_0 17F0                                       isa$std 0001  
                        _RB4_INT_APP_ISR_LOW 192E                                 __pdataCOMRAM 0001  
                               __mediumconst 0000                                       tblptrh 0FF7  
                                     tblptrl 0FF6                                       tblptru 0FF8  
                                 __accesstop 0060                      __end_of__initialization 17F6  
                                  ?_INT0_ISR 003D                                    ?_INT1_ISR 003D  
                                  ?_INT2_ISR 003D                         ?_RB4_INT_APP_ISR_LOW 003D  
                              ___rparam_used 0001                            led_initialize@led 0086  
                          led_initialize@pin 0089                            led_initialize@ret 0088  
                     ??_gpio_pin_write_logic 003F                               __pcstackCOMRAM 003D  
               __end_of_RB4_INT_APP_ISR_HIGH 1942                             _application_init 18F0  
                               __pidataBANK0 18D4                                RB4_ISR@source 0048  
                       __end_of_led_turn_off 1740                          _RB5_INT_APP_ISR_LOW 191A  
                              RB5_ISR@source 0048                        ??_RB4_INT_APP_ISR_LOW 0048  
                                 ??_INT0_ISR 003D                                   ??_INT1_ISR 003D  
                                 ??_INT2_ISR 003D                         ?_RB5_INT_APP_ISR_LOW 003D  
                              RB6_ISR@source 0048                            led_turn_off@F3166 003A  
                            led_toggle@F3171 0039                                      _RB4_ISR 1660  
                                    _RB5_ISR 15EA                                      _RB6_ISR 1574  
                                    _RB7_ISR 14FE                                      _RB4_obj 0019  
                                    _RB5_obj 0076                                      _RB6_obj 0070  
                                    _RB7_obj 006A                                RB7_ISR@source 0048  
                           ??_led_initialize 0087                               _tris_registers 0001  
                        _RB6_INT_APP_ISR_LOW 1906                                      __Hparam 0000  
                                    __Lparam 0000                        ??_RB5_INT_APP_ISR_LOW 0048  
                        _gpio_pin_initialize 1804                                 __psmallconst 1000  
                                    __pcinit 17AA                                      __ramtop 1000  
                                    __ptext0 1404                                      __ptext1 1488  
                                    __ptext2 18F0                                      __ptext3 194C  
                                    __ptext4 184E                                      __ptext5 1280  
                                    __ptext6 1368                                      __ptext7 1804  
                                    __ptext8 1168                                      __ptext9 18B6  
                       ?_RB6_INT_APP_ISR_LOW 003D                       _INT1_INTERRUPT_HANDLER 0035  
            ??_gpio_pin_direction_initialize 007D                       _Interrupt_RBx_Pin_Init 1368  
               __end_of_RB5_INT_APP_ISR_HIGH 192E                         ?_gpio_pin_initialize 0083  
                       _RB4_INT_APP_ISR_HIGH 1938                                      main@ret 008A  
                       end_of_initialization 17F6                                __Lmediumconst 0000  
          gpio_pin_write_logic@_pin_config_t 003D                          _RB7_INT_APP_ISR_LOW 1942  
                                    postdec1 0FE5                                      postdec2 0FDD  
                                    postinc0 0FEE                                      postinc2 0FDE  
                      ??_RB6_INT_APP_ISR_LOW 0048                                    _PORTBbits 0F81  
                      ??_gpio_pin_initialize 0084                         ?_RB7_INT_APP_ISR_LOW 003D  
                      ?_RB4_INT_APP_ISR_HIGH 003D                     __end_of_application_init 18FC  
                               _led_turn_off 16D6                    Interrupt_RBx_Init@int_obj 0088  
                              __pidataCOMRAM 1894                        Interrupt_RBx_Init@ret 0089  
                        start_initialization 17AA                                ??_led_turn_on 0046  
                      ??_RB7_INT_APP_ISR_LOW 0048        __end_of_gpio_pin_direction_initialize 1280  
              _gpio_pin_direction_initialize 1168                              led_turn_off@led 0045  
                            led_turn_off@pin 0047                 __end_of_RB6_INT_APP_ISR_HIGH 191A  
                       _RB5_INT_APP_ISR_HIGH 1924                          application_init@ret 007C  
                                __pdataBANK0 0060                 __end_of_ecu_layer_initialize 1950  
                                   ?_RB4_ISR 003D                                     ?_RB5_ISR 003D  
                                   ?_RB6_ISR 003D                                     ?_RB7_ISR 003D  
                                __pbssCOMRAM 0023                                __pcstackBANK0 007C  
                     ??_RB4_INT_APP_ISR_HIGH 0048                  __end_of_RB4_INT_APP_ISR_LOW 1938  
                        __end_of_led_turn_on 17AA                    Interrupt_RBx_Pin_Init@ret 0087  
                                  __pintcode 0008                   __end_of_Interrupt_RBx_Init 1894  
                      ?_RB5_INT_APP_ISR_HIGH 003D                 __end_of_Interrupt_RBx_Enable 18D4  
                    ?_Interrupt_RBx_Pin_Init 0086                    gpio_pin_write_logic@logic 003E  
                                __smallconst 1000                                     _RB4_ISRS 002F  
                __end_of_RB5_INT_APP_ISR_LOW 1924                                     _INT0_ISR 1958  
                                   _RB5_ISRS 002B                                     _INT1_ISR 1954  
                                   _INT2_ISR 1950                                     _RB6_ISRS 0027  
                                   _RB7_ISRS 0023                                     _RB4_Flag 0018  
                                   _RB5_Flag 0017                                     _RB6_Flag 0016  
                                   _RB7_Flag 0015                                     i2u200_40 00BC  
                                   i2u200_41 00B8                                     i2u201_40 00D4  
                                   i2u201_41 00D0                                     i2u210_40 016A  
                                   i2u202_40 00E2                                     i2u210_41 0166  
                                   i2u202_41 00DE                                     i2u131_40 1016  
                                   i2u211_40 0178                                     i2u203_40 00F0  
                                   i2u131_41 1012                                     i2u211_41 0174  
                                   i2u203_41 00EC                                     i2u132_40 1036  
                                   i2u220_40 0210                                     i2u212_40 0188  
                                   i2u204_40 0100                                     i2u132_41 1032  
                                   i2u220_41 020C                                     i2u212_41 0184  
                                   i2u204_41 00FC                                     i2u221_40 0228  
                                   i2u213_40 01A0                                     i2u205_40 0118  
                                   i2u221_41 0224                                     i2u213_41 019C  
                                   i2u205_41 0114                                     i2u133_44 105C  
                                   i2u133_45 1058                                     i2u222_40 0236  
                                   i2u214_40 01AE                                     i2u206_40 0126  
                                   i2u222_41 0232                                     i2u214_41 01AA  
                                   i2u206_41 0122                                     i2u134_44 10AC  
                                   i2u134_45 10A8                                     i2u143_40 1750  
                                   i2u223_40 0244                                     i2u215_40 01BC  
                                   i2u207_40 0134                                     i2u143_41 174C  
                                   i2u223_41 0240                                     i2u215_41 01B8  
                                   i2u207_41 0130                                     i2u135_44 1102  
                                   i2u135_45 10FE                                     i2u224_40 0254  
                                   i2u216_40 01CC                                     i2u208_40 0144  
                                   i2u224_41 0250                                     i2u216_41 01C8  
                                   i2u208_41 0140                                     i2u144_45 179A  
                                   i2u144_47 179C                                     i2u145_40 16E6  
                                   i2u153_40 1674                                     i2u161_40 1640  
                                   i2u160_48 1616                                     i2u225_40 026C  
                                   i2u217_40 01E4                                     i2u209_40 015C  
                                   i2u145_41 16E2                                     i2u153_41 1670  
                                   i2u161_41 163C                                     i2u160_49 162A  
                                   i2u225_41 0268                                     i2u217_41 01E0  
                                   i2u209_41 0158                                     i2u154_40 1686  
                                   i2u226_40 027A                                     i2u218_40 01F2  
                                   i2u154_41 1682                                     i2u226_41 0276  
                                   i2u218_41 01EE                                     i2u146_45 1730  
                                   i2u146_47 1732                                     i2u162_48 164A  
                                   i2u163_40 1588                                     i2u171_40 1558  
                                   i2u170_48 152E                                     i2u227_40 0288  
                                   i2u219_40 0200                                     i2u162_49 165E  
                                   i2u163_41 1584                                     i2u171_41 1554  
                                   i2u170_49 1542                                     i2u227_41 0284  
                                   i2u219_41 01FC                                     i2u156_40 16B6  
                                   i2u155_48 168C                                     i2u164_40 159A  
                                   i2u228_40 0298                                     i2u156_41 16B2  
                                   i2u155_49 16A0                                     i2u164_41 1596  
                                   i2u228_41 0294                                     i2u172_48 155E  
                                   i2u172_49 1572                                     i2u157_48 16C0  
                                   i2u158_40 15FE                                     i2u166_40 15CE  
                                   i2u165_48 15A4                                     i2u157_49 16D4  
                                   i2u158_41 15FA                                     i2u166_41 15CA  
                                   i2u165_49 15B8                                     i2u159_40 1610  
                                   i2u191_40 0030                                     i2u159_41 160C  
                                   i2u191_41 002C                                     i2u167_48 15D4  
                                   i2u168_40 1512                                     i2u192_40 003E  
                                   i2u167_49 15E8                                     i2u168_41 150E  
                                   i2u192_41 003A                                     i2u169_40 1524  
                                   i2u193_40 0050                                     i2u169_41 1520  
                                   i2u193_41 004C                                     i2u194_40 005E  
                                   i2u194_41 005A                                     i2u195_40 0070  
                                   i2u195_41 006C                                     i2u196_40 007E  
                                   i2u196_41 007A                                     i2u197_40 0090  
                                   i2u197_41 008C                                     i2u198_40 009E  
                                   i2u198_41 009A                                     i2u199_40 00AC  
                                   i2u199_41 00A8             gpio_pin_direction_initialize@ret 0082  
             __end_of_Interrupt_RBx_Pin_Init 1404   gpio_pin_direction_initialize@_pin_config_t 007C  
                     _INT2_INTERRUPT_HANDLER 0033                       gpio_pin_initialize@ret 0085  
                                _led_turn_on 1740                 __end_of_RB7_INT_APP_ISR_HIGH 1906  
                    gpio_pin_write_logic@ret 0044                         _RB6_INT_APP_ISR_HIGH 1910  
                          ?_application_init 003D                                  _INTCON2bits 0FF1  
                                _INTCON3bits 0FF0                                    copy_data0 17BE  
                                  copy_data1 17DE                           ??_application_init 007C  
     Interrupt_RBx_Set_Interrupt_Handler@ret 007D                         _ecu_layer_initialize 194C  
                             led_turn_on@led 0045                               led_turn_on@pin 0047  
                                   __Hrparam 0000                       ??_RB5_INT_APP_ISR_HIGH 0048  
                                   __Lrparam 0000                  __end_of_RB6_INT_APP_ISR_LOW 1910  
                __end_of_gpio_pin_initialize 184E                                     __ptext11 14FE  
                                   __ptext20 192E                                     __ptext12 1574  
                                   __ptext21 1938                                     __ptext13 15EA  
                                   __ptext22 1942                                     __ptext14 1660  
                                   __ptext23 16D6                                     __ptext15 18FC  
                                   __ptext24 1740                                     __ptext16 1906  
                                   __ptext25 1002                                     __ptext17 1910  
                                   __ptext26 1950                                     __ptext18 191A  
                                   __ptext27 1954                                     __ptext19 1924  
                                   __ptext28 1958                        ?_RB6_INT_APP_ISR_HIGH 003D  
                       _Interrupt_RBx_Enable 18B6                        ?_ecu_layer_initialize 003D  
                                   isa$xinst 0000                                     int$flags 004F  
                Interrupt_RBx_Enable@int_obj 007C                  __end_of_RB7_INT_APP_ISR_LOW 194C  
                                 _INTCONbits 0FF2                 __end_of_gpio_pin_write_logic 1168  
                                   intlevel2 0000                        ?_Interrupt_RBx_Enable 007C  
                       _RB7_INT_APP_ISR_HIGH 18FC                               _port_registers 0060  
                         _Interrupt_RBx_Init 184E                       ??_RB6_INT_APP_ISR_HIGH 0048  
                     ??_ecu_layer_initialize 007C                          ?_Interrupt_RBx_Init 0088  
                          _Interrupt_Manager 0008                               _led_initialize 1488  
                         ?_Interrupt_Manager 003D  
