

Microchip MPLAB XC8 Assembler V2.46 build 20240104201356 
                                                                                               Mon Aug 12 09:52:08 2024

Microchip MPLAB XC8 C Compiler v2.46 (Free license) build 20240104201356 Og1 
     1                           	processor	18F46K20
     2                           	fnconf	rparam,??,?,0
     3                           	pagewidth 120
     4                           	opt	flic
     5                           	psect	idataCOMRAM,global,class=CODE,delta=1,noexec
     6                           	psect	idataBANK0,global,class=CODE,delta=1,noexec
     7                           	psect	cinit,global,reloc=2,class=CODE,delta=1
     8                           	psect	bssCOMRAM,global,class=COMRAM,space=1,delta=1,lowdata,noexec
     9                           	psect	dataCOMRAM,global,class=COMRAM,space=1,delta=1,lowdata,noexec
    10                           	psect	dataBANK0,global,class=BANK0,space=1,delta=1,lowdata,noexec
    11                           	psect	cstackBANK0,global,class=BANK0,space=1,delta=1,lowdata,noexec
    12                           	psect	cstackCOMRAM,global,class=COMRAM,space=1,delta=1,lowdata,noexec
    13                           	psect	text0,global,reloc=2,class=CODE,delta=1
    14                           	psect	text1,global,reloc=2,class=CODE,delta=1
    15                           	psect	text2,global,reloc=2,class=CODE,delta=1
    16                           	psect	text3,global,reloc=2,class=CODE,delta=1
    17                           	psect	text4,global,reloc=2,class=CODE,delta=1
    18                           	psect	text5,global,reloc=2,class=CODE,delta=1
    19                           	psect	text6,global,reloc=2,class=CODE,delta=1
    20                           	psect	text7,global,reloc=2,class=CODE,delta=1
    21                           	psect	text8,global,reloc=2,class=CODE,delta=1
    22                           	psect	text9,global,reloc=2,class=CODE,delta=1
    23                           	psect	text10,global,reloc=2,class=CODE,delta=1
    24                           	psect	intcodelo,global,reloc=2,class=CODE,delta=1
    25                           	psect	text12,global,reloc=2,class=CODE,delta=1
    26                           	psect	text13,global,reloc=2,class=CODE,delta=1
    27                           	psect	text14,global,reloc=2,class=CODE,delta=1
    28                           	psect	text15,global,reloc=2,class=CODE,delta=1
    29                           	psect	text16,global,reloc=2,class=CODE,delta=1
    30                           	psect	text17,global,reloc=2,class=CODE,delta=1
    31                           	psect	text18,global,reloc=2,class=CODE,delta=1
    32                           	psect	text19,global,reloc=2,class=CODE,delta=1
    33                           	psect	text20,global,reloc=2,class=CODE,delta=1
    34                           	psect	text21,global,reloc=2,class=CODE,delta=1
    35                           	psect	text22,global,reloc=2,class=CODE,delta=1
    36                           	psect	text23,global,reloc=2,class=CODE,delta=1
    37                           	psect	text24,global,reloc=2,class=CODE,delta=1
    38                           	psect	text25,global,reloc=2,class=CODE,delta=1
    39                           	psect	text26,global,reloc=2,class=CODE,delta=1
    40                           	psect	text27,global,reloc=2,class=CODE,delta=1
    41                           	psect	intcode,global,reloc=2,class=CODE,delta=1
    42                           	psect	intcode_body,global,reloc=2,class=CODE,delta=1
    43                           	psect	text29,global,reloc=2,class=CODE,delta=1
    44                           	psect	text30,global,reloc=2,class=CODE,delta=1
    45                           	psect	smallconst,global,reloc=2,class=SMALLCONST,delta=1,noexec
    46                           	psect	intsave_regs,global,class=BIGRAM,space=1,delta=1,noexec
    47                           	psect	rparam,global,class=COMRAM,space=1,delta=1,noexec
    48                           	psect	temp,global,ovrld,common,class=COMRAM,space=1,delta=1,lowdata
    49                           	psect	config,global,abs,ovrld,class=CONFIG,space=4,delta=1,noexec
    50   000000                     
    51                           ; Generated 12/10/2023 GMT
    52                           ; 
    53                           ; Copyright © 2023, Microchip Technology Inc. and its subsidiaries ("Microchip")
    54                           ; All rights reserved.
    55                           ; 
    56                           ; This software is developed by Microchip Technology Inc. and its subsidiaries ("Microch
      +                          ip").
    57                           ; 
    58                           ; Redistribution and use in source and binary forms, with or without modification, are
    59                           ; permitted provided that the following conditions are met:
    60                           ; 
    61                           ;     1. Redistributions of source code must retain the above copyright notice, this lis
      +                          t of
    62                           ;        conditions and the following disclaimer.
    63                           ; 
    64                           ;     2. Redistributions in binary form must reproduce the above copyright notice, this 
      +                          list
    65                           ;        of conditions and the following disclaimer in the documentation and/or other
    66                           ;        materials provided with the distribution. Publication is not required when
    67                           ;        this file is used in an embedded application.
    68                           ; 
    69                           ;     3. Microchip's name may not be used to endorse or promote products derived from th
      +                          is
    70                           ;        software without specific prior written permission.
    71                           ; 
    72                           ; THIS SOFTWARE IS PROVIDED BY MICROCHIP "AS IS" AND ANY EXPRESS OR IMPLIED WARRANTIES,
    73                           ; INCLUDING, BUT NOT LIMITED TO, THE IMPLIED WARRANTIES OF MERCHANTABILITY AND FITNESS F
      +                          OR
    74                           ; PURPOSE ARE DISCLAIMED.  IN NO EVENT SHALL MICROCHIP BE LIABLE FOR ANY DIRECT, INDIREC
      +                          T,
    75                           ; INCIDENTAL, SPECIAL, EXEMPLARY, OR CONSEQUENTIAL DAMAGES (INCLUDING BUT NOT LIMITED TO
    76                           ; PROCUREMENT OF SUBSTITUTE GOODS OR SERVICES; LOSS OF USE, DATA OR PROFITS; OR BUSINESS
    77                           ; INTERRUPTION) HOWSOEVER CAUSED AND ON ANY THEORY OF LIABILITY, WHETHER IN CONTRACT, ST
      +                          RICT
    78                           ; LIABILITY, OR TORT (INCLUDING NEGLIGENCE OR OTHERWISE) ARISING IN ANY WAY OUT OF THE U
      +                          SE OF
    79                           ; THIS SOFTWARE, EVEN IF ADVISED OF THE POSSIBILITY OF SUCH DAMAGE.
    80                           ; 
    81                           ; 
    82                           ; Code-generator required, PIC18F46K20 Definitions
    83                           ; 
    84                           ; SFR Addresses
    85   000000                     
    86                           	psect	idataCOMRAM
    87   001970                     __pidataCOMRAM:
    88                           	callstack 0
    89                           
    90                           ;initializer for _tris_registers
    91   001970  92                 	db	146
    92   001971  0F                 	db	15
    93   001972  93                 	db	147
    94   001973  0F                 	db	15
    95   001974  94                 	db	148
    96   001975  0F                 	db	15
    97   001976  95                 	db	149
    98   001977  0F                 	db	15
    99   001978  96                 	db	150
   100   001979  0F                 	db	15
   101                           
   102                           ;initializer for _lat_registers
   103   00197A  89                 	db	137
   104   00197B  0F                 	db	15
   105   00197C  8A                 	db	138
   106   00197D  0F                 	db	15
   107   00197E  8B                 	db	139
   108   00197F  0F                 	db	15
   109   001980  8C                 	db	140
   110   001981  0F                 	db	15
   111   001982  8D                 	db	141
   112   001983  0F                 	db	15
   113                           
   114                           ;initializer for _RB7_Flag
   115   001984  01                 	db	1
   116                           
   117                           ;initializer for _RB6_Flag
   118   001985  01                 	db	1
   119                           
   120                           ;initializer for _RB5_Flag
   121   001986  01                 	db	1
   122                           
   123                           ;initializer for _RB4_Flag
   124   001987  01                 	db	1
   125                           
   126                           ;initializer for _led4
   127   001988  32                 	db	50
   128                           
   129                           ;initializer for _led3
   130   001989  22                 	db	34
   131                           
   132                           ;initializer for _led2
   133   00198A  12                 	db	18
   134                           
   135                           ;initializer for _led1
   136   00198B  02                 	db	2
   137                           
   138                           	psect	idataBANK0
   139   00194E                     __pidataBANK0:
   140                           	callstack 0
   141                           
   142                           ;initializer for _port_registers
   143   00194E  80                 	db	128
   144   00194F  0F                 	db	15
   145   001950  81                 	db	129
   146   001951  0F                 	db	15
   147   001952  82                 	db	130
   148   001953  0F                 	db	15
   149   001954  83                 	db	131
   150   001955  0F                 	db	15
   151   001956  84                 	db	132
   152   001957  0F                 	db	15
   153                           
   154                           ;initializer for _RB7_obj
   155   001958  B4                 	db	low _RB7_INT_APP_ISR_HIGH
   156   001959  19                 	db	high _RB7_INT_APP_ISR_HIGH
   157   00195A  FA                 	db	low _RB7_INT_APP_ISR_LOW
   158   00195B  19                 	db	high _RB7_INT_APP_ISR_LOW
   159   00195C  79                 	db	121
   160   00195D  00                 	db	0
   161                           
   162                           ;initializer for _RB6_obj
   163   00195E  C8                 	db	low _RB6_INT_APP_ISR_HIGH
   164   00195F  19                 	db	high _RB6_INT_APP_ISR_HIGH
   165   001960  BE                 	db	low _RB6_INT_APP_ISR_LOW
   166   001961  19                 	db	high _RB6_INT_APP_ISR_LOW
   167   001962  71                 	db	113
   168   001963  00                 	db	0
   169                           
   170                           ;initializer for _RB5_obj
   171   001964  DC                 	db	low _RB5_INT_APP_ISR_HIGH
   172   001965  19                 	db	high _RB5_INT_APP_ISR_HIGH
   173   001966  D2                 	db	low _RB5_INT_APP_ISR_LOW
   174   001967  19                 	db	high _RB5_INT_APP_ISR_LOW
   175   001968  69                 	db	105
   176   001969  00                 	db	0
   177                           
   178                           ;initializer for _RB4_obj
   179   00196A  F0                 	db	low _RB4_INT_APP_ISR_HIGH
   180   00196B  19                 	db	high _RB4_INT_APP_ISR_HIGH
   181   00196C  E6                 	db	low _RB4_INT_APP_ISR_LOW
   182   00196D  19                 	db	high _RB4_INT_APP_ISR_LOW
   183   00196E  61                 	db	97
   184   00196F  00                 	db	0
   185   000000                     _INTCON2bits	set	4081
   186   000000                     _PORTBbits	set	3969
   187   000000                     _PORTA	set	3968
   188   000000                     _LATA	set	3977
   189   000000                     _TRISA	set	3986
   190   000000                     _LATE	set	3981
   191   000000                     _LATD	set	3980
   192   000000                     _LATC	set	3979
   193   000000                     _LATB	set	3978
   194   000000                     _RCONbits	set	4048
   195   000000                     _INTCON3bits	set	4080
   196   000000                     _INTCONbits	set	4082
   197   000000                     _TRISE	set	3990
   198   000000                     _TRISD	set	3989
   199   000000                     _TRISC	set	3988
   200   000000                     _TRISB	set	3987
   201   000000                     _PORTE	set	3972
   202   000000                     _PORTD	set	3971
   203   000000                     _PORTC	set	3970
   204   000000                     _PORTB	set	3969
   205                           
   206                           ; #config settings
   207                           
   208                           	psect	cinit
   209   001814                     __pcinit:
   210                           	callstack 0
   211   001814                     start_initialization:
   212                           	callstack 0
   213   001814                     __initialization:
   214                           	callstack 0
   215                           
   216                           ; Initialize objects allocated to BANK0 (34 bytes)
   217                           ; load TBLPTR registers with __pidataBANK0
   218   001814  0E4E               	movlw	low __pidataBANK0
   219   001816  6EF6               	movwf	tblptrl,c
   220   001818  0E19               	movlw	high __pidataBANK0
   221   00181A  6EF7               	movwf	tblptrh,c
   222   00181C  0E00               	movlw	low (__pidataBANK0 shr (0+16))
   223   00181E  6EF8               	movwf	tblptru,c
   224   001820  EE00  F060         	lfsr	0,__pdataBANK0
   225   001824  EE10 F022          	lfsr	1,34
   226   001828                     copy_data0:
   227   001828  0009               	tblrd		*+
   228   00182A  CFF5 FFEE          	movff	tablat,postinc0
   229   00182E  50E5               	movf	postdec1,w,c
   230   001830  50E1               	movf	fsr1l,w,c
   231   001832  E1FA               	bnz	copy_data0
   232                           
   233                           ; Initialize objects allocated to COMRAM (28 bytes)
   234                           ; load TBLPTR registers with __pidataCOMRAM
   235   001834  0E70               	movlw	low __pidataCOMRAM
   236   001836  6EF6               	movwf	tblptrl,c
   237   001838  0E19               	movlw	high __pidataCOMRAM
   238   00183A  6EF7               	movwf	tblptrh,c
   239   00183C  0E00               	movlw	low (__pidataCOMRAM shr (0+16))
   240   00183E  6EF8               	movwf	tblptru,c
   241   001840  EE00  F001         	lfsr	0,__pdataCOMRAM
   242   001844  EE10 F01C          	lfsr	1,28
   243   001848                     copy_data1:
   244   001848  0009               	tblrd		*+
   245   00184A  CFF5 FFEE          	movff	tablat,postinc0
   246   00184E  50E5               	movf	postdec1,w,c
   247   001850  50E1               	movf	fsr1l,w,c
   248   001852  E1FA               	bnz	copy_data1
   249                           
   250                           ; Clear objects allocated to COMRAM (26 bytes)
   251   001854  EE00  F01D         	lfsr	0,__pbssCOMRAM
   252   001858  0E1A               	movlw	26
   253   00185A                     clear_0:
   254   00185A  6AEE               	clrf	postinc0,c
   255   00185C  06E8               	decf	wreg,f,c
   256   00185E  E1FD               	bnz	clear_0
   257   001860                     end_of_initialization:
   258                           	callstack 0
   259   001860                     __end_of__initialization:
   260                           	callstack 0
   261   001860  904C               	bcf	int$flags,0,c	;clear compiler interrupt flag (level 1)
   262   001862  924C               	bcf	int$flags,1,c	;clear compiler interrupt flag (level 2)
   263   001864  0E00               	movlw	low (__Lmediumconst shr (0+16))
   264   001866  6EF8               	movwf	tblptru,c
   265   001868  0100               	movlb	0
   266   00186A  EF02  F00A         	goto	_main	;jump to C main() function
   267                           
   268                           	psect	bssCOMRAM
   269   00001D                     __pbssCOMRAM:
   270                           	callstack 0
   271   00001D                     _RB7_ISRS:
   272                           	callstack 0
   273   00001D                     	ds	4
   274   000021                     _RB6_ISRS:
   275                           	callstack 0
   276   000021                     	ds	4
   277   000025                     _RB5_ISRS:
   278                           	callstack 0
   279   000025                     	ds	4
   280   000029                     _RB4_ISRS:
   281                           	callstack 0
   282   000029                     	ds	4
   283   00002D                     _INT2_INTERRUPT_HANDLER:
   284                           	callstack 0
   285   00002D                     	ds	2
   286   00002F                     _INT1_INTERRUPT_HANDLER:
   287                           	callstack 0
   288   00002F                     	ds	2
   289   000031                     _INT0_INTERRUPT_HANDLER:
   290                           	callstack 0
   291   000031                     	ds	2
   292   000033                     led_toggle@F3171:
   293                           	callstack 0
   294   000033                     	ds	1
   295   000034                     led_turn_off@F3166:
   296                           	callstack 0
   297   000034                     	ds	1
   298   000035                     led_turn_on@F3161:
   299                           	callstack 0
   300   000035                     	ds	1
   301   000036                     led_initialize@F3156:
   302                           	callstack 0
   303   000036                     	ds	1
   304                           
   305                           	psect	dataCOMRAM
   306   000001                     __pdataCOMRAM:
   307                           	callstack 0
   308   000001                     _tris_registers:
   309                           	callstack 0
   310   000001                     	ds	10
   311   00000B                     _lat_registers:
   312                           	callstack 0
   313   00000B                     	ds	10
   314   000015                     _RB7_Flag:
   315                           	callstack 0
   316   000015                     	ds	1
   317   000016                     _RB6_Flag:
   318                           	callstack 0
   319   000016                     	ds	1
   320   000017                     _RB5_Flag:
   321                           	callstack 0
   322   000017                     	ds	1
   323   000018                     _RB4_Flag:
   324                           	callstack 0
   325   000018                     	ds	1
   326   000019                     _led4:
   327                           	callstack 0
   328   000019                     	ds	1
   329   00001A                     _led3:
   330                           	callstack 0
   331   00001A                     	ds	1
   332   00001B                     _led2:
   333                           	callstack 0
   334   00001B                     	ds	1
   335   00001C                     _led1:
   336                           	callstack 0
   337   00001C                     	ds	1
   338                           
   339                           	psect	dataBANK0
   340   000060                     __pdataBANK0:
   341                           	callstack 0
   342   000060                     _port_registers:
   343                           	callstack 0
   344   000060                     	ds	10
   345   00006A                     _RB7_obj:
   346                           	callstack 0
   347   00006A                     	ds	6
   348   000070                     _RB6_obj:
   349                           	callstack 0
   350   000070                     	ds	6
   351   000076                     _RB5_obj:
   352                           	callstack 0
   353   000076                     	ds	6
   354   00007C                     _RB4_obj:
   355                           	callstack 0
   356   00007C                     	ds	6
   357                           
   358                           	psect	cstackBANK0
   359   000082                     __pcstackBANK0:
   360                           	callstack 0
   361   000082                     gpio_pin_direction_initialize@_pin_config_t:
   362                           	callstack 0
   363   000082                     application_init@ret:
   364                           	callstack 0
   365   000082                     Interrupt_RBx_Priority_Init@int_obj:
   366                           	callstack 0
   367   000082                     Interrupt_RBx_Enable@int_obj:
   368                           	callstack 0
   369   000082                     Interrupt_RBx_Set_Interrupt_Handler@int_obj:
   370                           	callstack 0
   371                           
   372                           ; 1 bytes @ 0x0
   373   000082                     	ds	1
   374   000083                     ??_gpio_pin_direction_initialize:
   375   000083                     Interrupt_RBx_Set_Interrupt_Handler@ret:
   376                           	callstack 0
   377                           
   378                           ; 1 bytes @ 0x1
   379   000083                     	ds	1
   380   000084                     Interrupt_RBx_Priority_Init@ret:
   381                           	callstack 0
   382                           
   383                           ; 1 bytes @ 0x2
   384   000084                     	ds	4
   385   000088                     gpio_pin_direction_initialize@ret:
   386                           	callstack 0
   387                           
   388                           ; 1 bytes @ 0x6
   389   000088                     	ds	1
   390   000089                     gpio_pin_initialize@_pin_config_t:
   391                           	callstack 0
   392                           
   393                           ; 1 bytes @ 0x7
   394   000089                     	ds	1
   395   00008A                     ??_gpio_pin_initialize:
   396                           
   397                           ; 1 bytes @ 0x8
   398   00008A                     	ds	1
   399   00008B                     gpio_pin_initialize@ret:
   400                           	callstack 0
   401                           
   402                           ; 1 bytes @ 0x9
   403   00008B                     	ds	1
   404   00008C                     led_initialize@led:
   405                           	callstack 0
   406   00008C                     Interrupt_RBx_Pin_Init@int_obj:
   407                           	callstack 0
   408                           
   409                           ; 1 bytes @ 0xA
   410   00008C                     	ds	1
   411   00008D                     ??_led_initialize:
   412   00008D                     Interrupt_RBx_Pin_Init@ret:
   413                           	callstack 0
   414                           
   415                           ; 1 bytes @ 0xB
   416   00008D                     	ds	1
   417   00008E                     led_initialize@ret:
   418                           	callstack 0
   419   00008E                     Interrupt_RBx_Init@int_obj:
   420                           	callstack 0
   421                           
   422                           ; 1 bytes @ 0xC
   423   00008E                     	ds	1
   424   00008F                     led_initialize@pin:
   425                           	callstack 0
   426   00008F                     Interrupt_RBx_Init@ret:
   427                           	callstack 0
   428                           
   429                           ; 1 bytes @ 0xD
   430   00008F                     	ds	1
   431   000090                     main@ret:
   432                           	callstack 0
   433                           
   434                           ; 1 bytes @ 0xE
   435   000090                     	ds	1
   436                           
   437                           	psect	cstackCOMRAM
   438   000037                     __pcstackCOMRAM:
   439                           	callstack 0
   440   000037                     gpio_pin_write_logic@_pin_config_t:
   441                           	callstack 0
   442                           
   443                           ; 1 bytes @ 0x0
   444   000037                     	ds	1
   445   000038                     gpio_pin_write_logic@logic:
   446                           	callstack 0
   447                           
   448                           ; 1 bytes @ 0x1
   449   000038                     	ds	1
   450   000039                     ??_gpio_pin_write_logic:
   451                           
   452                           ; 1 bytes @ 0x2
   453   000039                     	ds	5
   454   00003E                     gpio_pin_write_logic@ret:
   455                           	callstack 0
   456                           
   457                           ; 1 bytes @ 0x7
   458   00003E                     	ds	1
   459   00003F                     led_turn_on@led:
   460                           	callstack 0
   461   00003F                     led_turn_off@led:
   462                           	callstack 0
   463                           
   464                           ; 1 bytes @ 0x8
   465   00003F                     	ds	1
   466   000040                     ??_led_turn_on:
   467   000040                     ??_led_turn_off:
   468                           
   469                           ; 1 bytes @ 0x9
   470   000040                     	ds	1
   471   000041                     led_turn_on@pin:
   472                           	callstack 0
   473   000041                     led_turn_off@pin:
   474                           	callstack 0
   475                           
   476                           ; 1 bytes @ 0xA
   477   000041                     	ds	1
   478   000042                     RB4_ISR@source:
   479                           	callstack 0
   480   000042                     RB5_ISR@source:
   481                           	callstack 0
   482   000042                     RB6_ISR@source:
   483                           	callstack 0
   484   000042                     RB7_ISR@source:
   485                           	callstack 0
   486                           
   487                           ; 1 bytes @ 0xB
   488   000042                     	ds	1
   489   000043                     ??_Interrupt_Manager_Low:
   490                           
   491                           ; 1 bytes @ 0xC
   492   000043                     	ds	9
   493                           
   494 ;;
   495 ;;Main: autosize = 0, tempsize = 0, incstack = 0, save=0
   496 ;;
   497 ;; *************** function _main *****************
   498 ;; Defined at:
   499 ;;		line 88 in file "app.c"
   500 ;; Parameters:    Size  Location     Type
   501 ;;		None
   502 ;; Auto vars:     Size  Location     Type
   503 ;;  ret             1   14[BANK0 ] unsigned char 
   504 ;; Return value:  Size  Location     Type
   505 ;;                  2  284[None  ] int 
   506 ;; Registers used:
   507 ;;		wreg, fsr2l, fsr2h, status,2, status,0, prodl, prodh, cstack
   508 ;; Tracked objects:
   509 ;;		On entry : 0/0
   510 ;;		On exit  : 0/0
   511 ;;		Unchanged: 0/0
   512 ;; Data sizes:     COMRAM   BANK0   BANK1   BANK2   BANK3   BANK4   BANK5   BANK6   BANK7   BANK8   BANK9  BANK10  BANK1
      +1  BANK12  BANK13  BANK14  BANK15
   513 ;;      Params:         0       0       0       0       0       0       0       0       0       0       0       0       
      +0       0       0       0       0
   514 ;;      Locals:         0       1       0       0       0       0       0       0       0       0       0       0       
      +0       0       0       0       0
   515 ;;      Temps:          0       0       0       0       0       0       0       0       0       0       0       0       
      +0       0       0       0       0
   516 ;;      Totals:         0       1       0       0       0       0       0       0       0       0       0       0       
      +0       0       0       0       0
   517 ;;Total ram usage:        1 bytes
   518 ;; Hardware stack levels required when called: 11
   519 ;; This function calls:
   520 ;;		_Interrupt_RBx_Init
   521 ;;		_application_init
   522 ;;		_led_initialize
   523 ;; This function is called by:
   524 ;;		Startup code after reset
   525 ;; This function uses a non-reentrant model
   526 ;;
   527                           
   528                           	psect	text0
   529   001404                     __ptext0:
   530                           	callstack 0
   531   001404                     _main:
   532                           	callstack 20
   533   001404                     
   534                           ;app.c: 90:     Std_ReturnType ret = application_init();
   535   001404  ECD4  F00C         	call	_application_init	;wreg free
   536   001408  0100               	movlb	0	; () banked
   537   00140A  6F90               	movwf	main@ret& (0+255),b
   538   00140C                     
   539                           ; BSR set to: 0
   540                           ;app.c: 92:     if ((Std_ReturnType)0x01u == ret)
   541   00140C  0590               	decf	main@ret& (0+255),w,b
   542   00140E  A4D8               	btfss	status,2,c
   543   001410  EF0C  F00A         	goto	u2561
   544   001414  EF0E  F00A         	goto	u2560
   545   001418                     u2561:
   546   001418  EF10  F00A         	goto	l2704
   547   00141C                     u2560:
   548   00141C  EF42  F00A         	goto	l286
   549   001420                     l2704:
   550                           
   551                           ; BSR set to: 0
   552                           ;app.c: 96:     ret |= Interrupt_RBx_Init(&RB4_obj);
   553   001420  0E7C               	movlw	low _RB4_obj
   554   001422  6F8E               	movwf	Interrupt_RBx_Init@int_obj& (0+255),b
   555   001424  EC37  F00C         	call	_Interrupt_RBx_Init	;wreg free
   556   001428  0100               	movlb	0	; () banked
   557   00142A  1390               	iorwf	main@ret& (0+255),f,b
   558                           
   559                           ;app.c: 97:     ret |= Interrupt_RBx_Init(&RB5_obj);
   560   00142C  0E76               	movlw	low _RB5_obj
   561   00142E  6F8E               	movwf	Interrupt_RBx_Init@int_obj& (0+255),b
   562   001430  EC37  F00C         	call	_Interrupt_RBx_Init	;wreg free
   563   001434  0100               	movlb	0	; () banked
   564   001436  1390               	iorwf	main@ret& (0+255),f,b
   565                           
   566                           ;app.c: 98:     ret |= Interrupt_RBx_Init(&RB6_obj);
   567   001438  0E70               	movlw	low _RB6_obj
   568   00143A  6F8E               	movwf	Interrupt_RBx_Init@int_obj& (0+255),b
   569   00143C  EC37  F00C         	call	_Interrupt_RBx_Init	;wreg free
   570   001440  0100               	movlb	0	; () banked
   571   001442  1390               	iorwf	main@ret& (0+255),f,b
   572                           
   573                           ;app.c: 99:     ret |= Interrupt_RBx_Init(&RB7_obj);
   574   001444  0E6A               	movlw	low _RB7_obj
   575   001446  6F8E               	movwf	Interrupt_RBx_Init@int_obj& (0+255),b
   576   001448  EC37  F00C         	call	_Interrupt_RBx_Init	;wreg free
   577   00144C  0100               	movlb	0	; () banked
   578   00144E  1390               	iorwf	main@ret& (0+255),f,b
   579                           
   580                           ;app.c: 101:     ret |= led_initialize(&led1);
   581   001450  0E1C               	movlw	low _led1
   582   001452  6F8C               	movwf	led_initialize@led& (0+255),b
   583   001454  EC44  F00A         	call	_led_initialize	;wreg free
   584   001458  0100               	movlb	0	; () banked
   585   00145A  1390               	iorwf	main@ret& (0+255),f,b
   586                           
   587                           ;app.c: 102:     ret |= led_initialize(&led2);
   588   00145C  0E1B               	movlw	low _led2
   589   00145E  6F8C               	movwf	led_initialize@led& (0+255),b
   590   001460  EC44  F00A         	call	_led_initialize	;wreg free
   591   001464  0100               	movlb	0	; () banked
   592   001466  1390               	iorwf	main@ret& (0+255),f,b
   593                           
   594                           ;app.c: 103:     ret |= led_initialize(&led3);
   595   001468  0E1A               	movlw	low _led3
   596   00146A  6F8C               	movwf	led_initialize@led& (0+255),b
   597   00146C  EC44  F00A         	call	_led_initialize	;wreg free
   598   001470  0100               	movlb	0	; () banked
   599   001472  1390               	iorwf	main@ret& (0+255),f,b
   600                           
   601                           ;app.c: 104:     ret |= led_initialize(&led4);
   602   001474  0E19               	movlw	low _led4
   603   001476  6F8C               	movwf	led_initialize@led& (0+255),b
   604   001478  EC44  F00A         	call	_led_initialize	;wreg free
   605   00147C  0100               	movlb	0	; () banked
   606   00147E  1390               	iorwf	main@ret& (0+255),f,b
   607   001480                     l287:
   608   001480  EF40  F00A         	goto	l287
   609   001484                     l286:
   610                           
   611                           ; BSR set to: 0
   612   001484  EF53  F001         	goto	start
   613   001488                     __end_of_main:
   614                           	callstack 0
   615                           
   616 ;; *************** function _led_initialize *****************
   617 ;; Defined at:
   618 ;;		line 36 in file "ECU_Layer/led/ecu_led.c"
   619 ;; Parameters:    Size  Location     Type
   620 ;;  led             1   10[BANK0 ] PTR const struct .
   621 ;;		 -> led4(1), led3(1), led2(1), led1(1), 
   622 ;; Auto vars:     Size  Location     Type
   623 ;;  pin             1   13[BANK0 ] struct .
   624 ;;  ret             1   12[BANK0 ] unsigned char 
   625 ;; Return value:  Size  Location     Type
   626 ;;                  1    wreg      unsigned char 
   627 ;; Registers used:
   628 ;;		wreg, fsr2l, fsr2h, status,2, status,0, prodl, prodh, cstack
   629 ;; Tracked objects:
   630 ;;		On entry : 0/0
   631 ;;		On exit  : 0/0
   632 ;;		Unchanged: 0/0
   633 ;; Data sizes:     COMRAM   BANK0   BANK1   BANK2   BANK3   BANK4   BANK5   BANK6   BANK7   BANK8   BANK9  BANK10  BANK1
      +1  BANK12  BANK13  BANK14  BANK15
   634 ;;      Params:         0       1       0       0       0       0       0       0       0       0       0       0       
      +0       0       0       0       0
   635 ;;      Locals:         0       2       0       0       0       0       0       0       0       0       0       0       
      +0       0       0       0       0
   636 ;;      Temps:          0       1       0       0       0       0       0       0       0       0       0       0       
      +0       0       0       0       0
   637 ;;      Totals:         0       4       0       0       0       0       0       0       0       0       0       0       
      +0       0       0       0       0
   638 ;;Total ram usage:        4 bytes
   639 ;; Hardware stack levels used: 1
   640 ;; Hardware stack levels required when called: 9
   641 ;; This function calls:
   642 ;;		_gpio_pin_initialize
   643 ;; This function is called by:
   644 ;;		_main
   645 ;; This function uses a non-reentrant model
   646 ;;
   647                           
   648                           	psect	text1
   649   001488                     __ptext1:
   650                           	callstack 0
   651   001488                     _led_initialize:
   652                           	callstack 21
   653   001488                     
   654                           ;ECU_Layer/led/ecu_led.c: 36: Std_ReturnType led_initialize(const led_t *led);ECU_Layer/
      +                          led/ecu_led.c: 37: {;ECU_Layer/led/ecu_led.c: 38:     Std_ReturnType ret = (Std_ReturnTy
      +                          pe)0x00u;
   655   001488  0E00               	movlw	0
   656   00148A  0100               	movlb	0	; () banked
   657   00148C  6F8E               	movwf	led_initialize@ret& (0+255),b
   658                           
   659                           ;ECU_Layer/led/ecu_led.c: 39:     if (((void*)0) == led)
   660   00148E  518C               	movf	led_initialize@led& (0+255),w,b
   661   001490  A4D8               	btfss	status,2,c
   662   001492  EF4D  F00A         	goto	u2501
   663   001496  EF4F  F00A         	goto	u2500
   664   00149A                     u2501:
   665   00149A  EF53  F00A         	goto	l9
   666   00149E                     u2500:
   667   00149E                     
   668                           ; BSR set to: 0
   669                           ;ECU_Layer/led/ecu_led.c: 40:     {;ECU_Layer/led/ecu_led.c: 41:         ret = (Std_Retu
      +                          rnType)0x01u;
   670   00149E  0E01               	movlw	1
   671   0014A0  6F8E               	movwf	led_initialize@ret& (0+255),b
   672                           
   673                           ;ECU_Layer/led/ecu_led.c: 42:     }
   674   0014A2  EF7C  F00A         	goto	l2648
   675   0014A6                     l9:
   676                           
   677                           ; BSR set to: 0
   678                           ;ECU_Layer/led/ecu_led.c: 44:     {;ECU_Layer/led/ecu_led.c: 45:         pin_config_t pi
      +                          n = {
   679   0014A6  C036  F08F         	movff	led_initialize@F3156,led_initialize@pin
   680   0014AA                     
   681                           ; BSR set to: 0
   682   0014AA  518C               	movf	led_initialize@led& (0+255),w,b
   683   0014AC  6ED9               	movwf	fsr2l,c
   684   0014AE  6ADA               	clrf	fsr2h,c
   685   0014B0  50DF               	movf	223,w,c
   686   0014B2  0B0F               	andlw	15
   687   0014B4  6F8D               	movwf	??_led_initialize& (0+255),b
   688   0014B6  518F               	movf	led_initialize@pin& (0+255),w,b
   689   0014B8  198D               	xorwf	??_led_initialize& (0+255),w,b
   690   0014BA  0BF8               	andlw	-8
   691   0014BC  198D               	xorwf	??_led_initialize& (0+255),w,b
   692   0014BE  6F8F               	movwf	led_initialize@pin& (0+255),b
   693   0014C0  518C               	movf	led_initialize@led& (0+255),w,b
   694   0014C2  6ED9               	movwf	fsr2l,c
   695   0014C4  6ADA               	clrf	fsr2h,c
   696   0014C6  38DF               	swapf	223,w,c
   697   0014C8  0B07               	andlw	7
   698   0014CA  6F8D               	movwf	??_led_initialize& (0+255),b
   699   0014CC  478D               	rlncf	??_led_initialize& (0+255),f,b
   700   0014CE  478D               	rlncf	??_led_initialize& (0+255),f,b
   701   0014D0  478D               	rlncf	??_led_initialize& (0+255),f,b
   702   0014D2  518F               	movf	led_initialize@pin& (0+255),w,b
   703   0014D4  198D               	xorwf	??_led_initialize& (0+255),w,b
   704   0014D6  0BC7               	andlw	-57
   705   0014D8  198D               	xorwf	??_led_initialize& (0+255),w,b
   706   0014DA  6F8F               	movwf	led_initialize@pin& (0+255),b
   707   0014DC                     
   708                           ; BSR set to: 0
   709   0014DC  9D8F               	bcf	led_initialize@pin& (0+255),6,b
   710   0014DE                     
   711                           ; BSR set to: 0
   712   0014DE  518C               	movf	led_initialize@led& (0+255),w,b
   713   0014E0  6ED9               	movwf	fsr2l,c
   714   0014E2  6ADA               	clrf	fsr2h,c
   715   0014E4  AEDF               	btfss	indf2,7,c
   716   0014E6  D002               	bra	u2515
   717   0014E8  8F8F               	bsf	led_initialize@pin& (0+255),7,b
   718   0014EA  D002               	bra	u2517
   719   0014EC                     u2515:
   720   0014EC  0100               	movlb	0	; () banked
   721   0014EE  9F8F               	bcf	led_initialize@pin& (0+255),7,b
   722   0014F0                     u2517:
   723   0014F0                     
   724                           ; BSR set to: 0
   725                           ;ECU_Layer/led/ecu_led.c: 51:         gpio_pin_initialize(&pin);
   726   0014F0  0E8F               	movlw	low led_initialize@pin
   727   0014F2  6F89               	movwf	gpio_pin_initialize@_pin_config_t& (0+255),b
   728   0014F4  EC60  F00C         	call	_gpio_pin_initialize	;wreg free
   729   0014F8                     l2648:
   730                           
   731                           ;ECU_Layer/led/ecu_led.c: 53:     return (ret);
   732   0014F8  0100               	movlb	0	; () banked
   733   0014FA  518E               	movf	led_initialize@ret& (0+255),w,b
   734   0014FC                     
   735                           ; BSR set to: 0
   736   0014FC  0012               	return		;funcret
   737   0014FE                     __end_of_led_initialize:
   738                           	callstack 0
   739                           
   740 ;; *************** function _application_init *****************
   741 ;; Defined at:
   742 ;;		line 111 in file "app.c"
   743 ;; Parameters:    Size  Location     Type
   744 ;;		None
   745 ;; Auto vars:     Size  Location     Type
   746 ;;  ret             1    0[BANK0 ] unsigned char 
   747 ;; Return value:  Size  Location     Type
   748 ;;                  1    wreg      unsigned char 
   749 ;; Registers used:
   750 ;;		wreg, status,2, cstack
   751 ;; Tracked objects:
   752 ;;		On entry : 0/0
   753 ;;		On exit  : 0/0
   754 ;;		Unchanged: 0/0
   755 ;; Data sizes:     COMRAM   BANK0   BANK1   BANK2   BANK3   BANK4   BANK5   BANK6   BANK7   BANK8   BANK9  BANK10  BANK1
      +1  BANK12  BANK13  BANK14  BANK15
   756 ;;      Params:         0       0       0       0       0       0       0       0       0       0       0       0       
      +0       0       0       0       0
   757 ;;      Locals:         0       1       0       0       0       0       0       0       0       0       0       0       
      +0       0       0       0       0
   758 ;;      Temps:          0       0       0       0       0       0       0       0       0       0       0       0       
      +0       0       0       0       0
   759 ;;      Totals:         0       1       0       0       0       0       0       0       0       0       0       0       
      +0       0       0       0       0
   760 ;;Total ram usage:        1 bytes
   761 ;; Hardware stack levels used: 1
   762 ;; Hardware stack levels required when called: 8
   763 ;; This function calls:
   764 ;;		_ecu_layer_initialize
   765 ;; This function is called by:
   766 ;;		_main
   767 ;; This function uses a non-reentrant model
   768 ;;
   769                           
   770                           	psect	text2
   771   0019A8                     __ptext2:
   772                           	callstack 0
   773   0019A8                     _application_init:
   774                           	callstack 22
   775   0019A8                     
   776                           ;app.c: 114:     ret = ecu_layer_initialize();
   777   0019A8  EC02  F00D         	call	_ecu_layer_initialize	;wreg free
   778   0019AC  0100               	movlb	0	; () banked
   779   0019AE  6F82               	movwf	application_init@ret& (0+255),b
   780   0019B0                     
   781                           ; BSR set to: 0
   782                           ;app.c: 116:     return (ret);
   783   0019B0  5182               	movf	application_init@ret& (0+255),w,b
   784   0019B2                     
   785                           ; BSR set to: 0
   786   0019B2  0012               	return		;funcret
   787   0019B4                     __end_of_application_init:
   788                           	callstack 0
   789                           
   790 ;; *************** function _ecu_layer_initialize *****************
   791 ;; Defined at:
   792 ;;		line 10 in file "ECU_Layer/ecu_layer_init.c"
   793 ;; Parameters:    Size  Location     Type
   794 ;;		None
   795 ;; Auto vars:     Size  Location     Type
   796 ;;  ret             1    0        unsigned char 
   797 ;; Return value:  Size  Location     Type
   798 ;;                  1    wreg      unsigned char 
   799 ;; Registers used:
   800 ;;		wreg, status,2
   801 ;; Tracked objects:
   802 ;;		On entry : 0/0
   803 ;;		On exit  : 0/0
   804 ;;		Unchanged: 0/0
   805 ;; Data sizes:     COMRAM   BANK0   BANK1   BANK2   BANK3   BANK4   BANK5   BANK6   BANK7   BANK8   BANK9  BANK10  BANK1
      +1  BANK12  BANK13  BANK14  BANK15
   806 ;;      Params:         0       0       0       0       0       0       0       0       0       0       0       0       
      +0       0       0       0       0
   807 ;;      Locals:         0       0       0       0       0       0       0       0       0       0       0       0       
      +0       0       0       0       0
   808 ;;      Temps:          0       0       0       0       0       0       0       0       0       0       0       0       
      +0       0       0       0       0
   809 ;;      Totals:         0       0       0       0       0       0       0       0       0       0       0       0       
      +0       0       0       0       0
   810 ;;Total ram usage:        0 bytes
   811 ;; Hardware stack levels used: 1
   812 ;; Hardware stack levels required when called: 7
   813 ;; This function calls:
   814 ;;		Nothing
   815 ;; This function is called by:
   816 ;;		_application_init
   817 ;; This function uses a non-reentrant model
   818 ;;
   819                           
   820                           	psect	text3
   821   001A04                     __ptext3:
   822                           	callstack 0
   823   001A04                     _ecu_layer_initialize:
   824                           	callstack 22
   825   001A04                     
   826                           ;ECU_Layer/ecu_layer_init.c: 18:     return (ret);
   827   001A04  0E00               	movlw	0
   828   001A06  0012               	return		;funcret
   829   001A08                     __end_of_ecu_layer_initialize:
   830                           	callstack 0
   831                           
   832 ;; *************** function _Interrupt_RBx_Init *****************
   833 ;; Defined at:
   834 ;;		line 34 in file "MCAL_Layer/Interrupt/mcal_RBx_external_interrupt.c"
   835 ;; Parameters:    Size  Location     Type
   836 ;;  int_obj         1   12[BANK0 ] PTR const struct .
   837 ;;		 -> RB7_obj(6), RB6_obj(6), RB5_obj(6), RB4_obj(6), 
   838 ;; Auto vars:     Size  Location     Type
   839 ;;  ret             1   13[BANK0 ] unsigned char 
   840 ;; Return value:  Size  Location     Type
   841 ;;                  1    wreg      unsigned char 
   842 ;; Registers used:
   843 ;;		wreg, fsr2l, fsr2h, status,2, status,0, prodl, prodh, cstack
   844 ;; Tracked objects:
   845 ;;		On entry : 0/0
   846 ;;		On exit  : 0/0
   847 ;;		Unchanged: 0/0
   848 ;; Data sizes:     COMRAM   BANK0   BANK1   BANK2   BANK3   BANK4   BANK5   BANK6   BANK7   BANK8   BANK9  BANK10  BANK1
      +1  BANK12  BANK13  BANK14  BANK15
   849 ;;      Params:         0       1       0       0       0       0       0       0       0       0       0       0       
      +0       0       0       0       0
   850 ;;      Locals:         0       1       0       0       0       0       0       0       0       0       0       0       
      +0       0       0       0       0
   851 ;;      Temps:          0       0       0       0       0       0       0       0       0       0       0       0       
      +0       0       0       0       0
   852 ;;      Totals:         0       2       0       0       0       0       0       0       0       0       0       0       
      +0       0       0       0       0
   853 ;;Total ram usage:        2 bytes
   854 ;; Hardware stack levels used: 1
   855 ;; Hardware stack levels required when called: 10
   856 ;; This function calls:
   857 ;;		_Interrupt_RBx_Enable
   858 ;;		_Interrupt_RBx_Pin_Init
   859 ;;		_Interrupt_RBx_Priority_Init
   860 ;;		_Interrupt_RBx_Set_Interrupt_Handler
   861 ;; This function is called by:
   862 ;;		_main
   863 ;; This function uses a non-reentrant model
   864 ;;
   865                           
   866                           	psect	text4
   867   00186E                     __ptext4:
   868                           	callstack 0
   869   00186E                     _Interrupt_RBx_Init:
   870                           	callstack 20
   871   00186E                     
   872                           ;MCAL_Layer/Interrupt/mcal_RBx_external_interrupt.c: 34: Std_ReturnType Interrupt_RBx_In
      +                          it(const interrupt_RBx_t *int_obj);MCAL_Layer/Interrupt/mcal_RBx_external_interrupt.c: 3
      +                          5: {;MCAL_Layer/Interrupt/mcal_RBx_external_interrupt.c: 36:     Std_ReturnType ret = (S
      +                          td_ReturnType)0x00u;
   873   00186E  0E00               	movlw	0
   874   001870  0100               	movlb	0	; () banked
   875   001872  6F8F               	movwf	Interrupt_RBx_Init@ret& (0+255),b
   876                           
   877                           ;MCAL_Layer/Interrupt/mcal_RBx_external_interrupt.c: 38:     if (int_obj == ((void*)0))
   878   001874  518E               	movf	Interrupt_RBx_Init@int_obj& (0+255),w,b
   879   001876  A4D8               	btfss	status,2,c
   880   001878  EF40  F00C         	goto	u2521
   881   00187C  EF42  F00C         	goto	u2520
   882   001880                     u2521:
   883   001880  EF45  F00C         	goto	l477
   884   001884                     u2520:
   885   001884                     
   886                           ; BSR set to: 0
   887                           ;MCAL_Layer/Interrupt/mcal_RBx_external_interrupt.c: 39:     {;MCAL_Layer/Interrupt/mcal
      +                          _RBx_external_interrupt.c: 40:         ret |= (Std_ReturnType)0x01u;
   888   001884  818F               	bsf	Interrupt_RBx_Init@ret& (0+255),0,b
   889                           
   890                           ;MCAL_Layer/Interrupt/mcal_RBx_external_interrupt.c: 41:     }
   891   001886  EF5D  F00C         	goto	l2672
   892   00188A                     l477:
   893                           
   894                           ; BSR set to: 0
   895                           ;MCAL_Layer/Interrupt/mcal_RBx_external_interrupt.c: 43:     {;MCAL_Layer/Interrupt/mcal
      +                          _RBx_external_interrupt.c: 45:         (INTCONbits.RBIE = 0);
   896   00188A  96F2               	bcf	242,3,c	;volatile
   897                           
   898                           ;MCAL_Layer/Interrupt/mcal_RBx_external_interrupt.c: 47:         (INTCONbits.RBIF = 0);
   899   00188C  90F2               	bcf	242,0,c	;volatile
   900   00188E                     
   901                           ; BSR set to: 0
   902                           ;MCAL_Layer/Interrupt/mcal_RBx_external_interrupt.c: 50:         ret |= Interrupt_RBx_Pr
      +                          iority_Init(int_obj);
   903   00188E  C08E  F082         	movff	Interrupt_RBx_Init@int_obj,Interrupt_RBx_Priority_Init@int_obj
   904   001892  EC6B  F00B         	call	_Interrupt_RBx_Priority_Init	;wreg free
   905   001896  0100               	movlb	0	; () banked
   906   001898  138F               	iorwf	Interrupt_RBx_Init@ret& (0+255),f,b
   907   00189A                     
   908                           ; BSR set to: 0
   909                           ;MCAL_Layer/Interrupt/mcal_RBx_external_interrupt.c: 53:         ret |= Interrupt_RBx_Pi
      +                          n_Init(int_obj);
   910   00189A  C08E  F08C         	movff	Interrupt_RBx_Init@int_obj,Interrupt_RBx_Pin_Init@int_obj
   911   00189E  ECB4  F009         	call	_Interrupt_RBx_Pin_Init	;wreg free
   912   0018A2  0100               	movlb	0	; () banked
   913   0018A4  138F               	iorwf	Interrupt_RBx_Init@ret& (0+255),f,b
   914   0018A6                     
   915                           ; BSR set to: 0
   916                           ;MCAL_Layer/Interrupt/mcal_RBx_external_interrupt.c: 55:         ret |= Interrupt_RBx_Se
      +                          t_Interrupt_Handler(int_obj);
   917   0018A6  C08E  F082         	movff	Interrupt_RBx_Init@int_obj,Interrupt_RBx_Set_Interrupt_Handler@int_obj
   918   0018AA  EC40  F009         	call	_Interrupt_RBx_Set_Interrupt_Handler	;wreg free
   919   0018AE  0100               	movlb	0	; () banked
   920   0018B0  138F               	iorwf	Interrupt_RBx_Init@ret& (0+255),f,b
   921   0018B2                     
   922                           ; BSR set to: 0
   923                           ;MCAL_Layer/Interrupt/mcal_RBx_external_interrupt.c: 57:         Interrupt_RBx_Enable(in
      +                          t_obj);
   924   0018B2  C08E  F082         	movff	Interrupt_RBx_Init@int_obj,Interrupt_RBx_Enable@int_obj
   925   0018B6  ECC6  F00C         	call	_Interrupt_RBx_Enable	;wreg free
   926   0018BA                     l2672:
   927                           
   928                           ;MCAL_Layer/Interrupt/mcal_RBx_external_interrupt.c: 59:     return (ret);
   929   0018BA  0100               	movlb	0	; () banked
   930   0018BC  518F               	movf	Interrupt_RBx_Init@ret& (0+255),w,b
   931   0018BE                     
   932                           ; BSR set to: 0
   933   0018BE  0012               	return		;funcret
   934   0018C0                     __end_of_Interrupt_RBx_Init:
   935                           	callstack 0
   936                           
   937 ;; *************** function _Interrupt_RBx_Set_Interrupt_Handler *****************
   938 ;; Defined at:
   939 ;;		line 191 in file "MCAL_Layer/Interrupt/mcal_RBx_external_interrupt.c"
   940 ;; Parameters:    Size  Location     Type
   941 ;;  int_obj         1    0[BANK0 ] PTR const struct .
   942 ;;		 -> RB7_obj(6), RB6_obj(6), RB5_obj(6), RB4_obj(6), 
   943 ;; Auto vars:     Size  Location     Type
   944 ;;  ret             1    1[BANK0 ] unsigned char 
   945 ;; Return value:  Size  Location     Type
   946 ;;                  1    wreg      unsigned char 
   947 ;; Registers used:
   948 ;;		wreg, fsr2l, fsr2h, status,2, status,0
   949 ;; Tracked objects:
   950 ;;		On entry : 0/0
   951 ;;		On exit  : 0/0
   952 ;;		Unchanged: 0/0
   953 ;; Data sizes:     COMRAM   BANK0   BANK1   BANK2   BANK3   BANK4   BANK5   BANK6   BANK7   BANK8   BANK9  BANK10  BANK1
      +1  BANK12  BANK13  BANK14  BANK15
   954 ;;      Params:         0       1       0       0       0       0       0       0       0       0       0       0       
      +0       0       0       0       0
   955 ;;      Locals:         0       1       0       0       0       0       0       0       0       0       0       0       
      +0       0       0       0       0
   956 ;;      Temps:          0       0       0       0       0       0       0       0       0       0       0       0       
      +0       0       0       0       0
   957 ;;      Totals:         0       2       0       0       0       0       0       0       0       0       0       0       
      +0       0       0       0       0
   958 ;;Total ram usage:        2 bytes
   959 ;; Hardware stack levels used: 1
   960 ;; Hardware stack levels required when called: 7
   961 ;; This function calls:
   962 ;;		Nothing
   963 ;; This function is called by:
   964 ;;		_Interrupt_RBx_Init
   965 ;; This function uses a non-reentrant model
   966 ;;
   967                           
   968                           	psect	text5
   969   001280                     __ptext5:
   970                           	callstack 0
   971   001280                     _Interrupt_RBx_Set_Interrupt_Handler:
   972                           	callstack 22
   973   001280                     
   974                           ;MCAL_Layer/Interrupt/mcal_RBx_external_interrupt.c: 191: static Std_ReturnType Interrup
      +                          t_RBx_Set_Interrupt_Handler(const interrupt_RBx_t *int_obj);MCAL_Layer/Interrupt/mcal_RB
      +                          x_external_interrupt.c: 192: {;MCAL_Layer/Interrupt/mcal_RBx_external_interrupt.c: 193: 
      +                              Std_ReturnType ret = (Std_ReturnType)0x00u;
   975   001280  0E00               	movlw	0
   976   001282  0100               	movlb	0	; () banked
   977   001284  6F83               	movwf	Interrupt_RBx_Set_Interrupt_Handler@ret& (0+255),b
   978                           
   979                           ;MCAL_Layer/Interrupt/mcal_RBx_external_interrupt.c: 195:     if (((void*)0) == int_obj)
   980   001286  5182               	movf	Interrupt_RBx_Set_Interrupt_Handler@int_obj& (0+255),w,b
   981   001288  A4D8               	btfss	status,2,c
   982   00128A  EF49  F009         	goto	u2481
   983   00128E  EF4B  F009         	goto	u2480
   984   001292                     u2481:
   985   001292  EF97  F009         	goto	l2626
   986   001296                     u2480:
   987   001296                     l2604:
   988                           
   989                           ; BSR set to: 0
   990                           ;MCAL_Layer/Interrupt/mcal_RBx_external_interrupt.c: 196:     {;MCAL_Layer/Interrupt/mca
      +                          l_RBx_external_interrupt.c: 197:         ret = (Std_ReturnType)0x01u;
   991   001296  0E01               	movlw	1
   992   001298  6F83               	movwf	Interrupt_RBx_Set_Interrupt_Handler@ret& (0+255),b
   993                           
   994                           ;MCAL_Layer/Interrupt/mcal_RBx_external_interrupt.c: 198:     }
   995   00129A  EFB2  F009         	goto	l2628
   996   00129E                     l2606:
   997                           
   998                           ; BSR set to: 0
   999                           ;MCAL_Layer/Interrupt/mcal_RBx_external_interrupt.c: 204:                 RB4_ISRS[0] = 
      +                          int_obj->EXT_interrupt_handler_High;
  1000   00129E  5182               	movf	Interrupt_RBx_Set_Interrupt_Handler@int_obj& (0+255),w,b
  1001   0012A0  6ED9               	movwf	fsr2l,c
  1002   0012A2  6ADA               	clrf	fsr2h,c
  1003   0012A4  CFDE F029          	movff	postinc2,_RB4_ISRS
  1004   0012A8  CFDD F02A          	movff	postdec2,_RB4_ISRS+1
  1005   0012AC                     
  1006                           ; BSR set to: 0
  1007                           ;MCAL_Layer/Interrupt/mcal_RBx_external_interrupt.c: 205:                 RB4_ISRS[1] = 
      +                          int_obj->EXT_interrupt_handler_Low;
  1008   0012AC  5182               	movf	Interrupt_RBx_Set_Interrupt_Handler@int_obj& (0+255),w,b
  1009   0012AE  6ED9               	movwf	fsr2l,c
  1010   0012B0  6ADA               	clrf	fsr2h,c
  1011   0012B2  0E02               	movlw	2
  1012   0012B4  26D9               	addwf	fsr2l,f,c
  1013   0012B6  CFDE F02B          	movff	postinc2,_RB4_ISRS+2
  1014   0012BA  CFDD F02C          	movff	postdec2,_RB4_ISRS+3
  1015                           
  1016                           ;MCAL_Layer/Interrupt/mcal_RBx_external_interrupt.c: 206:                 break;
  1017   0012BE  EFB2  F009         	goto	l2628
  1018   0012C2                     l2610:
  1019                           
  1020                           ; BSR set to: 0
  1021                           ;MCAL_Layer/Interrupt/mcal_RBx_external_interrupt.c: 208:                 RB5_ISRS[0] = 
      +                          int_obj->EXT_interrupt_handler_High;
  1022   0012C2  5182               	movf	Interrupt_RBx_Set_Interrupt_Handler@int_obj& (0+255),w,b
  1023   0012C4  6ED9               	movwf	fsr2l,c
  1024   0012C6  6ADA               	clrf	fsr2h,c
  1025   0012C8  CFDE F025          	movff	postinc2,_RB5_ISRS
  1026   0012CC  CFDD F026          	movff	postdec2,_RB5_ISRS+1
  1027   0012D0                     
  1028                           ; BSR set to: 0
  1029                           ;MCAL_Layer/Interrupt/mcal_RBx_external_interrupt.c: 209:                 RB5_ISRS[1] = 
      +                          int_obj->EXT_interrupt_handler_Low;
  1030   0012D0  5182               	movf	Interrupt_RBx_Set_Interrupt_Handler@int_obj& (0+255),w,b
  1031   0012D2  6ED9               	movwf	fsr2l,c
  1032   0012D4  6ADA               	clrf	fsr2h,c
  1033   0012D6  0E02               	movlw	2
  1034   0012D8  26D9               	addwf	fsr2l,f,c
  1035   0012DA  CFDE F027          	movff	postinc2,_RB5_ISRS+2
  1036   0012DE  CFDD F028          	movff	postdec2,_RB5_ISRS+3
  1037                           
  1038                           ;MCAL_Layer/Interrupt/mcal_RBx_external_interrupt.c: 210:                 break;
  1039   0012E2  EFB2  F009         	goto	l2628
  1040   0012E6                     l2614:
  1041                           
  1042                           ; BSR set to: 0
  1043                           ;MCAL_Layer/Interrupt/mcal_RBx_external_interrupt.c: 212:                 RB6_ISRS[0] = 
      +                          int_obj->EXT_interrupt_handler_High;
  1044   0012E6  5182               	movf	Interrupt_RBx_Set_Interrupt_Handler@int_obj& (0+255),w,b
  1045   0012E8  6ED9               	movwf	fsr2l,c
  1046   0012EA  6ADA               	clrf	fsr2h,c
  1047   0012EC  CFDE F021          	movff	postinc2,_RB6_ISRS
  1048   0012F0  CFDD F022          	movff	postdec2,_RB6_ISRS+1
  1049   0012F4                     
  1050                           ; BSR set to: 0
  1051                           ;MCAL_Layer/Interrupt/mcal_RBx_external_interrupt.c: 213:                 RB6_ISRS[1] = 
      +                          int_obj->EXT_interrupt_handler_Low;
  1052   0012F4  5182               	movf	Interrupt_RBx_Set_Interrupt_Handler@int_obj& (0+255),w,b
  1053   0012F6  6ED9               	movwf	fsr2l,c
  1054   0012F8  6ADA               	clrf	fsr2h,c
  1055   0012FA  0E02               	movlw	2
  1056   0012FC  26D9               	addwf	fsr2l,f,c
  1057   0012FE  CFDE F023          	movff	postinc2,_RB6_ISRS+2
  1058   001302  CFDD F024          	movff	postdec2,_RB6_ISRS+3
  1059                           
  1060                           ;MCAL_Layer/Interrupt/mcal_RBx_external_interrupt.c: 214:                 break;
  1061   001306  EFB2  F009         	goto	l2628
  1062   00130A                     l2618:
  1063                           
  1064                           ; BSR set to: 0
  1065                           ;MCAL_Layer/Interrupt/mcal_RBx_external_interrupt.c: 216:                 RB7_ISRS[0] = 
      +                          int_obj->EXT_interrupt_handler_High;
  1066   00130A  5182               	movf	Interrupt_RBx_Set_Interrupt_Handler@int_obj& (0+255),w,b
  1067   00130C  6ED9               	movwf	fsr2l,c
  1068   00130E  6ADA               	clrf	fsr2h,c
  1069   001310  CFDE F01D          	movff	postinc2,_RB7_ISRS
  1070   001314  CFDD F01E          	movff	postdec2,_RB7_ISRS+1
  1071   001318                     
  1072                           ; BSR set to: 0
  1073                           ;MCAL_Layer/Interrupt/mcal_RBx_external_interrupt.c: 217:                 RB7_ISRS[1] = 
      +                          int_obj->EXT_interrupt_handler_Low;
  1074   001318  5182               	movf	Interrupt_RBx_Set_Interrupt_Handler@int_obj& (0+255),w,b
  1075   00131A  6ED9               	movwf	fsr2l,c
  1076   00131C  6ADA               	clrf	fsr2h,c
  1077   00131E  0E02               	movlw	2
  1078   001320  26D9               	addwf	fsr2l,f,c
  1079   001322  CFDE F01F          	movff	postinc2,_RB7_ISRS+2
  1080   001326  CFDD F020          	movff	postdec2,_RB7_ISRS+3
  1081                           
  1082                           ;MCAL_Layer/Interrupt/mcal_RBx_external_interrupt.c: 218:                 break;
  1083   00132A  EFB2  F009         	goto	l2628
  1084   00132E                     l2626:
  1085                           
  1086                           ; BSR set to: 0
  1087   00132E  5182               	movf	Interrupt_RBx_Set_Interrupt_Handler@int_obj& (0+255),w,b
  1088   001330  6ED9               	movwf	fsr2l,c
  1089   001332  6ADA               	clrf	fsr2h,c
  1090   001334  0E04               	movlw	4
  1091   001336  26D9               	addwf	fsr2l,f,c
  1092   001338  30DF               	rrcf	223,w,c
  1093   00133A  32E8               	rrcf	wreg,f,c
  1094   00133C  32E8               	rrcf	wreg,f,c
  1095   00133E  0B07               	andlw	7
  1096                           
  1097                           ; Switch size 1, requested type "simple"
  1098                           ; Number of cases is 4, Range of values is 4 to 7
  1099                           ; switch strategies available:
  1100                           ; Name         Instructions Cycles
  1101                           ; simple_byte           13     7 (average)
  1102                           ;	Chosen strategy is simple_byte
  1103   001340  0A04               	xorlw	4	; case 4
  1104   001342  B4D8               	btfsc	status,2,c
  1105   001344  EF4F  F009         	goto	l2606
  1106   001348  0A01               	xorlw	1	; case 5
  1107   00134A  B4D8               	btfsc	status,2,c
  1108   00134C  EF61  F009         	goto	l2610
  1109   001350  0A03               	xorlw	3	; case 6
  1110   001352  B4D8               	btfsc	status,2,c
  1111   001354  EF73  F009         	goto	l2614
  1112   001358  0A01               	xorlw	1	; case 7
  1113   00135A  B4D8               	btfsc	status,2,c
  1114   00135C  EF85  F009         	goto	l2618
  1115   001360  EF4B  F009         	goto	l2604
  1116   001364                     l2628:
  1117                           
  1118                           ; BSR set to: 0
  1119                           ;MCAL_Layer/Interrupt/mcal_RBx_external_interrupt.c: 224:     return (ret);
  1120   001364  5183               	movf	Interrupt_RBx_Set_Interrupt_Handler@ret& (0+255),w,b
  1121   001366                     
  1122                           ; BSR set to: 0
  1123   001366  0012               	return		;funcret
  1124   001368                     __end_of_Interrupt_RBx_Set_Interrupt_Handler:
  1125                           	callstack 0
  1126                           
  1127 ;; *************** function _Interrupt_RBx_Priority_Init *****************
  1128 ;; Defined at:
  1129 ;;		line 89 in file "MCAL_Layer/Interrupt/mcal_RBx_external_interrupt.c"
  1130 ;; Parameters:    Size  Location     Type
  1131 ;;  int_obj         1    0[BANK0 ] PTR const struct .
  1132 ;;		 -> RB7_obj(6), RB6_obj(6), RB5_obj(6), RB4_obj(6), 
  1133 ;; Auto vars:     Size  Location     Type
  1134 ;;  ret             1    2[BANK0 ] unsigned char 
  1135 ;; Return value:  Size  Location     Type
  1136 ;;                  1    wreg      unsigned char 
  1137 ;; Registers used:
  1138 ;;		wreg, fsr2l, fsr2h, status,2, status,0
  1139 ;; Tracked objects:
  1140 ;;		On entry : 0/0
  1141 ;;		On exit  : 0/0
  1142 ;;		Unchanged: 0/0
  1143 ;; Data sizes:     COMRAM   BANK0   BANK1   BANK2   BANK3   BANK4   BANK5   BANK6   BANK7   BANK8   BANK9  BANK10  BANK1
      +1  BANK12  BANK13  BANK14  BANK15
  1144 ;;      Params:         0       1       0       0       0       0       0       0       0       0       0       0       
      +0       0       0       0       0
  1145 ;;      Locals:         0       1       0       0       0       0       0       0       0       0       0       0       
      +0       0       0       0       0
  1146 ;;      Temps:          0       1       0       0       0       0       0       0       0       0       0       0       
      +0       0       0       0       0
  1147 ;;      Totals:         0       3       0       0       0       0       0       0       0       0       0       0       
      +0       0       0       0       0
  1148 ;;Total ram usage:        3 bytes
  1149 ;; Hardware stack levels used: 1
  1150 ;; Hardware stack levels required when called: 7
  1151 ;; This function calls:
  1152 ;;		Nothing
  1153 ;; This function is called by:
  1154 ;;		_Interrupt_RBx_Init
  1155 ;; This function uses a non-reentrant model
  1156 ;;
  1157                           
  1158                           	psect	text6
  1159   0016D6                     __ptext6:
  1160                           	callstack 0
  1161   0016D6                     _Interrupt_RBx_Priority_Init:
  1162                           	callstack 22
  1163   0016D6                     
  1164                           ;MCAL_Layer/Interrupt/mcal_RBx_external_interrupt.c: 89: static Std_ReturnType Interrupt
      +                          _RBx_Priority_Init(const interrupt_RBx_t *int_obj);MCAL_Layer/Interrupt/mcal_RBx_externa
      +                          l_interrupt.c: 90: {;MCAL_Layer/Interrupt/mcal_RBx_external_interrupt.c: 91:     Std_Ret
      +                          urnType ret = (Std_ReturnType)0x00u;
  1165   0016D6  0E00               	movlw	0
  1166   0016D8  0100               	movlb	0	; () banked
  1167   0016DA  6F84               	movwf	Interrupt_RBx_Priority_Init@ret& (0+255),b
  1168                           
  1169                           ;MCAL_Layer/Interrupt/mcal_RBx_external_interrupt.c: 93:     if (((void*)0) == int_obj)
  1170   0016DC  5182               	movf	Interrupt_RBx_Priority_Init@int_obj& (0+255),w,b
  1171   0016DE  A4D8               	btfss	status,2,c
  1172   0016E0  EF74  F00B         	goto	u2441
  1173   0016E4  EF76  F00B         	goto	u2440
  1174   0016E8                     u2441:
  1175   0016E8  EF7A  F00B         	goto	l2566
  1176   0016EC                     u2440:
  1177   0016EC                     
  1178                           ; BSR set to: 0
  1179                           ;MCAL_Layer/Interrupt/mcal_RBx_external_interrupt.c: 94:     {;MCAL_Layer/Interrupt/mcal
      +                          _RBx_external_interrupt.c: 95:         ret = (Std_ReturnType)0x01u;
  1180   0016EC  0E01               	movlw	1
  1181   0016EE  6F84               	movwf	Interrupt_RBx_Priority_Init@ret& (0+255),b
  1182                           
  1183                           ;MCAL_Layer/Interrupt/mcal_RBx_external_interrupt.c: 96:     }
  1184   0016F0  EF9E  F00B         	goto	l2576
  1185   0016F4                     l2566:
  1186                           
  1187                           ; BSR set to: 0
  1188                           ;MCAL_Layer/Interrupt/mcal_RBx_external_interrupt.c: 98:     {;MCAL_Layer/Interrupt/mcal
      +                          _RBx_external_interrupt.c: 100:         if (INTERRUPT_LOW_PRIORITY == int_obj->priority)
  1189   0016F4  5182               	movf	Interrupt_RBx_Priority_Init@int_obj& (0+255),w,b
  1190   0016F6  6ED9               	movwf	fsr2l,c
  1191   0016F8  6ADA               	clrf	fsr2h,c
  1192   0016FA  0E05               	movlw	5
  1193   0016FC  26D9               	addwf	fsr2l,f,c
  1194   0016FE  50DF               	movf	indf2,w,c
  1195   001700  A4D8               	btfss	status,2,c
  1196   001702  EF85  F00B         	goto	u2451
  1197   001706  EF87  F00B         	goto	u2450
  1198   00170A                     u2451:
  1199   00170A  EF8C  F00B         	goto	l2570
  1200   00170E                     u2450:
  1201   00170E                     
  1202                           ; BSR set to: 0
  1203                           ;MCAL_Layer/Interrupt/mcal_RBx_external_interrupt.c: 101:         {;MCAL_Layer/Interrupt
      +                          /mcal_RBx_external_interrupt.c: 103:             (INTCONbits.GIEH = 1);
  1204   00170E  8EF2               	bsf	242,7,c	;volatile
  1205                           
  1206                           ;MCAL_Layer/Interrupt/mcal_RBx_external_interrupt.c: 104:             (INTCONbits.GIEL =
      +                           1);
  1207   001710  8CF2               	bsf	242,6,c	;volatile
  1208                           
  1209                           ;MCAL_Layer/Interrupt/mcal_RBx_external_interrupt.c: 105:             (INTCON2bits.RBIP 
      +                          = 0);
  1210   001712  90F1               	bcf	241,0,c	;volatile
  1211                           
  1212                           ;MCAL_Layer/Interrupt/mcal_RBx_external_interrupt.c: 106:         }
  1213   001714  EF9E  F00B         	goto	l2576
  1214   001718                     l2570:
  1215                           
  1216                           ; BSR set to: 0
  1217   001718  5182               	movf	Interrupt_RBx_Priority_Init@int_obj& (0+255),w,b
  1218   00171A  6ED9               	movwf	fsr2l,c
  1219   00171C  6ADA               	clrf	fsr2h,c
  1220   00171E  0E05               	movlw	5
  1221   001720  26D9               	addwf	fsr2l,f,c
  1222   001722  04DE               	decf	postinc2,w,c
  1223   001724  A4D8               	btfss	status,2,c
  1224   001726  EF97  F00B         	goto	u2461
  1225   00172A  EF99  F00B         	goto	u2460
  1226   00172E                     u2461:
  1227   00172E  EF9D  F00B         	goto	l2574
  1228   001732                     u2460:
  1229   001732                     
  1230                           ; BSR set to: 0
  1231                           ;MCAL_Layer/Interrupt/mcal_RBx_external_interrupt.c: 108:         {;MCAL_Layer/Interrupt
      +                          /mcal_RBx_external_interrupt.c: 109:             (INTCONbits.GIEH = 1);
  1232   001732  8EF2               	bsf	242,7,c	;volatile
  1233                           
  1234                           ;MCAL_Layer/Interrupt/mcal_RBx_external_interrupt.c: 110:             (INTCON2bits.RBIP 
      +                          = 1);
  1235   001734  80F1               	bsf	241,0,c	;volatile
  1236                           
  1237                           ;MCAL_Layer/Interrupt/mcal_RBx_external_interrupt.c: 111:         }
  1238   001736  EF9E  F00B         	goto	l2576
  1239   00173A                     l2574:
  1240                           
  1241                           ; BSR set to: 0
  1242                           ;MCAL_Layer/Interrupt/mcal_RBx_external_interrupt.c: 113:         {;MCAL_Layer/Interrupt
      +                          /mcal_RBx_external_interrupt.c: 114:             ret |= (Std_ReturnType)0x01u;
  1243   00173A  8184               	bsf	Interrupt_RBx_Priority_Init@ret& (0+255),0,b
  1244   00173C                     l2576:
  1245                           
  1246                           ; BSR set to: 0
  1247                           ;MCAL_Layer/Interrupt/mcal_RBx_external_interrupt.c: 118:     return (ret);
  1248   00173C  5184               	movf	Interrupt_RBx_Priority_Init@ret& (0+255),w,b
  1249   00173E                     
  1250                           ; BSR set to: 0
  1251   00173E  0012               	return		;funcret
  1252   001740                     __end_of_Interrupt_RBx_Priority_Init:
  1253                           	callstack 0
  1254                           
  1255 ;; *************** function _Interrupt_RBx_Pin_Init *****************
  1256 ;; Defined at:
  1257 ;;		line 126 in file "MCAL_Layer/Interrupt/mcal_RBx_external_interrupt.c"
  1258 ;; Parameters:    Size  Location     Type
  1259 ;;  int_obj         1   10[BANK0 ] PTR const struct .
  1260 ;;		 -> RB7_obj(6), RB6_obj(6), RB5_obj(6), RB4_obj(6), 
  1261 ;; Auto vars:     Size  Location     Type
  1262 ;;  ret             1   11[BANK0 ] unsigned char 
  1263 ;; Return value:  Size  Location     Type
  1264 ;;                  1    wreg      unsigned char 
  1265 ;; Registers used:
  1266 ;;		wreg, fsr2l, fsr2h, status,2, status,0, prodl, prodh, cstack
  1267 ;; Tracked objects:
  1268 ;;		On entry : 0/0
  1269 ;;		On exit  : 0/0
  1270 ;;		Unchanged: 0/0
  1271 ;; Data sizes:     COMRAM   BANK0   BANK1   BANK2   BANK3   BANK4   BANK5   BANK6   BANK7   BANK8   BANK9  BANK10  BANK1
      +1  BANK12  BANK13  BANK14  BANK15
  1272 ;;      Params:         0       1       0       0       0       0       0       0       0       0       0       0       
      +0       0       0       0       0
  1273 ;;      Locals:         0       1       0       0       0       0       0       0       0       0       0       0       
      +0       0       0       0       0
  1274 ;;      Temps:          0       0       0       0       0       0       0       0       0       0       0       0       
      +0       0       0       0       0
  1275 ;;      Totals:         0       2       0       0       0       0       0       0       0       0       0       0       
      +0       0       0       0       0
  1276 ;;Total ram usage:        2 bytes
  1277 ;; Hardware stack levels used: 1
  1278 ;; Hardware stack levels required when called: 9
  1279 ;; This function calls:
  1280 ;;		_gpio_pin_initialize
  1281 ;; This function is called by:
  1282 ;;		_Interrupt_RBx_Init
  1283 ;; This function uses a non-reentrant model
  1284 ;;
  1285                           
  1286                           	psect	text7
  1287   001368                     __ptext7:
  1288                           	callstack 0
  1289   001368                     _Interrupt_RBx_Pin_Init:
  1290                           	callstack 20
  1291   001368                     
  1292                           ;MCAL_Layer/Interrupt/mcal_RBx_external_interrupt.c: 130:     if (((void*)0) == int_obj)
  1293   001368  0100               	movlb	0	; () banked
  1294   00136A  518C               	movf	Interrupt_RBx_Pin_Init@int_obj& (0+255),w,b
  1295   00136C  A4D8               	btfss	status,2,c
  1296   00136E  EFBB  F009         	goto	u2471
  1297   001372  EFBD  F009         	goto	u2470
  1298   001376                     u2471:
  1299   001376  EFE5  F009         	goto	l2596
  1300   00137A                     u2470:
  1301   00137A                     l2582:
  1302                           
  1303                           ; BSR set to: 0
  1304                           ;MCAL_Layer/Interrupt/mcal_RBx_external_interrupt.c: 131:     {;MCAL_Layer/Interrupt/mca
      +                          l_RBx_external_interrupt.c: 132:         ret = (Std_ReturnType)0x01u;
  1305   00137A  0E01               	movlw	1
  1306   00137C  6F8D               	movwf	Interrupt_RBx_Pin_Init@ret& (0+255),b
  1307                           
  1308                           ;MCAL_Layer/Interrupt/mcal_RBx_external_interrupt.c: 133:     }
  1309   00137E  EF00  F00A         	goto	l2598
  1310   001382                     l2584:
  1311                           
  1312                           ; BSR set to: 0
  1313                           ;MCAL_Layer/Interrupt/mcal_RBx_external_interrupt.c: 139:                 ret = gpio_pin
      +                          _initialize(&(int_obj->mcu_pin));
  1314   001382  518C               	movf	Interrupt_RBx_Pin_Init@int_obj& (0+255),w,b
  1315   001384  0F04               	addlw	4
  1316   001386  6F89               	movwf	gpio_pin_initialize@_pin_config_t& (0+255),b
  1317   001388  EC60  F00C         	call	_gpio_pin_initialize	;wreg free
  1318   00138C  0100               	movlb	0	; () banked
  1319   00138E  6F8D               	movwf	Interrupt_RBx_Pin_Init@ret& (0+255),b
  1320                           
  1321                           ;MCAL_Layer/Interrupt/mcal_RBx_external_interrupt.c: 140:                 break;
  1322   001390  EF00  F00A         	goto	l2598
  1323   001394                     l2586:
  1324                           
  1325                           ; BSR set to: 0
  1326                           ;MCAL_Layer/Interrupt/mcal_RBx_external_interrupt.c: 142:                 ret = gpio_pin
      +                          _initialize(&(int_obj->mcu_pin));
  1327   001394  518C               	movf	Interrupt_RBx_Pin_Init@int_obj& (0+255),w,b
  1328   001396  0F04               	addlw	4
  1329   001398  6F89               	movwf	gpio_pin_initialize@_pin_config_t& (0+255),b
  1330   00139A  EC60  F00C         	call	_gpio_pin_initialize	;wreg free
  1331   00139E  0100               	movlb	0	; () banked
  1332   0013A0  6F8D               	movwf	Interrupt_RBx_Pin_Init@ret& (0+255),b
  1333                           
  1334                           ;MCAL_Layer/Interrupt/mcal_RBx_external_interrupt.c: 143:                 break;
  1335   0013A2  EF00  F00A         	goto	l2598
  1336   0013A6                     l2588:
  1337                           
  1338                           ; BSR set to: 0
  1339                           ;MCAL_Layer/Interrupt/mcal_RBx_external_interrupt.c: 145:                 ret = gpio_pin
      +                          _initialize(&(int_obj->mcu_pin));
  1340   0013A6  518C               	movf	Interrupt_RBx_Pin_Init@int_obj& (0+255),w,b
  1341   0013A8  0F04               	addlw	4
  1342   0013AA  6F89               	movwf	gpio_pin_initialize@_pin_config_t& (0+255),b
  1343   0013AC  EC60  F00C         	call	_gpio_pin_initialize	;wreg free
  1344   0013B0  0100               	movlb	0	; () banked
  1345   0013B2  6F8D               	movwf	Interrupt_RBx_Pin_Init@ret& (0+255),b
  1346                           
  1347                           ;MCAL_Layer/Interrupt/mcal_RBx_external_interrupt.c: 146:                 break;
  1348   0013B4  EF00  F00A         	goto	l2598
  1349   0013B8                     l2590:
  1350                           
  1351                           ; BSR set to: 0
  1352                           ;MCAL_Layer/Interrupt/mcal_RBx_external_interrupt.c: 148:                 ret = gpio_pin
      +                          _initialize(&(int_obj->mcu_pin));
  1353   0013B8  518C               	movf	Interrupt_RBx_Pin_Init@int_obj& (0+255),w,b
  1354   0013BA  0F04               	addlw	4
  1355   0013BC  6F89               	movwf	gpio_pin_initialize@_pin_config_t& (0+255),b
  1356   0013BE  EC60  F00C         	call	_gpio_pin_initialize	;wreg free
  1357   0013C2  0100               	movlb	0	; () banked
  1358   0013C4  6F8D               	movwf	Interrupt_RBx_Pin_Init@ret& (0+255),b
  1359                           
  1360                           ;MCAL_Layer/Interrupt/mcal_RBx_external_interrupt.c: 149:                 break;
  1361   0013C6  EF00  F00A         	goto	l2598
  1362   0013CA                     l2596:
  1363                           
  1364                           ; BSR set to: 0
  1365   0013CA  518C               	movf	Interrupt_RBx_Pin_Init@int_obj& (0+255),w,b
  1366   0013CC  6ED9               	movwf	fsr2l,c
  1367   0013CE  6ADA               	clrf	fsr2h,c
  1368   0013D0  0E04               	movlw	4
  1369   0013D2  26D9               	addwf	fsr2l,f,c
  1370   0013D4  30DF               	rrcf	223,w,c
  1371   0013D6  32E8               	rrcf	wreg,f,c
  1372   0013D8  32E8               	rrcf	wreg,f,c
  1373   0013DA  0B07               	andlw	7
  1374                           
  1375                           ; Switch size 1, requested type "simple"
  1376                           ; Number of cases is 4, Range of values is 4 to 7
  1377                           ; switch strategies available:
  1378                           ; Name         Instructions Cycles
  1379                           ; simple_byte           13     7 (average)
  1380                           ;	Chosen strategy is simple_byte
  1381   0013DC  0A04               	xorlw	4	; case 4
  1382   0013DE  B4D8               	btfsc	status,2,c
  1383   0013E0  EFC1  F009         	goto	l2584
  1384   0013E4  0A01               	xorlw	1	; case 5
  1385   0013E6  B4D8               	btfsc	status,2,c
  1386   0013E8  EFCA  F009         	goto	l2586
  1387   0013EC  0A03               	xorlw	3	; case 6
  1388   0013EE  B4D8               	btfsc	status,2,c
  1389   0013F0  EFD3  F009         	goto	l2588
  1390   0013F4  0A01               	xorlw	1	; case 7
  1391   0013F6  B4D8               	btfsc	status,2,c
  1392   0013F8  EFDC  F009         	goto	l2590
  1393   0013FC  EFBD  F009         	goto	l2582
  1394   001400                     l2598:
  1395                           
  1396                           ; BSR set to: 0
  1397                           ;MCAL_Layer/Interrupt/mcal_RBx_external_interrupt.c: 155:     return (ret);
  1398   001400  518D               	movf	Interrupt_RBx_Pin_Init@ret& (0+255),w,b
  1399   001402                     
  1400                           ; BSR set to: 0
  1401   001402  0012               	return		;funcret
  1402   001404                     __end_of_Interrupt_RBx_Pin_Init:
  1403                           	callstack 0
  1404                           
  1405 ;; *************** function _gpio_pin_initialize *****************
  1406 ;; Defined at:
  1407 ;;		line 17 in file "MCAL_Layer/GPIO/hal_gpio.c"
  1408 ;; Parameters:    Size  Location     Type
  1409 ;;  _pin_config_    1    7[BANK0 ] PTR const struct .
  1410 ;;		 -> RB7_obj(6), RB6_obj(6), RB5_obj(6), RB4_obj(6), 
  1411 ;;		 -> led_initialize@pin(1), 
  1412 ;; Auto vars:     Size  Location     Type
  1413 ;;  ret             1    9[BANK0 ] unsigned char 
  1414 ;; Return value:  Size  Location     Type
  1415 ;;                  1    wreg      unsigned char 
  1416 ;; Registers used:
  1417 ;;		wreg, fsr2l, fsr2h, status,2, status,0, prodl, prodh, cstack
  1418 ;; Tracked objects:
  1419 ;;		On entry : 0/0
  1420 ;;		On exit  : 0/0
  1421 ;;		Unchanged: 0/0
  1422 ;; Data sizes:     COMRAM   BANK0   BANK1   BANK2   BANK3   BANK4   BANK5   BANK6   BANK7   BANK8   BANK9  BANK10  BANK1
      +1  BANK12  BANK13  BANK14  BANK15
  1423 ;;      Params:         0       1       0       0       0       0       0       0       0       0       0       0       
      +0       0       0       0       0
  1424 ;;      Locals:         0       1       0       0       0       0       0       0       0       0       0       0       
      +0       0       0       0       0
  1425 ;;      Temps:          0       1       0       0       0       0       0       0       0       0       0       0       
      +0       0       0       0       0
  1426 ;;      Totals:         0       3       0       0       0       0       0       0       0       0       0       0       
      +0       0       0       0       0
  1427 ;;Total ram usage:        3 bytes
  1428 ;; Hardware stack levels used: 1
  1429 ;; Hardware stack levels required when called: 8
  1430 ;; This function calls:
  1431 ;;		_gpio_pin_direction_initialize
  1432 ;; This function is called by:
  1433 ;;		_led_initialize
  1434 ;;		_Interrupt_RBx_Pin_Init
  1435 ;;		_seven_segment_initialize
  1436 ;;		_Interrupt_INTx_Pin_Init
  1437 ;; This function uses a non-reentrant model
  1438 ;;
  1439                           
  1440                           	psect	text8
  1441   0018C0                     __ptext8:
  1442                           	callstack 0
  1443   0018C0                     _gpio_pin_initialize:
  1444                           	callstack 21
  1445   0018C0                     
  1446                           ;MCAL_Layer/GPIO/hal_gpio.c: 20:     if (((void*)0) == _pin_config_t || _pin_config_t->p
      +                          in > 8 - 1)
  1447   0018C0  0100               	movlb	0	; () banked
  1448   0018C2  5189               	movf	gpio_pin_initialize@_pin_config_t& (0+255),w,b
  1449   0018C4  B4D8               	btfsc	status,2,c
  1450   0018C6  EF67  F00C         	goto	u2421
  1451   0018CA  EF69  F00C         	goto	u2420
  1452   0018CE                     u2421:
  1453   0018CE  EF79  F00C         	goto	l2548
  1454   0018D2                     u2420:
  1455   0018D2                     
  1456                           ; BSR set to: 0
  1457   0018D2  5189               	movf	gpio_pin_initialize@_pin_config_t& (0+255),w,b
  1458   0018D4  6ED9               	movwf	fsr2l,c
  1459   0018D6  6ADA               	clrf	fsr2h,c
  1460   0018D8  30DF               	rrcf	223,w,c
  1461   0018DA  32E8               	rrcf	wreg,f,c
  1462   0018DC  32E8               	rrcf	wreg,f,c
  1463   0018DE  0B07               	andlw	7
  1464   0018E0  6F8A               	movwf	??_gpio_pin_initialize& (0+255),b
  1465   0018E2  0E07               	movlw	7
  1466   0018E4  658A               	cpfsgt	??_gpio_pin_initialize& (0+255),b
  1467   0018E6  EF77  F00C         	goto	u2431
  1468   0018EA  EF79  F00C         	goto	u2430
  1469   0018EE                     u2431:
  1470   0018EE  EF7D  F00C         	goto	l2550
  1471   0018F2                     u2430:
  1472   0018F2                     l2548:
  1473                           
  1474                           ; BSR set to: 0
  1475                           ;MCAL_Layer/GPIO/hal_gpio.c: 21:     {;MCAL_Layer/GPIO/hal_gpio.c: 22:         ret = (St
      +                          d_ReturnType)0x01u;
  1476   0018F2  0E01               	movlw	1
  1477   0018F4  6F8B               	movwf	gpio_pin_initialize@ret& (0+255),b
  1478                           
  1479                           ;MCAL_Layer/GPIO/hal_gpio.c: 23:     }
  1480   0018F6  EF83  F00C         	goto	l2552
  1481   0018FA                     l2550:
  1482                           
  1483                           ; BSR set to: 0
  1484                           ;MCAL_Layer/GPIO/hal_gpio.c: 25:     {;MCAL_Layer/GPIO/hal_gpio.c: 26:         ret = gpi
      +                          o_pin_direction_initialize(_pin_config_t);
  1485   0018FA  C089  F082         	movff	gpio_pin_initialize@_pin_config_t,gpio_pin_direction_initialize@_pin_config_t
  1486   0018FE  ECB4  F008         	call	_gpio_pin_direction_initialize	;wreg free
  1487   001902  0100               	movlb	0	; () banked
  1488   001904  6F8B               	movwf	gpio_pin_initialize@ret& (0+255),b
  1489   001906                     l2552:
  1490                           
  1491                           ; BSR set to: 0
  1492                           ;MCAL_Layer/GPIO/hal_gpio.c: 28:     return (ret);
  1493   001906  518B               	movf	gpio_pin_initialize@ret& (0+255),w,b
  1494   001908                     
  1495                           ; BSR set to: 0
  1496   001908  0012               	return		;funcret
  1497   00190A                     __end_of_gpio_pin_initialize:
  1498                           	callstack 0
  1499                           
  1500 ;; *************** function _gpio_pin_direction_initialize *****************
  1501 ;; Defined at:
  1502 ;;		line 38 in file "MCAL_Layer/GPIO/hal_gpio.c"
  1503 ;; Parameters:    Size  Location     Type
  1504 ;;  _pin_config_    1    0[BANK0 ] PTR const struct .
  1505 ;;		 -> RB7_obj(6), RB6_obj(6), RB5_obj(6), RB4_obj(6), 
  1506 ;;		 -> led_initialize@pin(1), 
  1507 ;; Auto vars:     Size  Location     Type
  1508 ;;  ret             1    6[BANK0 ] unsigned char 
  1509 ;; Return value:  Size  Location     Type
  1510 ;;                  1    wreg      unsigned char 
  1511 ;; Registers used:
  1512 ;;		wreg, fsr2l, fsr2h, status,2, status,0, prodl, prodh
  1513 ;; Tracked objects:
  1514 ;;		On entry : 0/0
  1515 ;;		On exit  : 0/0
  1516 ;;		Unchanged: 0/0
  1517 ;; Data sizes:     COMRAM   BANK0   BANK1   BANK2   BANK3   BANK4   BANK5   BANK6   BANK7   BANK8   BANK9  BANK10  BANK1
      +1  BANK12  BANK13  BANK14  BANK15
  1518 ;;      Params:         0       1       0       0       0       0       0       0       0       0       0       0       
      +0       0       0       0       0
  1519 ;;      Locals:         0       1       0       0       0       0       0       0       0       0       0       0       
      +0       0       0       0       0
  1520 ;;      Temps:          0       5       0       0       0       0       0       0       0       0       0       0       
      +0       0       0       0       0
  1521 ;;      Totals:         0       7       0       0       0       0       0       0       0       0       0       0       
      +0       0       0       0       0
  1522 ;;Total ram usage:        7 bytes
  1523 ;; Hardware stack levels used: 1
  1524 ;; Hardware stack levels required when called: 7
  1525 ;; This function calls:
  1526 ;;		Nothing
  1527 ;; This function is called by:
  1528 ;;		_gpio_pin_initialize
  1529 ;; This function uses a non-reentrant model
  1530 ;;
  1531                           
  1532                           	psect	text9
  1533   001168                     __ptext9:
  1534                           	callstack 0
  1535   001168                     _gpio_pin_direction_initialize:
  1536                           	callstack 21
  1537   001168                     
  1538                           ;MCAL_Layer/GPIO/hal_gpio.c: 38: Std_ReturnType gpio_pin_direction_initialize(const pin_
      +                          config_t *_pin_config_t);MCAL_Layer/GPIO/hal_gpio.c: 39: {;MCAL_Layer/GPIO/hal_gpio.c: 4
      +                          0:     Std_ReturnType ret = (Std_ReturnType)0x00u;
  1539   001168  0E00               	movlw	0
  1540   00116A  0100               	movlb	0	; () banked
  1541   00116C  6F88               	movwf	gpio_pin_direction_initialize@ret& (0+255),b
  1542                           
  1543                           ;MCAL_Layer/GPIO/hal_gpio.c: 42:     if (((void*)0) == _pin_config_t || _pin_config_t->p
      +                          in > 8 - 1)
  1544   00116E  5182               	movf	gpio_pin_direction_initialize@_pin_config_t& (0+255),w,b
  1545   001170  B4D8               	btfsc	status,2,c
  1546   001172  EFBD  F008         	goto	u2371
  1547   001176  EFBF  F008         	goto	u2370
  1548   00117A                     u2371:
  1549   00117A  EFCF  F008         	goto	l2528
  1550   00117E                     u2370:
  1551   00117E                     
  1552                           ; BSR set to: 0
  1553   00117E  5182               	movf	gpio_pin_direction_initialize@_pin_config_t& (0+255),w,b
  1554   001180  6ED9               	movwf	fsr2l,c
  1555   001182  6ADA               	clrf	fsr2h,c
  1556   001184  30DF               	rrcf	223,w,c
  1557   001186  32E8               	rrcf	wreg,f,c
  1558   001188  32E8               	rrcf	wreg,f,c
  1559   00118A  0B07               	andlw	7
  1560   00118C  6F83               	movwf	??_gpio_pin_direction_initialize& (0+255),b
  1561   00118E  0E07               	movlw	7
  1562   001190  6583               	cpfsgt	??_gpio_pin_direction_initialize& (0+255),b
  1563   001192  EFCD  F008         	goto	u2381
  1564   001196  EFCF  F008         	goto	u2380
  1565   00119A                     u2381:
  1566   00119A  EF28  F009         	goto	l2538
  1567   00119E                     u2380:
  1568   00119E                     l2528:
  1569                           
  1570                           ; BSR set to: 0
  1571                           ;MCAL_Layer/GPIO/hal_gpio.c: 43:     {;MCAL_Layer/GPIO/hal_gpio.c: 44:         ret = (St
      +                          d_ReturnType)0x01u;
  1572   00119E  0E01               	movlw	1
  1573   0011A0  6F88               	movwf	gpio_pin_direction_initialize@ret& (0+255),b
  1574                           
  1575                           ;MCAL_Layer/GPIO/hal_gpio.c: 45:     }
  1576   0011A2  EF3E  F009         	goto	l2540
  1577   0011A6                     l2530:
  1578                           
  1579                           ; BSR set to: 0
  1580                           ;MCAL_Layer/GPIO/hal_gpio.c: 51:                 (*tris_registers[_pin_config_t->port] |
      +                          = ((uint8)1 << _pin_config_t->pin));
  1581   0011A6  5182               	movf	gpio_pin_direction_initialize@_pin_config_t& (0+255),w,b
  1582   0011A8  6ED9               	movwf	fsr2l,c
  1583   0011AA  6ADA               	clrf	fsr2h,c
  1584   0011AC  30DF               	rrcf	223,w,c
  1585   0011AE  32E8               	rrcf	wreg,f,c
  1586   0011B0  32E8               	rrcf	wreg,f,c
  1587   0011B2  0B07               	andlw	7
  1588   0011B4  6F83               	movwf	??_gpio_pin_direction_initialize& (0+255),b
  1589   0011B6  0E01               	movlw	1
  1590   0011B8  6F84               	movwf	(??_gpio_pin_direction_initialize+1)& (0+255),b
  1591   0011BA  2B83               	incf	??_gpio_pin_direction_initialize& (0+255),f,b
  1592   0011BC  EFE2  F008         	goto	u2394
  1593   0011C0                     u2395:
  1594   0011C0  90D8               	bcf	status,0,c
  1595   0011C2  3784               	rlcf	(??_gpio_pin_direction_initialize+1)& (0+255),f,b
  1596   0011C4                     u2394:
  1597   0011C4  2F83               	decfsz	??_gpio_pin_direction_initialize& (0+255),f,b
  1598   0011C6  EFE0  F008         	goto	u2395
  1599   0011CA  0100               	movlb	0	; () banked
  1600   0011CC  5182               	movf	gpio_pin_direction_initialize@_pin_config_t& (0+255),w,b
  1601   0011CE  6ED9               	movwf	fsr2l,c
  1602   0011D0  6ADA               	clrf	fsr2h,c
  1603   0011D2  50DF               	movf	223,w,c
  1604   0011D4  0B07               	andlw	7
  1605   0011D6  0D02               	mullw	2
  1606   0011D8  50F3               	movf	243,w,c
  1607   0011DA  0F01               	addlw	low _tris_registers
  1608   0011DC  6ED9               	movwf	fsr2l,c
  1609   0011DE  6ADA               	clrf	fsr2h,c
  1610   0011E0  CFDE F085          	movff	postinc2,??_gpio_pin_direction_initialize+2
  1611   0011E4  CFDD F086          	movff	postdec2,??_gpio_pin_direction_initialize+3
  1612   0011E8  C085  FFD9         	movff	??_gpio_pin_direction_initialize+2,fsr2l
  1613   0011EC  C086  FFDA         	movff	??_gpio_pin_direction_initialize+3,fsr2h
  1614   0011F0  5184               	movf	(??_gpio_pin_direction_initialize+1)& (0+255),w,b
  1615   0011F2  12DF               	iorwf	indf2,f,c
  1616                           
  1617                           ;MCAL_Layer/GPIO/hal_gpio.c: 52:                 break;
  1618   0011F4  EF3E  F009         	goto	l2540
  1619   0011F8                     l2532:
  1620                           
  1621                           ; BSR set to: 0
  1622                           ;MCAL_Layer/GPIO/hal_gpio.c: 54:                 (*tris_registers[_pin_config_t->port] &
      +                          = ~((uint8)1 << _pin_config_t->pin));
  1623   0011F8  5182               	movf	gpio_pin_direction_initialize@_pin_config_t& (0+255),w,b
  1624   0011FA  6ED9               	movwf	fsr2l,c
  1625   0011FC  6ADA               	clrf	fsr2h,c
  1626   0011FE  30DF               	rrcf	223,w,c
  1627   001200  32E8               	rrcf	wreg,f,c
  1628   001202  32E8               	rrcf	wreg,f,c
  1629   001204  0B07               	andlw	7
  1630   001206  6F83               	movwf	??_gpio_pin_direction_initialize& (0+255),b
  1631   001208  0E01               	movlw	1
  1632   00120A  6F84               	movwf	(??_gpio_pin_direction_initialize+1)& (0+255),b
  1633   00120C  2B83               	incf	??_gpio_pin_direction_initialize& (0+255),f,b
  1634   00120E  EF0B  F009         	goto	u2404
  1635   001212                     u2405:
  1636   001212  90D8               	bcf	status,0,c
  1637   001214  3784               	rlcf	(??_gpio_pin_direction_initialize+1)& (0+255),f,b
  1638   001216                     u2404:
  1639   001216  2F83               	decfsz	??_gpio_pin_direction_initialize& (0+255),f,b
  1640   001218  EF09  F009         	goto	u2405
  1641   00121C  0100               	movlb	0	; () banked
  1642   00121E  5184               	movf	(??_gpio_pin_direction_initialize+1)& (0+255),w,b
  1643   001220  0AFF               	xorlw	255
  1644   001222  6F85               	movwf	(??_gpio_pin_direction_initialize+2)& (0+255),b
  1645   001224  5182               	movf	gpio_pin_direction_initialize@_pin_config_t& (0+255),w,b
  1646   001226  6ED9               	movwf	fsr2l,c
  1647   001228  6ADA               	clrf	fsr2h,c
  1648   00122A  50DF               	movf	223,w,c
  1649   00122C  0B07               	andlw	7
  1650   00122E  0D02               	mullw	2
  1651   001230  50F3               	movf	243,w,c
  1652   001232  0F01               	addlw	low _tris_registers
  1653   001234  6ED9               	movwf	fsr2l,c
  1654   001236  6ADA               	clrf	fsr2h,c
  1655   001238  CFDE F086          	movff	postinc2,??_gpio_pin_direction_initialize+3
  1656   00123C  CFDD F087          	movff	postdec2,??_gpio_pin_direction_initialize+4
  1657   001240  C086  FFD9         	movff	??_gpio_pin_direction_initialize+3,fsr2l
  1658   001244  C087  FFDA         	movff	??_gpio_pin_direction_initialize+4,fsr2h
  1659   001248  5185               	movf	(??_gpio_pin_direction_initialize+2)& (0+255),w,b
  1660   00124A  16DF               	andwf	indf2,f,c
  1661                           
  1662                           ;MCAL_Layer/GPIO/hal_gpio.c: 55:                 break;
  1663   00124C  EF3E  F009         	goto	l2540
  1664   001250                     l2538:
  1665                           
  1666                           ; BSR set to: 0
  1667   001250  5182               	movf	gpio_pin_direction_initialize@_pin_config_t& (0+255),w,b
  1668   001252  6ED9               	movwf	fsr2l,c
  1669   001254  6ADA               	clrf	fsr2h,c
  1670   001256  BCDF               	btfsc	indf2,6,c
  1671   001258  EF30  F009         	goto	u2411
  1672   00125C  EF33  F009         	goto	u2410
  1673   001260                     u2411:
  1674   001260  0E01               	movlw	1
  1675   001262  EF34  F009         	goto	u2416
  1676   001266                     u2410:
  1677   001266  0E00               	movlw	0
  1678   001268                     u2416:
  1679                           
  1680                           ; Switch size 1, requested type "simple"
  1681                           ; Number of cases is 2, Range of values is 0 to 1
  1682                           ; switch strategies available:
  1683                           ; Name         Instructions Cycles
  1684                           ; simple_byte            7     4 (average)
  1685                           ;	Chosen strategy is simple_byte
  1686   001268  0A00               	xorlw	0	; case 0
  1687   00126A  B4D8               	btfsc	status,2,c
  1688   00126C  EFFC  F008         	goto	l2532
  1689   001270  0A01               	xorlw	1	; case 1
  1690   001272  B4D8               	btfsc	status,2,c
  1691   001274  EFD3  F008         	goto	l2530
  1692   001278  EFCF  F008         	goto	l2528
  1693   00127C                     l2540:
  1694                           
  1695                           ; BSR set to: 0
  1696                           ;MCAL_Layer/GPIO/hal_gpio.c: 61:     return (ret);
  1697   00127C  5188               	movf	gpio_pin_direction_initialize@ret& (0+255),w,b
  1698   00127E                     
  1699                           ; BSR set to: 0
  1700   00127E  0012               	return		;funcret
  1701   001280                     __end_of_gpio_pin_direction_initialize:
  1702                           	callstack 0
  1703                           
  1704 ;; *************** function _Interrupt_RBx_Enable *****************
  1705 ;; Defined at:
  1706 ;;		line 162 in file "MCAL_Layer/Interrupt/mcal_RBx_external_interrupt.c"
  1707 ;; Parameters:    Size  Location     Type
  1708 ;;  int_obj         1    0[BANK0 ] PTR const struct .
  1709 ;;		 -> RB7_obj(6), RB6_obj(6), RB5_obj(6), RB4_obj(6), 
  1710 ;; Auto vars:     Size  Location     Type
  1711 ;;  ret             1    0        unsigned char 
  1712 ;; Return value:  Size  Location     Type
  1713 ;;                  1    wreg      unsigned char 
  1714 ;; Registers used:
  1715 ;;		wreg, status,2
  1716 ;; Tracked objects:
  1717 ;;		On entry : 0/0
  1718 ;;		On exit  : 0/0
  1719 ;;		Unchanged: 0/0
  1720 ;; Data sizes:     COMRAM   BANK0   BANK1   BANK2   BANK3   BANK4   BANK5   BANK6   BANK7   BANK8   BANK9  BANK10  BANK1
      +1  BANK12  BANK13  BANK14  BANK15
  1721 ;;      Params:         0       1       0       0       0       0       0       0       0       0       0       0       
      +0       0       0       0       0
  1722 ;;      Locals:         0       0       0       0       0       0       0       0       0       0       0       0       
      +0       0       0       0       0
  1723 ;;      Temps:          0       0       0       0       0       0       0       0       0       0       0       0       
      +0       0       0       0       0
  1724 ;;      Totals:         0       1       0       0       0       0       0       0       0       0       0       0       
      +0       0       0       0       0
  1725 ;;Total ram usage:        1 bytes
  1726 ;; Hardware stack levels used: 1
  1727 ;; Hardware stack levels required when called: 7
  1728 ;; This function calls:
  1729 ;;		Nothing
  1730 ;; This function is called by:
  1731 ;;		_Interrupt_RBx_Init
  1732 ;; This function uses a non-reentrant model
  1733 ;;
  1734                           
  1735                           	psect	text10
  1736   00198C                     __ptext10:
  1737                           	callstack 0
  1738   00198C                     _Interrupt_RBx_Enable:
  1739                           	callstack 22
  1740   00198C                     
  1741                           ;MCAL_Layer/Interrupt/mcal_RBx_external_interrupt.c: 166:     if (((void*)0) == int_obj)
  1742   00198C  0100               	movlb	0	; () banked
  1743   00198E  5182               	movf	Interrupt_RBx_Enable@int_obj& (0+255),w,b
  1744   001990  A4D8               	btfss	status,2,c
  1745   001992  EFCD  F00C         	goto	u2491
  1746   001996  EFCF  F00C         	goto	u2490
  1747   00199A                     u2491:
  1748   00199A  EFD1  F00C         	goto	l508
  1749   00199E                     u2490:
  1750   00199E                     
  1751                           ; BSR set to: 0
  1752                           ;MCAL_Layer/Interrupt/mcal_RBx_external_interrupt.c: 169:     }
  1753   00199E  EFD3  F00C         	goto	l510
  1754   0019A2                     l508:
  1755                           
  1756                           ; BSR set to: 0
  1757                           ;MCAL_Layer/Interrupt/mcal_RBx_external_interrupt.c: 171:     {;MCAL_Layer/Interrupt/mca
      +                          l_RBx_external_interrupt.c: 177:         (RCONbits.IPEN = 1);
  1758   0019A2  8ED0               	bsf	208,7,c	;volatile
  1759                           
  1760                           ;MCAL_Layer/Interrupt/mcal_RBx_external_interrupt.c: 179:         (INTCONbits.RBIE = 1);
  1761   0019A4  86F2               	bsf	242,3,c	;volatile
  1762   0019A6                     l510:
  1763                           
  1764                           ; BSR set to: 0
  1765   0019A6  0012               	return		;funcret
  1766   0019A8                     __end_of_Interrupt_RBx_Enable:
  1767                           	callstack 0
  1768                           
  1769 ;; *************** function _Interrupt_Manager_Low *****************
  1770 ;; Defined at:
  1771 ;;		line 31 in file "MCAL_Layer/Interrupt/mcal_interrupt_manager.c"
  1772 ;; Parameters:    Size  Location     Type
  1773 ;;		None
  1774 ;; Auto vars:     Size  Location     Type
  1775 ;;		None
  1776 ;; Return value:  Size  Location     Type
  1777 ;;                  1    wreg      void 
  1778 ;; Registers used:
  1779 ;;		wreg, fsr2l, fsr2h, status,2, status,0, pcl, pclath, pclatu, tosl, prodl, prodh, cstack
  1780 ;; Tracked objects:
  1781 ;;		On entry : 0/0
  1782 ;;		On exit  : 0/0
  1783 ;;		Unchanged: 0/0
  1784 ;; Data sizes:     COMRAM   BANK0   BANK1   BANK2   BANK3   BANK4   BANK5   BANK6   BANK7   BANK8   BANK9  BANK10  BANK1
      +1  BANK12  BANK13  BANK14  BANK15
  1785 ;;      Params:         0       0       0       0       0       0       0       0       0       0       0       0       
      +0       0       0       0       0
  1786 ;;      Locals:         0       0       0       0       0       0       0       0       0       0       0       0       
      +0       0       0       0       0
  1787 ;;      Temps:          9       0       0       0       0       0       0       0       0       0       0       0       
      +0       0       0       0       0
  1788 ;;      Totals:         9       0       0       0       0       0       0       0       0       0       0       0       
      +0       0       0       0       0
  1789 ;;Total ram usage:        9 bytes
  1790 ;; Hardware stack levels used: 1
  1791 ;; Hardware stack levels required when called: 6
  1792 ;; This function calls:
  1793 ;;		_INT1_ISR
  1794 ;;		_RB4_ISR
  1795 ;;		_RB5_ISR
  1796 ;;		_RB6_ISR
  1797 ;;		_RB7_ISR
  1798 ;; This function is called by:
  1799 ;;		Interrupt level 1
  1800 ;; This function uses a non-reentrant model
  1801 ;;
  1802                           
  1803                           	psect	intcodelo
  1804   000018                     __pintcodelo:
  1805                           	callstack 0
  1806   000018                     _Interrupt_Manager_Low:
  1807                           	callstack 20
  1808                           
  1809                           ; BSR set to: 0
  1810                           ;incstack = 0
  1811   000018  804C               	bsf	int$flags,0,c	;set compiler interrupt flag (level 1)
  1812   00001A  CFD8 F043          	movff	status,??_Interrupt_Manager_Low
  1813   00001E  CFE8 F044          	movff	wreg,??_Interrupt_Manager_Low+1
  1814   000022  CFE0 F045          	movff	bsr,??_Interrupt_Manager_Low+2
  1815   000026  CFFA F046          	movff	pclath,??_Interrupt_Manager_Low+3
  1816   00002A  CFFB F047          	movff	pclatu,??_Interrupt_Manager_Low+4
  1817   00002E  CFD9 F048          	movff	fsr2l,??_Interrupt_Manager_Low+5
  1818   000032  CFDA F049          	movff	fsr2h,??_Interrupt_Manager_Low+6
  1819   000036  CFF3 F04A          	movff	prodl,??_Interrupt_Manager_Low+7
  1820   00003A  CFF4 F04B          	movff	prodh,??_Interrupt_Manager_Low+8
  1821   00003E                     
  1822                           ;MCAL_Layer/Interrupt/mcal_interrupt_manager.c: 33:     if ((1 == INTCON3bits.INT1IE) &&
      +                           (1 == INTCON3bits.INT1IF))
  1823   00003E  A6F0               	btfss	240,3,c	;volatile
  1824   000040  EF24  F000         	goto	i1u200_21
  1825   000044  EF26  F000         	goto	i1u200_20
  1826   000048                     i1u200_21:
  1827   000048  EF2F  F000         	goto	i1l2388
  1828   00004C                     i1u200_20:
  1829   00004C  A0F0               	btfss	240,0,c	;volatile
  1830   00004E  EF2B  F000         	goto	i1u201_21
  1831   000052  EF2D  F000         	goto	i1u201_20
  1832   000056                     i1u201_21:
  1833   000056  EF2F  F000         	goto	i1l2388
  1834   00005A                     i1u201_20:
  1835   00005A                     
  1836                           ;MCAL_Layer/Interrupt/mcal_interrupt_manager.c: 34:     {;MCAL_Layer/Interrupt/mcal_inte
      +                          rrupt_manager.c: 35:         INT1_ISR();
  1837   00005A  EC04  F00D         	call	_INT1_ISR	;wreg free
  1838   00005E                     i1l2388:
  1839                           
  1840                           ;MCAL_Layer/Interrupt/mcal_interrupt_manager.c: 39:     if ((1 == INTCONbits.RBIE) && (1
      +                           == INTCONbits.RBIF) &&
  1841   00005E  A6F2               	btfss	242,3,c	;volatile
  1842   000060  EF34  F000         	goto	i1u202_21
  1843   000064  EF36  F000         	goto	i1u202_20
  1844   000068                     i1u202_21:
  1845   000068  EF51  F000         	goto	i1l2400
  1846   00006C                     i1u202_20:
  1847   00006C  A0F2               	btfss	242,0,c	;volatile
  1848   00006E  EF3B  F000         	goto	i1u203_21
  1849   000072  EF3D  F000         	goto	i1u203_20
  1850   000076                     i1u203_21:
  1851   000076  EF51  F000         	goto	i1l2400
  1852   00007A                     i1u203_20:
  1853   00007A  A881               	btfss	129,4,c	;volatile
  1854   00007C  EF42  F000         	goto	i1u204_21
  1855   000080  EF44  F000         	goto	i1u204_20
  1856   000084                     i1u204_21:
  1857   000084  EF51  F000         	goto	i1l2400
  1858   000088                     i1u204_20:
  1859   000088  0418               	decf	_RB4_Flag^0,w,c	;volatile
  1860   00008A  A4D8               	btfss	status,2,c
  1861   00008C  EF4A  F000         	goto	i1u205_21
  1862   000090  EF4C  F000         	goto	i1u205_20
  1863   000094                     i1u205_21:
  1864   000094  EF51  F000         	goto	i1l2400
  1865   000098                     i1u205_20:
  1866   000098                     
  1867                           ;MCAL_Layer/Interrupt/mcal_interrupt_manager.c: 41:     {;MCAL_Layer/Interrupt/mcal_inte
      +                          rrupt_manager.c: 42:         RB4_Flag = 0;
  1868   000098  0E00               	movlw	0
  1869   00009A  6E18               	movwf	_RB4_Flag^0,c	;volatile
  1870   00009C                     
  1871                           ;MCAL_Layer/Interrupt/mcal_interrupt_manager.c: 43:         RB4_ISR(0);
  1872   00009C  0E00               	movlw	0
  1873   00009E  EC30  F00B         	call	_RB4_ISR
  1874   0000A2                     i1l2400:
  1875                           
  1876                           ;MCAL_Layer/Interrupt/mcal_interrupt_manager.c: 45:     if ((1 == INTCONbits.RBIE) && (1
      +                           == INTCONbits.RBIF)&&
  1877   0000A2  A6F2               	btfss	242,3,c	;volatile
  1878   0000A4  EF56  F000         	goto	i1u206_21
  1879   0000A8  EF58  F000         	goto	i1u206_20
  1880   0000AC                     i1u206_21:
  1881   0000AC  EF73  F000         	goto	i1l2412
  1882   0000B0                     i1u206_20:
  1883   0000B0  A0F2               	btfss	242,0,c	;volatile
  1884   0000B2  EF5D  F000         	goto	i1u207_21
  1885   0000B6  EF5F  F000         	goto	i1u207_20
  1886   0000BA                     i1u207_21:
  1887   0000BA  EF73  F000         	goto	i1l2412
  1888   0000BE                     i1u207_20:
  1889   0000BE  B881               	btfsc	129,4,c	;volatile
  1890   0000C0  EF64  F000         	goto	i1u208_21
  1891   0000C4  EF66  F000         	goto	i1u208_20
  1892   0000C8                     i1u208_21:
  1893   0000C8  EF73  F000         	goto	i1l2412
  1894   0000CC                     i1u208_20:
  1895   0000CC  5018               	movf	_RB4_Flag^0,w,c	;volatile
  1896   0000CE  A4D8               	btfss	status,2,c
  1897   0000D0  EF6C  F000         	goto	i1u209_21
  1898   0000D4  EF6E  F000         	goto	i1u209_20
  1899   0000D8                     i1u209_21:
  1900   0000D8  EF73  F000         	goto	i1l2412
  1901   0000DC                     i1u209_20:
  1902   0000DC                     
  1903                           ;MCAL_Layer/Interrupt/mcal_interrupt_manager.c: 47:     {;MCAL_Layer/Interrupt/mcal_inte
      +                          rrupt_manager.c: 48:         RB4_Flag = 1;
  1904   0000DC  0E01               	movlw	1
  1905   0000DE  6E18               	movwf	_RB4_Flag^0,c	;volatile
  1906   0000E0                     
  1907                           ;MCAL_Layer/Interrupt/mcal_interrupt_manager.c: 49:         RB4_ISR(1);
  1908   0000E0  0E01               	movlw	1
  1909   0000E2  EC30  F00B         	call	_RB4_ISR
  1910   0000E6                     i1l2412:
  1911                           
  1912                           ;MCAL_Layer/Interrupt/mcal_interrupt_manager.c: 53:     if ((1 == INTCONbits.RBIE) && (1
      +                           == INTCONbits.RBIF) &&
  1913   0000E6  A6F2               	btfss	242,3,c	;volatile
  1914   0000E8  EF78  F000         	goto	i1u210_21
  1915   0000EC  EF7A  F000         	goto	i1u210_20
  1916   0000F0                     i1u210_21:
  1917   0000F0  EF95  F000         	goto	i1l2424
  1918   0000F4                     i1u210_20:
  1919   0000F4  A0F2               	btfss	242,0,c	;volatile
  1920   0000F6  EF7F  F000         	goto	i1u211_21
  1921   0000FA  EF81  F000         	goto	i1u211_20
  1922   0000FE                     i1u211_21:
  1923   0000FE  EF95  F000         	goto	i1l2424
  1924   000102                     i1u211_20:
  1925   000102  AA81               	btfss	129,5,c	;volatile
  1926   000104  EF86  F000         	goto	i1u212_21
  1927   000108  EF88  F000         	goto	i1u212_20
  1928   00010C                     i1u212_21:
  1929   00010C  EF95  F000         	goto	i1l2424
  1930   000110                     i1u212_20:
  1931   000110  0417               	decf	_RB5_Flag^0,w,c	;volatile
  1932   000112  A4D8               	btfss	status,2,c
  1933   000114  EF8E  F000         	goto	i1u213_21
  1934   000118  EF90  F000         	goto	i1u213_20
  1935   00011C                     i1u213_21:
  1936   00011C  EF95  F000         	goto	i1l2424
  1937   000120                     i1u213_20:
  1938   000120                     
  1939                           ;MCAL_Layer/Interrupt/mcal_interrupt_manager.c: 55:     {;MCAL_Layer/Interrupt/mcal_inte
      +                          rrupt_manager.c: 56:         RB5_Flag = 0;
  1940   000120  0E00               	movlw	0
  1941   000122  6E17               	movwf	_RB5_Flag^0,c	;volatile
  1942   000124                     
  1943                           ;MCAL_Layer/Interrupt/mcal_interrupt_manager.c: 57:         RB5_ISR(0);
  1944   000124  0E00               	movlw	0
  1945   000126  ECF5  F00A         	call	_RB5_ISR
  1946   00012A                     i1l2424:
  1947                           
  1948                           ;MCAL_Layer/Interrupt/mcal_interrupt_manager.c: 59:     if ((1 == INTCONbits.RBIE) && (1
      +                           == INTCONbits.RBIF) &&
  1949   00012A  A6F2               	btfss	242,3,c	;volatile
  1950   00012C  EF9A  F000         	goto	i1u214_21
  1951   000130  EF9C  F000         	goto	i1u214_20
  1952   000134                     i1u214_21:
  1953   000134  EFB7  F000         	goto	i1l2436
  1954   000138                     i1u214_20:
  1955   000138  A0F2               	btfss	242,0,c	;volatile
  1956   00013A  EFA1  F000         	goto	i1u215_21
  1957   00013E  EFA3  F000         	goto	i1u215_20
  1958   000142                     i1u215_21:
  1959   000142  EFB7  F000         	goto	i1l2436
  1960   000146                     i1u215_20:
  1961   000146  BA81               	btfsc	129,5,c	;volatile
  1962   000148  EFA8  F000         	goto	i1u216_21
  1963   00014C  EFAA  F000         	goto	i1u216_20
  1964   000150                     i1u216_21:
  1965   000150  EFB7  F000         	goto	i1l2436
  1966   000154                     i1u216_20:
  1967   000154  5017               	movf	_RB5_Flag^0,w,c	;volatile
  1968   000156  A4D8               	btfss	status,2,c
  1969   000158  EFB0  F000         	goto	i1u217_21
  1970   00015C  EFB2  F000         	goto	i1u217_20
  1971   000160                     i1u217_21:
  1972   000160  EFB7  F000         	goto	i1l2436
  1973   000164                     i1u217_20:
  1974   000164                     
  1975                           ;MCAL_Layer/Interrupt/mcal_interrupt_manager.c: 61:     {;MCAL_Layer/Interrupt/mcal_inte
      +                          rrupt_manager.c: 62:         RB5_Flag = 1;
  1976   000164  0E01               	movlw	1
  1977   000166  6E17               	movwf	_RB5_Flag^0,c	;volatile
  1978   000168                     
  1979                           ;MCAL_Layer/Interrupt/mcal_interrupt_manager.c: 63:         RB5_ISR(1);
  1980   000168  0E01               	movlw	1
  1981   00016A  ECF5  F00A         	call	_RB5_ISR
  1982   00016E                     i1l2436:
  1983                           
  1984                           ;MCAL_Layer/Interrupt/mcal_interrupt_manager.c: 66:     if ((1 == INTCONbits.RBIE) && (1
      +                           == INTCONbits.RBIF) &&
  1985   00016E  A6F2               	btfss	242,3,c	;volatile
  1986   000170  EFBC  F000         	goto	i1u218_21
  1987   000174  EFBE  F000         	goto	i1u218_20
  1988   000178                     i1u218_21:
  1989   000178  EFD9  F000         	goto	i1l2448
  1990   00017C                     i1u218_20:
  1991   00017C  A0F2               	btfss	242,0,c	;volatile
  1992   00017E  EFC3  F000         	goto	i1u219_21
  1993   000182  EFC5  F000         	goto	i1u219_20
  1994   000186                     i1u219_21:
  1995   000186  EFD9  F000         	goto	i1l2448
  1996   00018A                     i1u219_20:
  1997   00018A  AC81               	btfss	129,6,c	;volatile
  1998   00018C  EFCA  F000         	goto	i1u220_21
  1999   000190  EFCC  F000         	goto	i1u220_20
  2000   000194                     i1u220_21:
  2001   000194  EFD9  F000         	goto	i1l2448
  2002   000198                     i1u220_20:
  2003   000198  0416               	decf	_RB6_Flag^0,w,c	;volatile
  2004   00019A  A4D8               	btfss	status,2,c
  2005   00019C  EFD2  F000         	goto	i1u221_21
  2006   0001A0  EFD4  F000         	goto	i1u221_20
  2007   0001A4                     i1u221_21:
  2008   0001A4  EFD9  F000         	goto	i1l2448
  2009   0001A8                     i1u221_20:
  2010   0001A8                     
  2011                           ;MCAL_Layer/Interrupt/mcal_interrupt_manager.c: 68:     {;MCAL_Layer/Interrupt/mcal_inte
      +                          rrupt_manager.c: 69:         RB6_Flag = 0;
  2012   0001A8  0E00               	movlw	0
  2013   0001AA  6E16               	movwf	_RB6_Flag^0,c	;volatile
  2014   0001AC                     
  2015                           ;MCAL_Layer/Interrupt/mcal_interrupt_manager.c: 70:         RB6_ISR(0);
  2016   0001AC  0E00               	movlw	0
  2017   0001AE  ECBA  F00A         	call	_RB6_ISR
  2018   0001B2                     i1l2448:
  2019                           
  2020                           ;MCAL_Layer/Interrupt/mcal_interrupt_manager.c: 72:     if ((1 == INTCONbits.RBIE) && (1
      +                           == INTCONbits.RBIF) &&
  2021   0001B2  A6F2               	btfss	242,3,c	;volatile
  2022   0001B4  EFDE  F000         	goto	i1u222_21
  2023   0001B8  EFE0  F000         	goto	i1u222_20
  2024   0001BC                     i1u222_21:
  2025   0001BC  EFFB  F000         	goto	i1l2460
  2026   0001C0                     i1u222_20:
  2027   0001C0  A0F2               	btfss	242,0,c	;volatile
  2028   0001C2  EFE5  F000         	goto	i1u223_21
  2029   0001C6  EFE7  F000         	goto	i1u223_20
  2030   0001CA                     i1u223_21:
  2031   0001CA  EFFB  F000         	goto	i1l2460
  2032   0001CE                     i1u223_20:
  2033   0001CE  BC81               	btfsc	129,6,c	;volatile
  2034   0001D0  EFEC  F000         	goto	i1u224_21
  2035   0001D4  EFEE  F000         	goto	i1u224_20
  2036   0001D8                     i1u224_21:
  2037   0001D8  EFFB  F000         	goto	i1l2460
  2038   0001DC                     i1u224_20:
  2039   0001DC  5016               	movf	_RB6_Flag^0,w,c	;volatile
  2040   0001DE  A4D8               	btfss	status,2,c
  2041   0001E0  EFF4  F000         	goto	i1u225_21
  2042   0001E4  EFF6  F000         	goto	i1u225_20
  2043   0001E8                     i1u225_21:
  2044   0001E8  EFFB  F000         	goto	i1l2460
  2045   0001EC                     i1u225_20:
  2046   0001EC                     
  2047                           ;MCAL_Layer/Interrupt/mcal_interrupt_manager.c: 74:     {;MCAL_Layer/Interrupt/mcal_inte
      +                          rrupt_manager.c: 75:         RB6_Flag = 1;
  2048   0001EC  0E01               	movlw	1
  2049   0001EE  6E16               	movwf	_RB6_Flag^0,c	;volatile
  2050   0001F0                     
  2051                           ;MCAL_Layer/Interrupt/mcal_interrupt_manager.c: 76:         RB6_ISR(1);
  2052   0001F0  0E01               	movlw	1
  2053   0001F2  ECBA  F00A         	call	_RB6_ISR
  2054   0001F6                     i1l2460:
  2055                           
  2056                           ;MCAL_Layer/Interrupt/mcal_interrupt_manager.c: 79:     if ((1 == INTCONbits.RBIE) && (1
      +                           == INTCONbits.RBIF) &&
  2057   0001F6  A6F2               	btfss	242,3,c	;volatile
  2058   0001F8  EF00  F001         	goto	i1u226_21
  2059   0001FC  EF02  F001         	goto	i1u226_20
  2060   000200                     i1u226_21:
  2061   000200  EF1D  F001         	goto	i1l2472
  2062   000204                     i1u226_20:
  2063   000204  A0F2               	btfss	242,0,c	;volatile
  2064   000206  EF07  F001         	goto	i1u227_21
  2065   00020A  EF09  F001         	goto	i1u227_20
  2066   00020E                     i1u227_21:
  2067   00020E  EF1D  F001         	goto	i1l2472
  2068   000212                     i1u227_20:
  2069   000212  AE81               	btfss	129,7,c	;volatile
  2070   000214  EF0E  F001         	goto	i1u228_21
  2071   000218  EF10  F001         	goto	i1u228_20
  2072   00021C                     i1u228_21:
  2073   00021C  EF1D  F001         	goto	i1l2472
  2074   000220                     i1u228_20:
  2075   000220  0415               	decf	_RB7_Flag^0,w,c	;volatile
  2076   000222  A4D8               	btfss	status,2,c
  2077   000224  EF16  F001         	goto	i1u229_21
  2078   000228  EF18  F001         	goto	i1u229_20
  2079   00022C                     i1u229_21:
  2080   00022C  EF1D  F001         	goto	i1l2472
  2081   000230                     i1u229_20:
  2082   000230                     
  2083                           ;MCAL_Layer/Interrupt/mcal_interrupt_manager.c: 81:     {;MCAL_Layer/Interrupt/mcal_inte
      +                          rrupt_manager.c: 82:         RB7_Flag = 0;
  2084   000230  0E00               	movlw	0
  2085   000232  6E15               	movwf	_RB7_Flag^0,c	;volatile
  2086   000234                     
  2087                           ;MCAL_Layer/Interrupt/mcal_interrupt_manager.c: 83:         RB7_ISR(0);
  2088   000234  0E00               	movlw	0
  2089   000236  EC7F  F00A         	call	_RB7_ISR
  2090   00023A                     i1l2472:
  2091                           
  2092                           ;MCAL_Layer/Interrupt/mcal_interrupt_manager.c: 85:     if ((1 == INTCONbits.RBIE) && (1
      +                           == INTCONbits.RBIF) &&
  2093   00023A  A6F2               	btfss	242,3,c	;volatile
  2094   00023C  EF22  F001         	goto	i1u230_21
  2095   000240  EF24  F001         	goto	i1u230_20
  2096   000244                     i1u230_21:
  2097   000244  EF3F  F001         	goto	i1l228
  2098   000248                     i1u230_20:
  2099   000248  A0F2               	btfss	242,0,c	;volatile
  2100   00024A  EF29  F001         	goto	i1u231_21
  2101   00024E  EF2B  F001         	goto	i1u231_20
  2102   000252                     i1u231_21:
  2103   000252  EF3F  F001         	goto	i1l228
  2104   000256                     i1u231_20:
  2105   000256  BE81               	btfsc	129,7,c	;volatile
  2106   000258  EF30  F001         	goto	i1u232_21
  2107   00025C  EF32  F001         	goto	i1u232_20
  2108   000260                     i1u232_21:
  2109   000260  EF3F  F001         	goto	i1l228
  2110   000264                     i1u232_20:
  2111   000264  5015               	movf	_RB7_Flag^0,w,c	;volatile
  2112   000266  A4D8               	btfss	status,2,c
  2113   000268  EF38  F001         	goto	i1u233_21
  2114   00026C  EF3A  F001         	goto	i1u233_20
  2115   000270                     i1u233_21:
  2116   000270  EF3F  F001         	goto	i1l228
  2117   000274                     i1u233_20:
  2118   000274                     
  2119                           ;MCAL_Layer/Interrupt/mcal_interrupt_manager.c: 87:     {;MCAL_Layer/Interrupt/mcal_inte
      +                          rrupt_manager.c: 88:         RB7_Flag = 1;
  2120   000274  0E01               	movlw	1
  2121   000276  6E15               	movwf	_RB7_Flag^0,c	;volatile
  2122   000278                     
  2123                           ;MCAL_Layer/Interrupt/mcal_interrupt_manager.c: 89:         RB7_ISR(1);
  2124   000278  0E01               	movlw	1
  2125   00027A  EC7F  F00A         	call	_RB7_ISR
  2126   00027E                     i1l228:
  2127   00027E  C04B  FFF4         	movff	??_Interrupt_Manager_Low+8,prodh
  2128   000282  C04A  FFF3         	movff	??_Interrupt_Manager_Low+7,prodl
  2129   000286  C049  FFDA         	movff	??_Interrupt_Manager_Low+6,fsr2h
  2130   00028A  C048  FFD9         	movff	??_Interrupt_Manager_Low+5,fsr2l
  2131   00028E  C047  FFFB         	movff	??_Interrupt_Manager_Low+4,pclatu
  2132   000292  C046  FFFA         	movff	??_Interrupt_Manager_Low+3,pclath
  2133   000296  C045  FFE0         	movff	??_Interrupt_Manager_Low+2,bsr
  2134   00029A  C044  FFE8         	movff	??_Interrupt_Manager_Low+1,wreg
  2135   00029E  C043  FFD8         	movff	??_Interrupt_Manager_Low,status
  2136   0002A2  904C               	bcf	int$flags,0,c	;clear compiler interrupt flag (level 1)
  2137   0002A4  0010               	retfie	
  2138   0002A6                     __end_of_Interrupt_Manager_Low:
  2139                           	callstack 0
  2140                           
  2141 ;; *************** function _RB7_ISR *****************
  2142 ;; Defined at:
  2143 ;;		line 318 in file "MCAL_Layer/Interrupt/mcal_RBx_external_interrupt.c"
  2144 ;; Parameters:    Size  Location     Type
  2145 ;;  source          1    wreg     unsigned char 
  2146 ;; Auto vars:     Size  Location     Type
  2147 ;;  source          1   11[COMRAM] unsigned char 
  2148 ;; Return value:  Size  Location     Type
  2149 ;;                  1    wreg      void 
  2150 ;; Registers used:
  2151 ;;		wreg, fsr2l, fsr2h, status,2, status,0, pcl, pclath, pclatu, tosl, prodl, prodh, cstack
  2152 ;; Tracked objects:
  2153 ;;		On entry : 0/0
  2154 ;;		On exit  : 0/0
  2155 ;;		Unchanged: 0/0
  2156 ;; Data sizes:     COMRAM   BANK0   BANK1   BANK2   BANK3   BANK4   BANK5   BANK6   BANK7   BANK8   BANK9  BANK10  BANK1
      +1  BANK12  BANK13  BANK14  BANK15
  2157 ;;      Params:         0       0       0       0       0       0       0       0       0       0       0       0       
      +0       0       0       0       0
  2158 ;;      Locals:         1       0       0       0       0       0       0       0       0       0       0       0       
      +0       0       0       0       0
  2159 ;;      Temps:          0       0       0       0       0       0       0       0       0       0       0       0       
      +0       0       0       0       0
  2160 ;;      Totals:         1       0       0       0       0       0       0       0       0       0       0       0       
      +0       0       0       0       0
  2161 ;;Total ram usage:        1 bytes
  2162 ;; Hardware stack levels used: 1
  2163 ;; Hardware stack levels required when called: 5
  2164 ;; This function calls:
  2165 ;;		_RB4_INT_APP_ISR_HIGH
  2166 ;;		_RB4_INT_APP_ISR_LOW
  2167 ;;		_RB5_INT_APP_ISR_HIGH
  2168 ;;		_RB5_INT_APP_ISR_LOW
  2169 ;;		_RB6_INT_APP_ISR_HIGH
  2170 ;;		_RB6_INT_APP_ISR_LOW
  2171 ;;		_RB7_INT_APP_ISR_HIGH
  2172 ;;		_RB7_INT_APP_ISR_LOW
  2173 ;; This function is called by:
  2174 ;;		_Interrupt_Manager_Low
  2175 ;; This function uses a non-reentrant model
  2176 ;;
  2177                           
  2178                           	psect	text12
  2179   0014FE                     __ptext12:
  2180                           	callstack 0
  2181   0014FE                     _RB7_ISR:
  2182                           	callstack 20
  2183                           
  2184                           ;incstack = 0
  2185                           ;RB7_ISR@source stored from wreg
  2186   0014FE  6E42               	movwf	RB7_ISR@source^0,c
  2187   001500                     
  2188                           ;MCAL_Layer/Interrupt/mcal_RBx_external_interrupt.c: 318: void RB7_ISR(uint8 source);MCA
      +                          L_Layer/Interrupt/mcal_RBx_external_interrupt.c: 319: {;MCAL_Layer/Interrupt/mcal_RBx_ex
      +                          ternal_interrupt.c: 321:     (INTCONbits.RBIF = 0);
  2189   001500  90F2               	bcf	242,0,c	;volatile
  2190   001502                     
  2191                           ;MCAL_Layer/Interrupt/mcal_RBx_external_interrupt.c: 325:     if (0 == source)
  2192   001502  5042               	movf	RB7_ISR@source^0,w,c
  2193   001504  A4D8               	btfss	status,2,c
  2194   001506  EF87  F00A         	goto	i1u178_21
  2195   00150A  EF89  F00A         	goto	i1u178_20
  2196   00150E                     i1u178_21:
  2197   00150E  EFA3  F00A         	goto	i1l2282
  2198   001512                     i1u178_20:
  2199   001512                     
  2200                           ;MCAL_Layer/Interrupt/mcal_RBx_external_interrupt.c: 326:     {;MCAL_Layer/Interrupt/mca
      +                          l_RBx_external_interrupt.c: 327:         if (RB7_ISRS[1])
  2201   001512  501F               	movf	(_RB7_ISRS+2)^0,w,c
  2202   001514  1020               	iorwf	(_RB7_ISRS+3)^0,w,c
  2203   001516  B4D8               	btfsc	status,2,c
  2204   001518  EF90  F00A         	goto	i1u179_21
  2205   00151C  EF92  F00A         	goto	i1u179_20
  2206   001520                     i1u179_21:
  2207   001520  EFB9  F00A         	goto	i1l550
  2208   001524                     i1u179_20:
  2209   001524                     
  2210                           ;MCAL_Layer/Interrupt/mcal_RBx_external_interrupt.c: 328:         {;MCAL_Layer/Interrupt
      +                          /mcal_RBx_external_interrupt.c: 329:             RB7_ISRS[1]();
  2211   001524  EE20  F01F         	lfsr	2,_RB7_ISRS+2
  2212   001528  D802               	call	i1u180_28
  2213   00152A  EFA1  F00A         	goto	i1u180_29
  2214   00152E                     i1u180_28:
  2215   00152E  0005               	push	
  2216   001530  6EFA               	movwf	pclath,c
  2217   001532  50DE               	movf	postinc2,w,c
  2218   001534  6EFD               	movwf	tosl,c
  2219   001536  50DE               	movf	postinc2,w,c
  2220   001538  6EFE               	movwf	tosh,c
  2221   00153A  50F8               	movf	tblptru,w,c
  2222   00153C  6EFF               	movwf	tosu,c
  2223   00153E  50FA               	movf	pclath,w,c
  2224   001540  0012               	return		;indir
  2225   001542                     i1u180_29:
  2226   001542  EFB9  F00A         	goto	i1l550
  2227   001546                     i1l2282:
  2228                           
  2229                           ;MCAL_Layer/Interrupt/mcal_RBx_external_interrupt.c: 333:     {;MCAL_Layer/Interrupt/mca
      +                          l_RBx_external_interrupt.c: 334:         if (RB7_ISRS[0])
  2230   001546  501D               	movf	_RB7_ISRS^0,w,c
  2231   001548  101E               	iorwf	(_RB7_ISRS+1)^0,w,c
  2232   00154A  B4D8               	btfsc	status,2,c
  2233   00154C  EFAA  F00A         	goto	i1u181_21
  2234   001550  EFAC  F00A         	goto	i1u181_20
  2235   001554                     i1u181_21:
  2236   001554  EFB9  F00A         	goto	i1l550
  2237   001558                     i1u181_20:
  2238   001558                     
  2239                           ;MCAL_Layer/Interrupt/mcal_RBx_external_interrupt.c: 335:         {;MCAL_Layer/Interrupt
      +                          /mcal_RBx_external_interrupt.c: 336:             RB7_ISRS[0]();
  2240   001558  D802               	call	i1u182_28
  2241   00155A  EFB9  F00A         	goto	i1u182_29
  2242   00155E                     i1u182_28:
  2243   00155E  0005               	push	
  2244   001560  6EFA               	movwf	pclath,c
  2245   001562  501D               	movf	_RB7_ISRS^0,w,c
  2246   001564  6EFD               	movwf	tosl,c
  2247   001566  501E               	movf	(_RB7_ISRS+1)^0,w,c
  2248   001568  6EFE               	movwf	tosh,c
  2249   00156A  50F8               	movf	tblptru,w,c
  2250   00156C  6EFF               	movwf	tosu,c
  2251   00156E  50FA               	movf	pclath,w,c
  2252   001570  0012               	return		;indir
  2253   001572                     i1u182_29:
  2254   001572                     i1l550:
  2255   001572  0012               	return		;funcret
  2256   001574                     __end_of_RB7_ISR:
  2257                           	callstack 0
  2258                           
  2259 ;; *************** function _RB6_ISR *****************
  2260 ;; Defined at:
  2261 ;;		line 290 in file "MCAL_Layer/Interrupt/mcal_RBx_external_interrupt.c"
  2262 ;; Parameters:    Size  Location     Type
  2263 ;;  source          1    wreg     unsigned char 
  2264 ;; Auto vars:     Size  Location     Type
  2265 ;;  source          1   11[COMRAM] unsigned char 
  2266 ;; Return value:  Size  Location     Type
  2267 ;;                  1    wreg      void 
  2268 ;; Registers used:
  2269 ;;		wreg, fsr2l, fsr2h, status,2, status,0, pcl, pclath, pclatu, tosl, prodl, prodh, cstack
  2270 ;; Tracked objects:
  2271 ;;		On entry : 0/0
  2272 ;;		On exit  : 0/0
  2273 ;;		Unchanged: 0/0
  2274 ;; Data sizes:     COMRAM   BANK0   BANK1   BANK2   BANK3   BANK4   BANK5   BANK6   BANK7   BANK8   BANK9  BANK10  BANK1
      +1  BANK12  BANK13  BANK14  BANK15
  2275 ;;      Params:         0       0       0       0       0       0       0       0       0       0       0       0       
      +0       0       0       0       0
  2276 ;;      Locals:         1       0       0       0       0       0       0       0       0       0       0       0       
      +0       0       0       0       0
  2277 ;;      Temps:          0       0       0       0       0       0       0       0       0       0       0       0       
      +0       0       0       0       0
  2278 ;;      Totals:         1       0       0       0       0       0       0       0       0       0       0       0       
      +0       0       0       0       0
  2279 ;;Total ram usage:        1 bytes
  2280 ;; Hardware stack levels used: 1
  2281 ;; Hardware stack levels required when called: 5
  2282 ;; This function calls:
  2283 ;;		_RB4_INT_APP_ISR_HIGH
  2284 ;;		_RB4_INT_APP_ISR_LOW
  2285 ;;		_RB5_INT_APP_ISR_HIGH
  2286 ;;		_RB5_INT_APP_ISR_LOW
  2287 ;;		_RB6_INT_APP_ISR_HIGH
  2288 ;;		_RB6_INT_APP_ISR_LOW
  2289 ;;		_RB7_INT_APP_ISR_HIGH
  2290 ;;		_RB7_INT_APP_ISR_LOW
  2291 ;; This function is called by:
  2292 ;;		_Interrupt_Manager_Low
  2293 ;; This function uses a non-reentrant model
  2294 ;;
  2295                           
  2296                           	psect	text13
  2297   001574                     __ptext13:
  2298                           	callstack 0
  2299   001574                     _RB6_ISR:
  2300                           	callstack 20
  2301                           
  2302                           ;incstack = 0
  2303                           ;RB6_ISR@source stored from wreg
  2304   001574  6E42               	movwf	RB6_ISR@source^0,c
  2305   001576                     
  2306                           ;MCAL_Layer/Interrupt/mcal_RBx_external_interrupt.c: 290: void RB6_ISR(uint8 source);MCA
      +                          L_Layer/Interrupt/mcal_RBx_external_interrupt.c: 291: {;MCAL_Layer/Interrupt/mcal_RBx_ex
      +                          ternal_interrupt.c: 293:     (INTCONbits.RBIF = 0);
  2307   001576  90F2               	bcf	242,0,c	;volatile
  2308   001578                     
  2309                           ;MCAL_Layer/Interrupt/mcal_RBx_external_interrupt.c: 297:     if (0 == source)
  2310   001578  5042               	movf	RB6_ISR@source^0,w,c
  2311   00157A  A4D8               	btfss	status,2,c
  2312   00157C  EFC2  F00A         	goto	i1u173_21
  2313   001580  EFC4  F00A         	goto	i1u173_20
  2314   001584                     i1u173_21:
  2315   001584  EFDE  F00A         	goto	i1l2270
  2316   001588                     i1u173_20:
  2317   001588                     
  2318                           ;MCAL_Layer/Interrupt/mcal_RBx_external_interrupt.c: 298:     {;MCAL_Layer/Interrupt/mca
      +                          l_RBx_external_interrupt.c: 299:         if (RB6_ISRS[1])
  2319   001588  5023               	movf	(_RB6_ISRS+2)^0,w,c
  2320   00158A  1024               	iorwf	(_RB6_ISRS+3)^0,w,c
  2321   00158C  B4D8               	btfsc	status,2,c
  2322   00158E  EFCB  F00A         	goto	i1u174_21
  2323   001592  EFCD  F00A         	goto	i1u174_20
  2324   001596                     i1u174_21:
  2325   001596  EFF4  F00A         	goto	i1l543
  2326   00159A                     i1u174_20:
  2327   00159A                     
  2328                           ;MCAL_Layer/Interrupt/mcal_RBx_external_interrupt.c: 300:         {;MCAL_Layer/Interrupt
      +                          /mcal_RBx_external_interrupt.c: 301:             RB6_ISRS[1]();
  2329   00159A  EE20  F023         	lfsr	2,_RB6_ISRS+2
  2330   00159E  D802               	call	i1u175_28
  2331   0015A0  EFDC  F00A         	goto	i1u175_29
  2332   0015A4                     i1u175_28:
  2333   0015A4  0005               	push	
  2334   0015A6  6EFA               	movwf	pclath,c
  2335   0015A8  50DE               	movf	postinc2,w,c
  2336   0015AA  6EFD               	movwf	tosl,c
  2337   0015AC  50DE               	movf	postinc2,w,c
  2338   0015AE  6EFE               	movwf	tosh,c
  2339   0015B0  50F8               	movf	tblptru,w,c
  2340   0015B2  6EFF               	movwf	tosu,c
  2341   0015B4  50FA               	movf	pclath,w,c
  2342   0015B6  0012               	return		;indir
  2343   0015B8                     i1u175_29:
  2344   0015B8  EFF4  F00A         	goto	i1l543
  2345   0015BC                     i1l2270:
  2346                           
  2347                           ;MCAL_Layer/Interrupt/mcal_RBx_external_interrupt.c: 305:     {;MCAL_Layer/Interrupt/mca
      +                          l_RBx_external_interrupt.c: 306:         if (RB6_ISRS[0])
  2348   0015BC  5021               	movf	_RB6_ISRS^0,w,c
  2349   0015BE  1022               	iorwf	(_RB6_ISRS+1)^0,w,c
  2350   0015C0  B4D8               	btfsc	status,2,c
  2351   0015C2  EFE5  F00A         	goto	i1u176_21
  2352   0015C6  EFE7  F00A         	goto	i1u176_20
  2353   0015CA                     i1u176_21:
  2354   0015CA  EFF4  F00A         	goto	i1l543
  2355   0015CE                     i1u176_20:
  2356   0015CE                     
  2357                           ;MCAL_Layer/Interrupt/mcal_RBx_external_interrupt.c: 307:         {;MCAL_Layer/Interrupt
      +                          /mcal_RBx_external_interrupt.c: 308:             RB6_ISRS[0]();
  2358   0015CE  D802               	call	i1u177_28
  2359   0015D0  EFF4  F00A         	goto	i1u177_29
  2360   0015D4                     i1u177_28:
  2361   0015D4  0005               	push	
  2362   0015D6  6EFA               	movwf	pclath,c
  2363   0015D8  5021               	movf	_RB6_ISRS^0,w,c
  2364   0015DA  6EFD               	movwf	tosl,c
  2365   0015DC  5022               	movf	(_RB6_ISRS+1)^0,w,c
  2366   0015DE  6EFE               	movwf	tosh,c
  2367   0015E0  50F8               	movf	tblptru,w,c
  2368   0015E2  6EFF               	movwf	tosu,c
  2369   0015E4  50FA               	movf	pclath,w,c
  2370   0015E6  0012               	return		;indir
  2371   0015E8                     i1u177_29:
  2372   0015E8                     i1l543:
  2373   0015E8  0012               	return		;funcret
  2374   0015EA                     __end_of_RB6_ISR:
  2375                           	callstack 0
  2376                           
  2377 ;; *************** function _RB5_ISR *****************
  2378 ;; Defined at:
  2379 ;;		line 262 in file "MCAL_Layer/Interrupt/mcal_RBx_external_interrupt.c"
  2380 ;; Parameters:    Size  Location     Type
  2381 ;;  source          1    wreg     unsigned char 
  2382 ;; Auto vars:     Size  Location     Type
  2383 ;;  source          1   11[COMRAM] unsigned char 
  2384 ;; Return value:  Size  Location     Type
  2385 ;;                  1    wreg      void 
  2386 ;; Registers used:
  2387 ;;		wreg, fsr2l, fsr2h, status,2, status,0, pcl, pclath, pclatu, tosl, prodl, prodh, cstack
  2388 ;; Tracked objects:
  2389 ;;		On entry : 0/0
  2390 ;;		On exit  : 0/0
  2391 ;;		Unchanged: 0/0
  2392 ;; Data sizes:     COMRAM   BANK0   BANK1   BANK2   BANK3   BANK4   BANK5   BANK6   BANK7   BANK8   BANK9  BANK10  BANK1
      +1  BANK12  BANK13  BANK14  BANK15
  2393 ;;      Params:         0       0       0       0       0       0       0       0       0       0       0       0       
      +0       0       0       0       0
  2394 ;;      Locals:         1       0       0       0       0       0       0       0       0       0       0       0       
      +0       0       0       0       0
  2395 ;;      Temps:          0       0       0       0       0       0       0       0       0       0       0       0       
      +0       0       0       0       0
  2396 ;;      Totals:         1       0       0       0       0       0       0       0       0       0       0       0       
      +0       0       0       0       0
  2397 ;;Total ram usage:        1 bytes
  2398 ;; Hardware stack levels used: 1
  2399 ;; Hardware stack levels required when called: 5
  2400 ;; This function calls:
  2401 ;;		_RB4_INT_APP_ISR_HIGH
  2402 ;;		_RB4_INT_APP_ISR_LOW
  2403 ;;		_RB5_INT_APP_ISR_HIGH
  2404 ;;		_RB5_INT_APP_ISR_LOW
  2405 ;;		_RB6_INT_APP_ISR_HIGH
  2406 ;;		_RB6_INT_APP_ISR_LOW
  2407 ;;		_RB7_INT_APP_ISR_HIGH
  2408 ;;		_RB7_INT_APP_ISR_LOW
  2409 ;; This function is called by:
  2410 ;;		_Interrupt_Manager_Low
  2411 ;; This function uses a non-reentrant model
  2412 ;;
  2413                           
  2414                           	psect	text14
  2415   0015EA                     __ptext14:
  2416                           	callstack 0
  2417   0015EA                     _RB5_ISR:
  2418                           	callstack 20
  2419                           
  2420                           ;incstack = 0
  2421                           ;RB5_ISR@source stored from wreg
  2422   0015EA  6E42               	movwf	RB5_ISR@source^0,c
  2423   0015EC                     
  2424                           ;MCAL_Layer/Interrupt/mcal_RBx_external_interrupt.c: 262: void RB5_ISR(uint8 source);MCA
      +                          L_Layer/Interrupt/mcal_RBx_external_interrupt.c: 263: {;MCAL_Layer/Interrupt/mcal_RBx_ex
      +                          ternal_interrupt.c: 265:     (INTCONbits.RBIF = 0);
  2425   0015EC  90F2               	bcf	242,0,c	;volatile
  2426   0015EE                     
  2427                           ;MCAL_Layer/Interrupt/mcal_RBx_external_interrupt.c: 269:     if (0 == source)
  2428   0015EE  5042               	movf	RB5_ISR@source^0,w,c
  2429   0015F0  A4D8               	btfss	status,2,c
  2430   0015F2  EFFD  F00A         	goto	i1u168_21
  2431   0015F6  EFFF  F00A         	goto	i1u168_20
  2432   0015FA                     i1u168_21:
  2433   0015FA  EF17  F00B         	goto	i1l2258
  2434   0015FE                     i1u168_20:
  2435   0015FE                     
  2436                           ;MCAL_Layer/Interrupt/mcal_RBx_external_interrupt.c: 270:     {;MCAL_Layer/Interrupt/mca
      +                          l_RBx_external_interrupt.c: 271:         if (RB5_ISRS[0])
  2437   0015FE  5025               	movf	_RB5_ISRS^0,w,c
  2438   001600  1026               	iorwf	(_RB5_ISRS+1)^0,w,c
  2439   001602  B4D8               	btfsc	status,2,c
  2440   001604  EF06  F00B         	goto	i1u169_21
  2441   001608  EF08  F00B         	goto	i1u169_20
  2442   00160C                     i1u169_21:
  2443   00160C  EF2F  F00B         	goto	i1l536
  2444   001610                     i1u169_20:
  2445   001610                     
  2446                           ;MCAL_Layer/Interrupt/mcal_RBx_external_interrupt.c: 272:         {;MCAL_Layer/Interrupt
      +                          /mcal_RBx_external_interrupt.c: 273:             RB5_ISRS[0]();
  2447   001610  D802               	call	i1u170_28
  2448   001612  EF15  F00B         	goto	i1u170_29
  2449   001616                     i1u170_28:
  2450   001616  0005               	push	
  2451   001618  6EFA               	movwf	pclath,c
  2452   00161A  5025               	movf	_RB5_ISRS^0,w,c
  2453   00161C  6EFD               	movwf	tosl,c
  2454   00161E  5026               	movf	(_RB5_ISRS+1)^0,w,c
  2455   001620  6EFE               	movwf	tosh,c
  2456   001622  50F8               	movf	tblptru,w,c
  2457   001624  6EFF               	movwf	tosu,c
  2458   001626  50FA               	movf	pclath,w,c
  2459   001628  0012               	return		;indir
  2460   00162A                     i1u170_29:
  2461   00162A  EF2F  F00B         	goto	i1l536
  2462   00162E                     i1l2258:
  2463                           
  2464                           ;MCAL_Layer/Interrupt/mcal_RBx_external_interrupt.c: 277:     {;MCAL_Layer/Interrupt/mca
      +                          l_RBx_external_interrupt.c: 278:         if (RB5_ISRS[1])
  2465   00162E  5027               	movf	(_RB5_ISRS+2)^0,w,c
  2466   001630  1028               	iorwf	(_RB5_ISRS+3)^0,w,c
  2467   001632  B4D8               	btfsc	status,2,c
  2468   001634  EF1E  F00B         	goto	i1u171_21
  2469   001638  EF20  F00B         	goto	i1u171_20
  2470   00163C                     i1u171_21:
  2471   00163C  EF2F  F00B         	goto	i1l536
  2472   001640                     i1u171_20:
  2473   001640                     
  2474                           ;MCAL_Layer/Interrupt/mcal_RBx_external_interrupt.c: 279:         {;MCAL_Layer/Interrupt
      +                          /mcal_RBx_external_interrupt.c: 280:             RB5_ISRS[1]();
  2475   001640  EE20  F027         	lfsr	2,_RB5_ISRS+2
  2476   001644  D802               	call	i1u172_28
  2477   001646  EF2F  F00B         	goto	i1u172_29
  2478   00164A                     i1u172_28:
  2479   00164A  0005               	push	
  2480   00164C  6EFA               	movwf	pclath,c
  2481   00164E  50DE               	movf	postinc2,w,c
  2482   001650  6EFD               	movwf	tosl,c
  2483   001652  50DE               	movf	postinc2,w,c
  2484   001654  6EFE               	movwf	tosh,c
  2485   001656  50F8               	movf	tblptru,w,c
  2486   001658  6EFF               	movwf	tosu,c
  2487   00165A  50FA               	movf	pclath,w,c
  2488   00165C  0012               	return		;indir
  2489   00165E                     i1u172_29:
  2490   00165E                     i1l536:
  2491   00165E  0012               	return		;funcret
  2492   001660                     __end_of_RB5_ISR:
  2493                           	callstack 0
  2494                           
  2495 ;; *************** function _RB4_ISR *****************
  2496 ;; Defined at:
  2497 ;;		line 234 in file "MCAL_Layer/Interrupt/mcal_RBx_external_interrupt.c"
  2498 ;; Parameters:    Size  Location     Type
  2499 ;;  source          1    wreg     unsigned char 
  2500 ;; Auto vars:     Size  Location     Type
  2501 ;;  source          1   11[COMRAM] unsigned char 
  2502 ;; Return value:  Size  Location     Type
  2503 ;;                  1    wreg      void 
  2504 ;; Registers used:
  2505 ;;		wreg, fsr2l, fsr2h, status,2, status,0, pcl, pclath, pclatu, tosl, prodl, prodh, cstack
  2506 ;; Tracked objects:
  2507 ;;		On entry : 0/0
  2508 ;;		On exit  : 0/0
  2509 ;;		Unchanged: 0/0
  2510 ;; Data sizes:     COMRAM   BANK0   BANK1   BANK2   BANK3   BANK4   BANK5   BANK6   BANK7   BANK8   BANK9  BANK10  BANK1
      +1  BANK12  BANK13  BANK14  BANK15
  2511 ;;      Params:         0       0       0       0       0       0       0       0       0       0       0       0       
      +0       0       0       0       0
  2512 ;;      Locals:         1       0       0       0       0       0       0       0       0       0       0       0       
      +0       0       0       0       0
  2513 ;;      Temps:          0       0       0       0       0       0       0       0       0       0       0       0       
      +0       0       0       0       0
  2514 ;;      Totals:         1       0       0       0       0       0       0       0       0       0       0       0       
      +0       0       0       0       0
  2515 ;;Total ram usage:        1 bytes
  2516 ;; Hardware stack levels used: 1
  2517 ;; Hardware stack levels required when called: 5
  2518 ;; This function calls:
  2519 ;;		_RB4_INT_APP_ISR_HIGH
  2520 ;;		_RB4_INT_APP_ISR_LOW
  2521 ;;		_RB5_INT_APP_ISR_HIGH
  2522 ;;		_RB5_INT_APP_ISR_LOW
  2523 ;;		_RB6_INT_APP_ISR_HIGH
  2524 ;;		_RB6_INT_APP_ISR_LOW
  2525 ;;		_RB7_INT_APP_ISR_HIGH
  2526 ;;		_RB7_INT_APP_ISR_LOW
  2527 ;; This function is called by:
  2528 ;;		_Interrupt_Manager_Low
  2529 ;; This function uses a non-reentrant model
  2530 ;;
  2531                           
  2532                           	psect	text15
  2533   001660                     __ptext15:
  2534                           	callstack 0
  2535   001660                     _RB4_ISR:
  2536                           	callstack 20
  2537                           
  2538                           ;incstack = 0
  2539                           ;RB4_ISR@source stored from wreg
  2540   001660  6E42               	movwf	RB4_ISR@source^0,c
  2541   001662                     
  2542                           ;MCAL_Layer/Interrupt/mcal_RBx_external_interrupt.c: 234: void RB4_ISR(uint8 source);MCA
      +                          L_Layer/Interrupt/mcal_RBx_external_interrupt.c: 235: {;MCAL_Layer/Interrupt/mcal_RBx_ex
      +                          ternal_interrupt.c: 237:     (INTCONbits.RBIF = 0);
  2543   001662  90F2               	bcf	242,0,c	;volatile
  2544   001664                     
  2545                           ;MCAL_Layer/Interrupt/mcal_RBx_external_interrupt.c: 241:     if (0 == source)
  2546   001664  5042               	movf	RB4_ISR@source^0,w,c
  2547   001666  A4D8               	btfss	status,2,c
  2548   001668  EF38  F00B         	goto	i1u163_21
  2549   00166C  EF3A  F00B         	goto	i1u163_20
  2550   001670                     i1u163_21:
  2551   001670  EF52  F00B         	goto	i1l2246
  2552   001674                     i1u163_20:
  2553   001674                     
  2554                           ;MCAL_Layer/Interrupt/mcal_RBx_external_interrupt.c: 242:     {;MCAL_Layer/Interrupt/mca
      +                          l_RBx_external_interrupt.c: 243:         if (RB4_ISRS[0])
  2555   001674  5029               	movf	_RB4_ISRS^0,w,c
  2556   001676  102A               	iorwf	(_RB4_ISRS+1)^0,w,c
  2557   001678  B4D8               	btfsc	status,2,c
  2558   00167A  EF41  F00B         	goto	i1u164_21
  2559   00167E  EF43  F00B         	goto	i1u164_20
  2560   001682                     i1u164_21:
  2561   001682  EF6A  F00B         	goto	i1l529
  2562   001686                     i1u164_20:
  2563   001686                     
  2564                           ;MCAL_Layer/Interrupt/mcal_RBx_external_interrupt.c: 244:         {;MCAL_Layer/Interrupt
      +                          /mcal_RBx_external_interrupt.c: 245:             RB4_ISRS[0]();
  2565   001686  D802               	call	i1u165_28
  2566   001688  EF50  F00B         	goto	i1u165_29
  2567   00168C                     i1u165_28:
  2568   00168C  0005               	push	
  2569   00168E  6EFA               	movwf	pclath,c
  2570   001690  5029               	movf	_RB4_ISRS^0,w,c
  2571   001692  6EFD               	movwf	tosl,c
  2572   001694  502A               	movf	(_RB4_ISRS+1)^0,w,c
  2573   001696  6EFE               	movwf	tosh,c
  2574   001698  50F8               	movf	tblptru,w,c
  2575   00169A  6EFF               	movwf	tosu,c
  2576   00169C  50FA               	movf	pclath,w,c
  2577   00169E  0012               	return		;indir
  2578   0016A0                     i1u165_29:
  2579   0016A0  EF6A  F00B         	goto	i1l529
  2580   0016A4                     i1l2246:
  2581                           
  2582                           ;MCAL_Layer/Interrupt/mcal_RBx_external_interrupt.c: 249:     {;MCAL_Layer/Interrupt/mca
      +                          l_RBx_external_interrupt.c: 250:         if (RB4_ISRS[1])
  2583   0016A4  502B               	movf	(_RB4_ISRS+2)^0,w,c
  2584   0016A6  102C               	iorwf	(_RB4_ISRS+3)^0,w,c
  2585   0016A8  B4D8               	btfsc	status,2,c
  2586   0016AA  EF59  F00B         	goto	i1u166_21
  2587   0016AE  EF5B  F00B         	goto	i1u166_20
  2588   0016B2                     i1u166_21:
  2589   0016B2  EF6A  F00B         	goto	i1l529
  2590   0016B6                     i1u166_20:
  2591   0016B6                     
  2592                           ;MCAL_Layer/Interrupt/mcal_RBx_external_interrupt.c: 251:         {;MCAL_Layer/Interrupt
      +                          /mcal_RBx_external_interrupt.c: 252:             RB4_ISRS[1]();
  2593   0016B6  EE20  F02B         	lfsr	2,_RB4_ISRS+2
  2594   0016BA  D802               	call	i1u167_28
  2595   0016BC  EF6A  F00B         	goto	i1u167_29
  2596   0016C0                     i1u167_28:
  2597   0016C0  0005               	push	
  2598   0016C2  6EFA               	movwf	pclath,c
  2599   0016C4  50DE               	movf	postinc2,w,c
  2600   0016C6  6EFD               	movwf	tosl,c
  2601   0016C8  50DE               	movf	postinc2,w,c
  2602   0016CA  6EFE               	movwf	tosh,c
  2603   0016CC  50F8               	movf	tblptru,w,c
  2604   0016CE  6EFF               	movwf	tosu,c
  2605   0016D0  50FA               	movf	pclath,w,c
  2606   0016D2  0012               	return		;indir
  2607   0016D4                     i1u167_29:
  2608   0016D4                     i1l529:
  2609   0016D4  0012               	return		;funcret
  2610   0016D6                     __end_of_RB4_ISR:
  2611                           	callstack 0
  2612                           
  2613 ;; *************** function _RB7_INT_APP_ISR_HIGH *****************
  2614 ;; Defined at:
  2615 ;;		line 44 in file "app.c"
  2616 ;; Parameters:    Size  Location     Type
  2617 ;;		None
  2618 ;; Auto vars:     Size  Location     Type
  2619 ;;		None
  2620 ;; Return value:  Size  Location     Type
  2621 ;;                  1    wreg      void 
  2622 ;; Registers used:
  2623 ;;		wreg, fsr2l, fsr2h, status,2, status,0, prodl, prodh, cstack
  2624 ;; Tracked objects:
  2625 ;;		On entry : 0/0
  2626 ;;		On exit  : 0/0
  2627 ;;		Unchanged: 0/0
  2628 ;; Data sizes:     COMRAM   BANK0   BANK1   BANK2   BANK3   BANK4   BANK5   BANK6   BANK7   BANK8   BANK9  BANK10  BANK1
      +1  BANK12  BANK13  BANK14  BANK15
  2629 ;;      Params:         0       0       0       0       0       0       0       0       0       0       0       0       
      +0       0       0       0       0
  2630 ;;      Locals:         0       0       0       0       0       0       0       0       0       0       0       0       
      +0       0       0       0       0
  2631 ;;      Temps:          0       0       0       0       0       0       0       0       0       0       0       0       
      +0       0       0       0       0
  2632 ;;      Totals:         0       0       0       0       0       0       0       0       0       0       0       0       
      +0       0       0       0       0
  2633 ;;Total ram usage:        0 bytes
  2634 ;; Hardware stack levels used: 1
  2635 ;; Hardware stack levels required when called: 4
  2636 ;; This function calls:
  2637 ;;		_led_turn_off
  2638 ;; This function is called by:
  2639 ;;		_RB4_ISR
  2640 ;;		_RB5_ISR
  2641 ;;		_RB6_ISR
  2642 ;;		_RB7_ISR
  2643 ;; This function uses a non-reentrant model
  2644 ;;
  2645                           
  2646                           	psect	text16
  2647   0019B4                     __ptext16:
  2648                           	callstack 0
  2649   0019B4                     _RB7_INT_APP_ISR_HIGH:
  2650                           	callstack 20
  2651   0019B4                     
  2652                           ;app.c: 46:     led_turn_off(&led4);
  2653   0019B4  0E19               	movlw	low _led4
  2654   0019B6  6E3F               	movwf	led_turn_off@led^0,c
  2655   0019B8  ECA0  F00B         	call	_led_turn_off	;wreg free
  2656   0019BC  0012               	return		;funcret
  2657   0019BE                     __end_of_RB7_INT_APP_ISR_HIGH:
  2658                           	callstack 0
  2659                           
  2660 ;; *************** function _RB6_INT_APP_ISR_LOW *****************
  2661 ;; Defined at:
  2662 ;;		line 39 in file "app.c"
  2663 ;; Parameters:    Size  Location     Type
  2664 ;;		None
  2665 ;; Auto vars:     Size  Location     Type
  2666 ;;		None
  2667 ;; Return value:  Size  Location     Type
  2668 ;;                  1    wreg      void 
  2669 ;; Registers used:
  2670 ;;		wreg, fsr2l, fsr2h, status,2, status,0, prodl, prodh, cstack
  2671 ;; Tracked objects:
  2672 ;;		On entry : 0/0
  2673 ;;		On exit  : 0/0
  2674 ;;		Unchanged: 0/0
  2675 ;; Data sizes:     COMRAM   BANK0   BANK1   BANK2   BANK3   BANK4   BANK5   BANK6   BANK7   BANK8   BANK9  BANK10  BANK1
      +1  BANK12  BANK13  BANK14  BANK15
  2676 ;;      Params:         0       0       0       0       0       0       0       0       0       0       0       0       
      +0       0       0       0       0
  2677 ;;      Locals:         0       0       0       0       0       0       0       0       0       0       0       0       
      +0       0       0       0       0
  2678 ;;      Temps:          0       0       0       0       0       0       0       0       0       0       0       0       
      +0       0       0       0       0
  2679 ;;      Totals:         0       0       0       0       0       0       0       0       0       0       0       0       
      +0       0       0       0       0
  2680 ;;Total ram usage:        0 bytes
  2681 ;; Hardware stack levels used: 1
  2682 ;; Hardware stack levels required when called: 4
  2683 ;; This function calls:
  2684 ;;		_led_turn_on
  2685 ;; This function is called by:
  2686 ;;		_RB4_ISR
  2687 ;;		_RB5_ISR
  2688 ;;		_RB6_ISR
  2689 ;;		_RB7_ISR
  2690 ;; This function uses a non-reentrant model
  2691 ;;
  2692                           
  2693                           	psect	text17
  2694   0019BE                     __ptext17:
  2695                           	callstack 0
  2696   0019BE                     _RB6_INT_APP_ISR_LOW:
  2697                           	callstack 20
  2698   0019BE                     
  2699                           ;app.c: 41:     led_turn_on(&led4);
  2700   0019BE  0E19               	movlw	low _led4
  2701   0019C0  6E3F               	movwf	led_turn_on@led^0,c
  2702   0019C2  ECD5  F00B         	call	_led_turn_on	;wreg free
  2703   0019C6  0012               	return		;funcret
  2704   0019C8                     __end_of_RB6_INT_APP_ISR_LOW:
  2705                           	callstack 0
  2706                           
  2707 ;; *************** function _RB6_INT_APP_ISR_HIGH *****************
  2708 ;; Defined at:
  2709 ;;		line 35 in file "app.c"
  2710 ;; Parameters:    Size  Location     Type
  2711 ;;		None
  2712 ;; Auto vars:     Size  Location     Type
  2713 ;;		None
  2714 ;; Return value:  Size  Location     Type
  2715 ;;                  1    wreg      void 
  2716 ;; Registers used:
  2717 ;;		wreg, fsr2l, fsr2h, status,2, status,0, prodl, prodh, cstack
  2718 ;; Tracked objects:
  2719 ;;		On entry : 0/0
  2720 ;;		On exit  : 0/0
  2721 ;;		Unchanged: 0/0
  2722 ;; Data sizes:     COMRAM   BANK0   BANK1   BANK2   BANK3   BANK4   BANK5   BANK6   BANK7   BANK8   BANK9  BANK10  BANK1
      +1  BANK12  BANK13  BANK14  BANK15
  2723 ;;      Params:         0       0       0       0       0       0       0       0       0       0       0       0       
      +0       0       0       0       0
  2724 ;;      Locals:         0       0       0       0       0       0       0       0       0       0       0       0       
      +0       0       0       0       0
  2725 ;;      Temps:          0       0       0       0       0       0       0       0       0       0       0       0       
      +0       0       0       0       0
  2726 ;;      Totals:         0       0       0       0       0       0       0       0       0       0       0       0       
      +0       0       0       0       0
  2727 ;;Total ram usage:        0 bytes
  2728 ;; Hardware stack levels used: 1
  2729 ;; Hardware stack levels required when called: 4
  2730 ;; This function calls:
  2731 ;;		_led_turn_on
  2732 ;; This function is called by:
  2733 ;;		_RB4_ISR
  2734 ;;		_RB5_ISR
  2735 ;;		_RB6_ISR
  2736 ;;		_RB7_ISR
  2737 ;; This function uses a non-reentrant model
  2738 ;;
  2739                           
  2740                           	psect	text18
  2741   0019C8                     __ptext18:
  2742                           	callstack 0
  2743   0019C8                     _RB6_INT_APP_ISR_HIGH:
  2744                           	callstack 20
  2745   0019C8                     
  2746                           ;app.c: 37:     led_turn_on(&led3);
  2747   0019C8  0E1A               	movlw	low _led3
  2748   0019CA  6E3F               	movwf	led_turn_on@led^0,c
  2749   0019CC  ECD5  F00B         	call	_led_turn_on	;wreg free
  2750   0019D0  0012               	return		;funcret
  2751   0019D2                     __end_of_RB6_INT_APP_ISR_HIGH:
  2752                           	callstack 0
  2753                           
  2754 ;; *************** function _RB5_INT_APP_ISR_LOW *****************
  2755 ;; Defined at:
  2756 ;;		line 30 in file "app.c"
  2757 ;; Parameters:    Size  Location     Type
  2758 ;;		None
  2759 ;; Auto vars:     Size  Location     Type
  2760 ;;		None
  2761 ;; Return value:  Size  Location     Type
  2762 ;;                  1    wreg      void 
  2763 ;; Registers used:
  2764 ;;		wreg, fsr2l, fsr2h, status,2, status,0, prodl, prodh, cstack
  2765 ;; Tracked objects:
  2766 ;;		On entry : 0/0
  2767 ;;		On exit  : 0/0
  2768 ;;		Unchanged: 0/0
  2769 ;; Data sizes:     COMRAM   BANK0   BANK1   BANK2   BANK3   BANK4   BANK5   BANK6   BANK7   BANK8   BANK9  BANK10  BANK1
      +1  BANK12  BANK13  BANK14  BANK15
  2770 ;;      Params:         0       0       0       0       0       0       0       0       0       0       0       0       
      +0       0       0       0       0
  2771 ;;      Locals:         0       0       0       0       0       0       0       0       0       0       0       0       
      +0       0       0       0       0
  2772 ;;      Temps:          0       0       0       0       0       0       0       0       0       0       0       0       
      +0       0       0       0       0
  2773 ;;      Totals:         0       0       0       0       0       0       0       0       0       0       0       0       
      +0       0       0       0       0
  2774 ;;Total ram usage:        0 bytes
  2775 ;; Hardware stack levels used: 1
  2776 ;; Hardware stack levels required when called: 4
  2777 ;; This function calls:
  2778 ;;		_led_turn_off
  2779 ;; This function is called by:
  2780 ;;		_RB4_ISR
  2781 ;;		_RB5_ISR
  2782 ;;		_RB6_ISR
  2783 ;;		_RB7_ISR
  2784 ;; This function uses a non-reentrant model
  2785 ;;
  2786                           
  2787                           	psect	text19
  2788   0019D2                     __ptext19:
  2789                           	callstack 0
  2790   0019D2                     _RB5_INT_APP_ISR_LOW:
  2791                           	callstack 20
  2792   0019D2                     
  2793                           ;app.c: 32:     led_turn_off(&led1);
  2794   0019D2  0E1C               	movlw	low _led1
  2795   0019D4  6E3F               	movwf	led_turn_off@led^0,c
  2796   0019D6  ECA0  F00B         	call	_led_turn_off	;wreg free
  2797   0019DA  0012               	return		;funcret
  2798   0019DC                     __end_of_RB5_INT_APP_ISR_LOW:
  2799                           	callstack 0
  2800                           
  2801 ;; *************** function _RB5_INT_APP_ISR_HIGH *****************
  2802 ;; Defined at:
  2803 ;;		line 26 in file "app.c"
  2804 ;; Parameters:    Size  Location     Type
  2805 ;;		None
  2806 ;; Auto vars:     Size  Location     Type
  2807 ;;		None
  2808 ;; Return value:  Size  Location     Type
  2809 ;;                  1    wreg      void 
  2810 ;; Registers used:
  2811 ;;		wreg, fsr2l, fsr2h, status,2, status,0, prodl, prodh, cstack
  2812 ;; Tracked objects:
  2813 ;;		On entry : 0/0
  2814 ;;		On exit  : 0/0
  2815 ;;		Unchanged: 0/0
  2816 ;; Data sizes:     COMRAM   BANK0   BANK1   BANK2   BANK3   BANK4   BANK5   BANK6   BANK7   BANK8   BANK9  BANK10  BANK1
      +1  BANK12  BANK13  BANK14  BANK15
  2817 ;;      Params:         0       0       0       0       0       0       0       0       0       0       0       0       
      +0       0       0       0       0
  2818 ;;      Locals:         0       0       0       0       0       0       0       0       0       0       0       0       
      +0       0       0       0       0
  2819 ;;      Temps:          0       0       0       0       0       0       0       0       0       0       0       0       
      +0       0       0       0       0
  2820 ;;      Totals:         0       0       0       0       0       0       0       0       0       0       0       0       
      +0       0       0       0       0
  2821 ;;Total ram usage:        0 bytes
  2822 ;; Hardware stack levels used: 1
  2823 ;; Hardware stack levels required when called: 4
  2824 ;; This function calls:
  2825 ;;		_led_turn_off
  2826 ;; This function is called by:
  2827 ;;		_RB4_ISR
  2828 ;;		_RB5_ISR
  2829 ;;		_RB6_ISR
  2830 ;;		_RB7_ISR
  2831 ;; This function uses a non-reentrant model
  2832 ;;
  2833                           
  2834                           	psect	text20
  2835   0019DC                     __ptext20:
  2836                           	callstack 0
  2837   0019DC                     _RB5_INT_APP_ISR_HIGH:
  2838                           	callstack 20
  2839   0019DC                     
  2840                           ;app.c: 28:     led_turn_off(&led2);
  2841   0019DC  0E1B               	movlw	low _led2
  2842   0019DE  6E3F               	movwf	led_turn_off@led^0,c
  2843   0019E0  ECA0  F00B         	call	_led_turn_off	;wreg free
  2844   0019E4  0012               	return		;funcret
  2845   0019E6                     __end_of_RB5_INT_APP_ISR_HIGH:
  2846                           	callstack 0
  2847                           
  2848 ;; *************** function _RB4_INT_APP_ISR_LOW *****************
  2849 ;; Defined at:
  2850 ;;		line 21 in file "app.c"
  2851 ;; Parameters:    Size  Location     Type
  2852 ;;		None
  2853 ;; Auto vars:     Size  Location     Type
  2854 ;;		None
  2855 ;; Return value:  Size  Location     Type
  2856 ;;                  1    wreg      void 
  2857 ;; Registers used:
  2858 ;;		wreg, fsr2l, fsr2h, status,2, status,0, prodl, prodh, cstack
  2859 ;; Tracked objects:
  2860 ;;		On entry : 0/0
  2861 ;;		On exit  : 0/0
  2862 ;;		Unchanged: 0/0
  2863 ;; Data sizes:     COMRAM   BANK0   BANK1   BANK2   BANK3   BANK4   BANK5   BANK6   BANK7   BANK8   BANK9  BANK10  BANK1
      +1  BANK12  BANK13  BANK14  BANK15
  2864 ;;      Params:         0       0       0       0       0       0       0       0       0       0       0       0       
      +0       0       0       0       0
  2865 ;;      Locals:         0       0       0       0       0       0       0       0       0       0       0       0       
      +0       0       0       0       0
  2866 ;;      Temps:          0       0       0       0       0       0       0       0       0       0       0       0       
      +0       0       0       0       0
  2867 ;;      Totals:         0       0       0       0       0       0       0       0       0       0       0       0       
      +0       0       0       0       0
  2868 ;;Total ram usage:        0 bytes
  2869 ;; Hardware stack levels used: 1
  2870 ;; Hardware stack levels required when called: 4
  2871 ;; This function calls:
  2872 ;;		_led_turn_on
  2873 ;; This function is called by:
  2874 ;;		_RB4_ISR
  2875 ;;		_RB5_ISR
  2876 ;;		_RB6_ISR
  2877 ;;		_RB7_ISR
  2878 ;; This function uses a non-reentrant model
  2879 ;;
  2880                           
  2881                           	psect	text21
  2882   0019E6                     __ptext21:
  2883                           	callstack 0
  2884   0019E6                     _RB4_INT_APP_ISR_LOW:
  2885                           	callstack 20
  2886   0019E6                     
  2887                           ;app.c: 23:     led_turn_on(&led2);
  2888   0019E6  0E1B               	movlw	low _led2
  2889   0019E8  6E3F               	movwf	led_turn_on@led^0,c
  2890   0019EA  ECD5  F00B         	call	_led_turn_on	;wreg free
  2891   0019EE  0012               	return		;funcret
  2892   0019F0                     __end_of_RB4_INT_APP_ISR_LOW:
  2893                           	callstack 0
  2894                           
  2895 ;; *************** function _RB4_INT_APP_ISR_HIGH *****************
  2896 ;; Defined at:
  2897 ;;		line 17 in file "app.c"
  2898 ;; Parameters:    Size  Location     Type
  2899 ;;		None
  2900 ;; Auto vars:     Size  Location     Type
  2901 ;;		None
  2902 ;; Return value:  Size  Location     Type
  2903 ;;                  1    wreg      void 
  2904 ;; Registers used:
  2905 ;;		wreg, fsr2l, fsr2h, status,2, status,0, prodl, prodh, cstack
  2906 ;; Tracked objects:
  2907 ;;		On entry : 0/0
  2908 ;;		On exit  : 0/0
  2909 ;;		Unchanged: 0/0
  2910 ;; Data sizes:     COMRAM   BANK0   BANK1   BANK2   BANK3   BANK4   BANK5   BANK6   BANK7   BANK8   BANK9  BANK10  BANK1
      +1  BANK12  BANK13  BANK14  BANK15
  2911 ;;      Params:         0       0       0       0       0       0       0       0       0       0       0       0       
      +0       0       0       0       0
  2912 ;;      Locals:         0       0       0       0       0       0       0       0       0       0       0       0       
      +0       0       0       0       0
  2913 ;;      Temps:          0       0       0       0       0       0       0       0       0       0       0       0       
      +0       0       0       0       0
  2914 ;;      Totals:         0       0       0       0       0       0       0       0       0       0       0       0       
      +0       0       0       0       0
  2915 ;;Total ram usage:        0 bytes
  2916 ;; Hardware stack levels used: 1
  2917 ;; Hardware stack levels required when called: 4
  2918 ;; This function calls:
  2919 ;;		_led_turn_on
  2920 ;; This function is called by:
  2921 ;;		_RB4_ISR
  2922 ;;		_RB5_ISR
  2923 ;;		_RB6_ISR
  2924 ;;		_RB7_ISR
  2925 ;; This function uses a non-reentrant model
  2926 ;;
  2927                           
  2928                           	psect	text22
  2929   0019F0                     __ptext22:
  2930                           	callstack 0
  2931   0019F0                     _RB4_INT_APP_ISR_HIGH:
  2932                           	callstack 20
  2933   0019F0                     
  2934                           ;app.c: 19:     led_turn_on(&led1);
  2935   0019F0  0E1C               	movlw	low _led1
  2936   0019F2  6E3F               	movwf	led_turn_on@led^0,c
  2937   0019F4  ECD5  F00B         	call	_led_turn_on	;wreg free
  2938   0019F8  0012               	return		;funcret
  2939   0019FA                     __end_of_RB4_INT_APP_ISR_HIGH:
  2940                           	callstack 0
  2941                           
  2942 ;; *************** function _RB7_INT_APP_ISR_LOW *****************
  2943 ;; Defined at:
  2944 ;;		line 48 in file "app.c"
  2945 ;; Parameters:    Size  Location     Type
  2946 ;;		None
  2947 ;; Auto vars:     Size  Location     Type
  2948 ;;		None
  2949 ;; Return value:  Size  Location     Type
  2950 ;;                  1    wreg      void 
  2951 ;; Registers used:
  2952 ;;		wreg, fsr2l, fsr2h, status,2, status,0, prodl, prodh, cstack
  2953 ;; Tracked objects:
  2954 ;;		On entry : 0/0
  2955 ;;		On exit  : 0/0
  2956 ;;		Unchanged: 0/0
  2957 ;; Data sizes:     COMRAM   BANK0   BANK1   BANK2   BANK3   BANK4   BANK5   BANK6   BANK7   BANK8   BANK9  BANK10  BANK1
      +1  BANK12  BANK13  BANK14  BANK15
  2958 ;;      Params:         0       0       0       0       0       0       0       0       0       0       0       0       
      +0       0       0       0       0
  2959 ;;      Locals:         0       0       0       0       0       0       0       0       0       0       0       0       
      +0       0       0       0       0
  2960 ;;      Temps:          0       0       0       0       0       0       0       0       0       0       0       0       
      +0       0       0       0       0
  2961 ;;      Totals:         0       0       0       0       0       0       0       0       0       0       0       0       
      +0       0       0       0       0
  2962 ;;Total ram usage:        0 bytes
  2963 ;; Hardware stack levels used: 1
  2964 ;; Hardware stack levels required when called: 4
  2965 ;; This function calls:
  2966 ;;		_led_turn_off
  2967 ;; This function is called by:
  2968 ;;		_RB4_ISR
  2969 ;;		_RB5_ISR
  2970 ;;		_RB6_ISR
  2971 ;;		_RB7_ISR
  2972 ;; This function uses a non-reentrant model
  2973 ;;
  2974                           
  2975                           	psect	text23
  2976   0019FA                     __ptext23:
  2977                           	callstack 0
  2978   0019FA                     _RB7_INT_APP_ISR_LOW:
  2979                           	callstack 20
  2980   0019FA                     
  2981                           ;app.c: 50:     led_turn_off(&led3);
  2982   0019FA  0E1A               	movlw	low _led3
  2983   0019FC  6E3F               	movwf	led_turn_off@led^0,c
  2984   0019FE  ECA0  F00B         	call	_led_turn_off	;wreg free
  2985   001A02  0012               	return		;funcret
  2986   001A04                     __end_of_RB7_INT_APP_ISR_LOW:
  2987                           	callstack 0
  2988                           
  2989 ;; *************** function _led_turn_off *****************
  2990 ;; Defined at:
  2991 ;;		line 84 in file "ECU_Layer/led/ecu_led.c"
  2992 ;; Parameters:    Size  Location     Type
  2993 ;;  led             1    8[COMRAM] PTR const struct .
  2994 ;;		 -> led4(1), led3(1), led2(1), led1(1), 
  2995 ;; Auto vars:     Size  Location     Type
  2996 ;;  pin             1   10[COMRAM] struct .
  2997 ;;  ret             1    0        unsigned char 
  2998 ;; Return value:  Size  Location     Type
  2999 ;;                  1    wreg      unsigned char 
  3000 ;; Registers used:
  3001 ;;		wreg, fsr2l, fsr2h, status,2, status,0, prodl, prodh, cstack
  3002 ;; Tracked objects:
  3003 ;;		On entry : 0/0
  3004 ;;		On exit  : 0/0
  3005 ;;		Unchanged: 0/0
  3006 ;; Data sizes:     COMRAM   BANK0   BANK1   BANK2   BANK3   BANK4   BANK5   BANK6   BANK7   BANK8   BANK9  BANK10  BANK1
      +1  BANK12  BANK13  BANK14  BANK15
  3007 ;;      Params:         1       0       0       0       0       0       0       0       0       0       0       0       
      +0       0       0       0       0
  3008 ;;      Locals:         1       0       0       0       0       0       0       0       0       0       0       0       
      +0       0       0       0       0
  3009 ;;      Temps:          1       0       0       0       0       0       0       0       0       0       0       0       
      +0       0       0       0       0
  3010 ;;      Totals:         3       0       0       0       0       0       0       0       0       0       0       0       
      +0       0       0       0       0
  3011 ;;Total ram usage:        3 bytes
  3012 ;; Hardware stack levels used: 1
  3013 ;; Hardware stack levels required when called: 3
  3014 ;; This function calls:
  3015 ;;		_gpio_pin_write_logic
  3016 ;; This function is called by:
  3017 ;;		_RB5_INT_APP_ISR_HIGH
  3018 ;;		_RB5_INT_APP_ISR_LOW
  3019 ;;		_RB7_INT_APP_ISR_HIGH
  3020 ;;		_RB7_INT_APP_ISR_LOW
  3021 ;; This function uses a non-reentrant model
  3022 ;;
  3023                           
  3024                           	psect	text24
  3025   001740                     __ptext24:
  3026                           	callstack 0
  3027   001740                     _led_turn_off:
  3028                           	callstack 20
  3029   001740                     
  3030                           ;ECU_Layer/led/ecu_led.c: 87:     if (((void*)0) == led)
  3031   001740  503F               	movf	led_turn_off@led^0,w,c
  3032   001742  A4D8               	btfss	status,2,c
  3033   001744  EFA6  F00B         	goto	i1u153_21
  3034   001748  EFA8  F00B         	goto	i1u153_20
  3035   00174C                     i1u153_21:
  3036   00174C  EFAA  F00B         	goto	i1l23
  3037   001750                     i1u153_20:
  3038   001750                     
  3039                           ;ECU_Layer/led/ecu_led.c: 90:     }
  3040   001750  EFD4  F00B         	goto	i1l27
  3041   001754                     i1l23:
  3042                           
  3043                           ;ECU_Layer/led/ecu_led.c: 92:     {;ECU_Layer/led/ecu_led.c: 93:         pin_config_t pi
      +                          n = {
  3044   001754  C034  F041         	movff	led_turn_off@F3166,led_turn_off@pin
  3045   001758  503F               	movf	led_turn_off@led^0,w,c
  3046   00175A  6ED9               	movwf	fsr2l,c
  3047   00175C  6ADA               	clrf	fsr2h,c
  3048   00175E  50DF               	movf	223,w,c
  3049   001760  0B0F               	andlw	15
  3050   001762  6E40               	movwf	??_led_turn_off^0,c
  3051   001764  5041               	movf	led_turn_off@pin^0,w,c
  3052   001766  1840               	xorwf	??_led_turn_off^0,w,c
  3053   001768  0BF8               	andlw	-8
  3054   00176A  1840               	xorwf	??_led_turn_off^0,w,c
  3055   00176C  6E41               	movwf	led_turn_off@pin^0,c
  3056   00176E  503F               	movf	led_turn_off@led^0,w,c
  3057   001770  6ED9               	movwf	fsr2l,c
  3058   001772  6ADA               	clrf	fsr2h,c
  3059   001774  38DF               	swapf	223,w,c
  3060   001776  0B07               	andlw	7
  3061   001778  6E40               	movwf	??_led_turn_off^0,c
  3062   00177A  4640               	rlncf	??_led_turn_off^0,f,c
  3063   00177C  4640               	rlncf	??_led_turn_off^0,f,c
  3064   00177E  4640               	rlncf	??_led_turn_off^0,f,c
  3065   001780  5041               	movf	led_turn_off@pin^0,w,c
  3066   001782  1840               	xorwf	??_led_turn_off^0,w,c
  3067   001784  0BC7               	andlw	-57
  3068   001786  1840               	xorwf	??_led_turn_off^0,w,c
  3069   001788  6E41               	movwf	led_turn_off@pin^0,c
  3070   00178A  9C41               	bcf	led_turn_off@pin^0,6,c
  3071   00178C  503F               	movf	led_turn_off@led^0,w,c
  3072   00178E  6ED9               	movwf	fsr2l,c
  3073   001790  6ADA               	clrf	fsr2h,c
  3074   001792  AEDF               	btfss	indf2,7,c
  3075   001794  D002               	bra	i1u154_25
  3076   001796  8E41               	bsf	led_turn_off@pin^0,7,c
  3077   001798  D001               	bra	i1u154_27
  3078   00179A                     i1u154_25:
  3079   00179A  9E41               	bcf	led_turn_off@pin^0,7,c
  3080   00179C                     i1u154_27:
  3081   00179C                     
  3082                           ;ECU_Layer/led/ecu_led.c: 99:         gpio_pin_write_logic(&pin, GPIO_LOW);
  3083   00179C  0E41               	movlw	low led_turn_off@pin
  3084   00179E  6E37               	movwf	gpio_pin_write_logic@_pin_config_t^0,c
  3085   0017A0  0E00               	movlw	0
  3086   0017A2  6E38               	movwf	gpio_pin_write_logic@logic^0,c
  3087   0017A4  EC01  F008         	call	_gpio_pin_write_logic	;wreg free
  3088   0017A8                     i1l27:
  3089   0017A8  0012               	return		;funcret
  3090   0017AA                     __end_of_led_turn_off:
  3091                           	callstack 0
  3092                           
  3093 ;; *************** function _led_turn_on *****************
  3094 ;; Defined at:
  3095 ;;		line 60 in file "ECU_Layer/led/ecu_led.c"
  3096 ;; Parameters:    Size  Location     Type
  3097 ;;  led             1    8[COMRAM] PTR const struct .
  3098 ;;		 -> led4(1), led3(1), led2(1), led1(1), 
  3099 ;; Auto vars:     Size  Location     Type
  3100 ;;  pin             1   10[COMRAM] struct .
  3101 ;;  ret             1    0        unsigned char 
  3102 ;; Return value:  Size  Location     Type
  3103 ;;                  1    wreg      unsigned char 
  3104 ;; Registers used:
  3105 ;;		wreg, fsr2l, fsr2h, status,2, status,0, prodl, prodh, cstack
  3106 ;; Tracked objects:
  3107 ;;		On entry : 0/0
  3108 ;;		On exit  : 0/0
  3109 ;;		Unchanged: 0/0
  3110 ;; Data sizes:     COMRAM   BANK0   BANK1   BANK2   BANK3   BANK4   BANK5   BANK6   BANK7   BANK8   BANK9  BANK10  BANK1
      +1  BANK12  BANK13  BANK14  BANK15
  3111 ;;      Params:         1       0       0       0       0       0       0       0       0       0       0       0       
      +0       0       0       0       0
  3112 ;;      Locals:         1       0       0       0       0       0       0       0       0       0       0       0       
      +0       0       0       0       0
  3113 ;;      Temps:          1       0       0       0       0       0       0       0       0       0       0       0       
      +0       0       0       0       0
  3114 ;;      Totals:         3       0       0       0       0       0       0       0       0       0       0       0       
      +0       0       0       0       0
  3115 ;;Total ram usage:        3 bytes
  3116 ;; Hardware stack levels used: 1
  3117 ;; Hardware stack levels required when called: 3
  3118 ;; This function calls:
  3119 ;;		_gpio_pin_write_logic
  3120 ;; This function is called by:
  3121 ;;		_RB4_INT_APP_ISR_HIGH
  3122 ;;		_RB4_INT_APP_ISR_LOW
  3123 ;;		_RB6_INT_APP_ISR_HIGH
  3124 ;;		_RB6_INT_APP_ISR_LOW
  3125 ;; This function uses a non-reentrant model
  3126 ;;
  3127                           
  3128                           	psect	text25
  3129   0017AA                     __ptext25:
  3130                           	callstack 0
  3131   0017AA                     _led_turn_on:
  3132                           	callstack 20
  3133   0017AA                     
  3134                           ;ECU_Layer/led/ecu_led.c: 63:     if (((void*)0) == led)
  3135   0017AA  503F               	movf	led_turn_on@led^0,w,c
  3136   0017AC  A4D8               	btfss	status,2,c
  3137   0017AE  EFDB  F00B         	goto	i1u151_21
  3138   0017B2  EFDD  F00B         	goto	i1u151_20
  3139   0017B6                     i1u151_21:
  3140   0017B6  EFDF  F00B         	goto	i1l16
  3141   0017BA                     i1u151_20:
  3142   0017BA                     
  3143                           ;ECU_Layer/led/ecu_led.c: 66:     }
  3144   0017BA  EF09  F00C         	goto	i1l20
  3145   0017BE                     i1l16:
  3146                           
  3147                           ;ECU_Layer/led/ecu_led.c: 68:     {;ECU_Layer/led/ecu_led.c: 69:         pin_config_t pi
      +                          n = {
  3148   0017BE  C035  F041         	movff	led_turn_on@F3161,led_turn_on@pin
  3149   0017C2  503F               	movf	led_turn_on@led^0,w,c
  3150   0017C4  6ED9               	movwf	fsr2l,c
  3151   0017C6  6ADA               	clrf	fsr2h,c
  3152   0017C8  50DF               	movf	223,w,c
  3153   0017CA  0B0F               	andlw	15
  3154   0017CC  6E40               	movwf	??_led_turn_on^0,c
  3155   0017CE  5041               	movf	led_turn_on@pin^0,w,c
  3156   0017D0  1840               	xorwf	??_led_turn_on^0,w,c
  3157   0017D2  0BF8               	andlw	-8
  3158   0017D4  1840               	xorwf	??_led_turn_on^0,w,c
  3159   0017D6  6E41               	movwf	led_turn_on@pin^0,c
  3160   0017D8  503F               	movf	led_turn_on@led^0,w,c
  3161   0017DA  6ED9               	movwf	fsr2l,c
  3162   0017DC  6ADA               	clrf	fsr2h,c
  3163   0017DE  38DF               	swapf	223,w,c
  3164   0017E0  0B07               	andlw	7
  3165   0017E2  6E40               	movwf	??_led_turn_on^0,c
  3166   0017E4  4640               	rlncf	??_led_turn_on^0,f,c
  3167   0017E6  4640               	rlncf	??_led_turn_on^0,f,c
  3168   0017E8  4640               	rlncf	??_led_turn_on^0,f,c
  3169   0017EA  5041               	movf	led_turn_on@pin^0,w,c
  3170   0017EC  1840               	xorwf	??_led_turn_on^0,w,c
  3171   0017EE  0BC7               	andlw	-57
  3172   0017F0  1840               	xorwf	??_led_turn_on^0,w,c
  3173   0017F2  6E41               	movwf	led_turn_on@pin^0,c
  3174   0017F4  9C41               	bcf	led_turn_on@pin^0,6,c
  3175   0017F6  503F               	movf	led_turn_on@led^0,w,c
  3176   0017F8  6ED9               	movwf	fsr2l,c
  3177   0017FA  6ADA               	clrf	fsr2h,c
  3178   0017FC  AEDF               	btfss	indf2,7,c
  3179   0017FE  D002               	bra	i1u152_25
  3180   001800  8E41               	bsf	led_turn_on@pin^0,7,c
  3181   001802  D001               	bra	i1u152_27
  3182   001804                     i1u152_25:
  3183   001804  9E41               	bcf	led_turn_on@pin^0,7,c
  3184   001806                     i1u152_27:
  3185   001806                     
  3186                           ;ECU_Layer/led/ecu_led.c: 75:         gpio_pin_write_logic(&pin, GPIO_HIGH);
  3187   001806  0E41               	movlw	low led_turn_on@pin
  3188   001808  6E37               	movwf	gpio_pin_write_logic@_pin_config_t^0,c
  3189   00180A  0E01               	movlw	1
  3190   00180C  6E38               	movwf	gpio_pin_write_logic@logic^0,c
  3191   00180E  EC01  F008         	call	_gpio_pin_write_logic	;wreg free
  3192   001812                     i1l20:
  3193   001812  0012               	return		;funcret
  3194   001814                     __end_of_led_turn_on:
  3195                           	callstack 0
  3196                           
  3197 ;; *************** function _gpio_pin_write_logic *****************
  3198 ;; Defined at:
  3199 ;;		line 95 in file "MCAL_Layer/GPIO/hal_gpio.c"
  3200 ;; Parameters:    Size  Location     Type
  3201 ;;  _pin_config_    1    0[COMRAM] PTR const struct .
  3202 ;;		 -> led_turn_off@pin(1), led_turn_on@pin(1), 
  3203 ;;  logic           1    1[COMRAM] enum E3074
  3204 ;; Auto vars:     Size  Location     Type
  3205 ;;  ret             1    7[COMRAM] unsigned char 
  3206 ;; Return value:  Size  Location     Type
  3207 ;;                  1    wreg      unsigned char 
  3208 ;; Registers used:
  3209 ;;		wreg, fsr2l, fsr2h, status,2, status,0, prodl, prodh
  3210 ;; Tracked objects:
  3211 ;;		On entry : 0/0
  3212 ;;		On exit  : 0/0
  3213 ;;		Unchanged: 0/0
  3214 ;; Data sizes:     COMRAM   BANK0   BANK1   BANK2   BANK3   BANK4   BANK5   BANK6   BANK7   BANK8   BANK9  BANK10  BANK1
      +1  BANK12  BANK13  BANK14  BANK15
  3215 ;;      Params:         2       0       0       0       0       0       0       0       0       0       0       0       
      +0       0       0       0       0
  3216 ;;      Locals:         1       0       0       0       0       0       0       0       0       0       0       0       
      +0       0       0       0       0
  3217 ;;      Temps:          5       0       0       0       0       0       0       0       0       0       0       0       
      +0       0       0       0       0
  3218 ;;      Totals:         8       0       0       0       0       0       0       0       0       0       0       0       
      +0       0       0       0       0
  3219 ;;Total ram usage:        8 bytes
  3220 ;; Hardware stack levels used: 1
  3221 ;; Hardware stack levels required when called: 2
  3222 ;; This function calls:
  3223 ;;		Nothing
  3224 ;; This function is called by:
  3225 ;;		_led_turn_on
  3226 ;;		_led_turn_off
  3227 ;;		_seven_segment_write_number
  3228 ;; This function uses a non-reentrant model
  3229 ;;
  3230                           
  3231                           	psect	text26
  3232   001002                     __ptext26:
  3233                           	callstack 0
  3234   001002                     _gpio_pin_write_logic:
  3235                           	callstack 20
  3236   001002                     
  3237                           ;MCAL_Layer/GPIO/hal_gpio.c: 95: Std_ReturnType gpio_pin_write_logic(const pin_config_t 
      +                          *_pin_config_t, logic_t logic);MCAL_Layer/GPIO/hal_gpio.c: 96: {;MCAL_Layer/GPIO/hal_gpi
      +                          o.c: 97:     Std_ReturnType ret = (Std_ReturnType)0x00u;
  3238   001002  0E00               	movlw	0
  3239   001004  6E3E               	movwf	gpio_pin_write_logic@ret^0,c
  3240                           
  3241                           ;MCAL_Layer/GPIO/hal_gpio.c: 98:     if (((void*)0) == _pin_config_t || _pin_config_t->p
      +                          in > 8 - 1)
  3242   001006  5037               	movf	gpio_pin_write_logic@_pin_config_t^0,w,c
  3243   001008  B4D8               	btfsc	status,2,c
  3244   00100A  EF09  F008         	goto	i1u139_21
  3245   00100E  EF0B  F008         	goto	i1u139_20
  3246   001012                     i1u139_21:
  3247   001012  EF1B  F008         	goto	i1l2044
  3248   001016                     i1u139_20:
  3249   001016  5037               	movf	gpio_pin_write_logic@_pin_config_t^0,w,c
  3250   001018  6ED9               	movwf	fsr2l,c
  3251   00101A  6ADA               	clrf	fsr2h,c
  3252   00101C  30DF               	rrcf	223,w,c
  3253   00101E  32E8               	rrcf	wreg,f,c
  3254   001020  32E8               	rrcf	wreg,f,c
  3255   001022  0B07               	andlw	7
  3256   001024  6E39               	movwf	??_gpio_pin_write_logic^0,c
  3257   001026  0E07               	movlw	7
  3258   001028  6439               	cpfsgt	??_gpio_pin_write_logic^0,c
  3259   00102A  EF19  F008         	goto	i1u140_21
  3260   00102E  EF1B  F008         	goto	i1u140_20
  3261   001032                     i1u140_21:
  3262   001032  EF9D  F008         	goto	i1l2056
  3263   001036                     i1u140_20:
  3264   001036                     i1l2044:
  3265                           
  3266                           ;MCAL_Layer/GPIO/hal_gpio.c: 99:     {;MCAL_Layer/GPIO/hal_gpio.c: 100:         ret = (S
      +                          td_ReturnType)0x01u;
  3267   001036  0E01               	movlw	1
  3268   001038  6E3E               	movwf	gpio_pin_write_logic@ret^0,c
  3269                           
  3270                           ;MCAL_Layer/GPIO/hal_gpio.c: 101:     }
  3271   00103A  EFB2  F008         	goto	i1l2058
  3272   00103E                     i1l2046:
  3273                           
  3274                           ;MCAL_Layer/GPIO/hal_gpio.c: 107:                 (*lat_registers[_pin_config_t->port] |
      +                          = ((uint8)1 << _pin_config_t->pin));
  3275   00103E  5037               	movf	gpio_pin_write_logic@_pin_config_t^0,w,c
  3276   001040  6ED9               	movwf	fsr2l,c
  3277   001042  6ADA               	clrf	fsr2h,c
  3278   001044  30DF               	rrcf	223,w,c
  3279   001046  32E8               	rrcf	wreg,f,c
  3280   001048  32E8               	rrcf	wreg,f,c
  3281   00104A  0B07               	andlw	7
  3282   00104C  6E39               	movwf	??_gpio_pin_write_logic^0,c
  3283   00104E  0E01               	movlw	1
  3284   001050  6E3A               	movwf	(??_gpio_pin_write_logic+1)^0,c
  3285   001052  2A39               	incf	??_gpio_pin_write_logic^0,f,c
  3286   001054  EF2E  F008         	goto	i1u141_24
  3287   001058                     i1u141_25:
  3288   001058  90D8               	bcf	status,0,c
  3289   00105A  363A               	rlcf	(??_gpio_pin_write_logic+1)^0,f,c
  3290   00105C                     i1u141_24:
  3291   00105C  2E39               	decfsz	??_gpio_pin_write_logic^0,f,c
  3292   00105E  EF2C  F008         	goto	i1u141_25
  3293   001062  5037               	movf	gpio_pin_write_logic@_pin_config_t^0,w,c
  3294   001064  6ED9               	movwf	fsr2l,c
  3295   001066  6ADA               	clrf	fsr2h,c
  3296   001068  50DF               	movf	223,w,c
  3297   00106A  0B07               	andlw	7
  3298   00106C  0D02               	mullw	2
  3299   00106E  50F3               	movf	243,w,c
  3300   001070  0F0B               	addlw	low _lat_registers
  3301   001072  6ED9               	movwf	fsr2l,c
  3302   001074  6ADA               	clrf	fsr2h,c
  3303   001076  CFDE F03B          	movff	postinc2,??_gpio_pin_write_logic+2
  3304   00107A  CFDD F03C          	movff	postdec2,??_gpio_pin_write_logic+3
  3305   00107E  C03B  FFD9         	movff	??_gpio_pin_write_logic+2,fsr2l
  3306   001082  C03C  FFDA         	movff	??_gpio_pin_write_logic+3,fsr2h
  3307   001086  503A               	movf	(??_gpio_pin_write_logic+1)^0,w,c
  3308   001088  12DF               	iorwf	indf2,f,c
  3309                           
  3310                           ;MCAL_Layer/GPIO/hal_gpio.c: 108:                 break;
  3311   00108A  EFB2  F008         	goto	i1l2058
  3312   00108E                     i1l2048:
  3313                           
  3314                           ;MCAL_Layer/GPIO/hal_gpio.c: 110:                 (*lat_registers[_pin_config_t->port] &
      +                          = ~((uint8)1 << _pin_config_t->pin));
  3315   00108E  5037               	movf	gpio_pin_write_logic@_pin_config_t^0,w,c
  3316   001090  6ED9               	movwf	fsr2l,c
  3317   001092  6ADA               	clrf	fsr2h,c
  3318   001094  30DF               	rrcf	223,w,c
  3319   001096  32E8               	rrcf	wreg,f,c
  3320   001098  32E8               	rrcf	wreg,f,c
  3321   00109A  0B07               	andlw	7
  3322   00109C  6E39               	movwf	??_gpio_pin_write_logic^0,c
  3323   00109E  0E01               	movlw	1
  3324   0010A0  6E3A               	movwf	(??_gpio_pin_write_logic+1)^0,c
  3325   0010A2  2A39               	incf	??_gpio_pin_write_logic^0,f,c
  3326   0010A4  EF56  F008         	goto	i1u142_24
  3327   0010A8                     i1u142_25:
  3328   0010A8  90D8               	bcf	status,0,c
  3329   0010AA  363A               	rlcf	(??_gpio_pin_write_logic+1)^0,f,c
  3330   0010AC                     i1u142_24:
  3331   0010AC  2E39               	decfsz	??_gpio_pin_write_logic^0,f,c
  3332   0010AE  EF54  F008         	goto	i1u142_25
  3333   0010B2  503A               	movf	(??_gpio_pin_write_logic+1)^0,w,c
  3334   0010B4  0AFF               	xorlw	255
  3335   0010B6  6E3B               	movwf	(??_gpio_pin_write_logic+2)^0,c
  3336   0010B8  5037               	movf	gpio_pin_write_logic@_pin_config_t^0,w,c
  3337   0010BA  6ED9               	movwf	fsr2l,c
  3338   0010BC  6ADA               	clrf	fsr2h,c
  3339   0010BE  50DF               	movf	223,w,c
  3340   0010C0  0B07               	andlw	7
  3341   0010C2  0D02               	mullw	2
  3342   0010C4  50F3               	movf	243,w,c
  3343   0010C6  0F0B               	addlw	low _lat_registers
  3344   0010C8  6ED9               	movwf	fsr2l,c
  3345   0010CA  6ADA               	clrf	fsr2h,c
  3346   0010CC  CFDE F03C          	movff	postinc2,??_gpio_pin_write_logic+3
  3347   0010D0  CFDD F03D          	movff	postdec2,??_gpio_pin_write_logic+4
  3348   0010D4  C03C  FFD9         	movff	??_gpio_pin_write_logic+3,fsr2l
  3349   0010D8  C03D  FFDA         	movff	??_gpio_pin_write_logic+4,fsr2h
  3350   0010DC  503B               	movf	(??_gpio_pin_write_logic+2)^0,w,c
  3351   0010DE  16DF               	andwf	indf2,f,c
  3352                           
  3353                           ;MCAL_Layer/GPIO/hal_gpio.c: 111:                 break;
  3354   0010E0  EFB2  F008         	goto	i1l2058
  3355   0010E4                     i1l2050:
  3356                           
  3357                           ;MCAL_Layer/GPIO/hal_gpio.c: 113:                 (*lat_registers[_pin_config_t->port] &
      +                          = ~((uint8)1 << _pin_config_t->pin));
  3358   0010E4  5037               	movf	gpio_pin_write_logic@_pin_config_t^0,w,c
  3359   0010E6  6ED9               	movwf	fsr2l,c
  3360   0010E8  6ADA               	clrf	fsr2h,c
  3361   0010EA  30DF               	rrcf	223,w,c
  3362   0010EC  32E8               	rrcf	wreg,f,c
  3363   0010EE  32E8               	rrcf	wreg,f,c
  3364   0010F0  0B07               	andlw	7
  3365   0010F2  6E39               	movwf	??_gpio_pin_write_logic^0,c
  3366   0010F4  0E01               	movlw	1
  3367   0010F6  6E3A               	movwf	(??_gpio_pin_write_logic+1)^0,c
  3368   0010F8  2A39               	incf	??_gpio_pin_write_logic^0,f,c
  3369   0010FA  EF81  F008         	goto	i1u143_24
  3370   0010FE                     i1u143_25:
  3371   0010FE  90D8               	bcf	status,0,c
  3372   001100  363A               	rlcf	(??_gpio_pin_write_logic+1)^0,f,c
  3373   001102                     i1u143_24:
  3374   001102  2E39               	decfsz	??_gpio_pin_write_logic^0,f,c
  3375   001104  EF7F  F008         	goto	i1u143_25
  3376   001108  503A               	movf	(??_gpio_pin_write_logic+1)^0,w,c
  3377   00110A  0AFF               	xorlw	255
  3378   00110C  6E3B               	movwf	(??_gpio_pin_write_logic+2)^0,c
  3379   00110E  5037               	movf	gpio_pin_write_logic@_pin_config_t^0,w,c
  3380   001110  6ED9               	movwf	fsr2l,c
  3381   001112  6ADA               	clrf	fsr2h,c
  3382   001114  50DF               	movf	223,w,c
  3383   001116  0B07               	andlw	7
  3384   001118  0D02               	mullw	2
  3385   00111A  50F3               	movf	243,w,c
  3386   00111C  0F0B               	addlw	low _lat_registers
  3387   00111E  6ED9               	movwf	fsr2l,c
  3388   001120  6ADA               	clrf	fsr2h,c
  3389   001122  CFDE F03C          	movff	postinc2,??_gpio_pin_write_logic+3
  3390   001126  CFDD F03D          	movff	postdec2,??_gpio_pin_write_logic+4
  3391   00112A  C03C  FFD9         	movff	??_gpio_pin_write_logic+3,fsr2l
  3392   00112E  C03D  FFDA         	movff	??_gpio_pin_write_logic+4,fsr2h
  3393   001132  503B               	movf	(??_gpio_pin_write_logic+2)^0,w,c
  3394   001134  16DF               	andwf	indf2,f,c
  3395   001136  EF1B  F008         	goto	i1l2044
  3396   00113A                     i1l2056:
  3397   00113A  5038               	movf	gpio_pin_write_logic@logic^0,w,c
  3398   00113C  6E39               	movwf	??_gpio_pin_write_logic^0,c
  3399   00113E  6A3A               	clrf	(??_gpio_pin_write_logic+1)^0,c
  3400                           
  3401                           ; Switch on 2 bytes has been partitioned into a top level switch of size 1, and 1 sub-sw
      +                          itches
  3402                           ; Switch size 1, requested type "simple"
  3403                           ; Number of cases is 1, Range of values is 0 to 0
  3404                           ; switch strategies available:
  3405                           ; Name         Instructions Cycles
  3406                           ; simple_byte            4     3 (average)
  3407                           ;	Chosen strategy is simple_byte
  3408   001140  503A               	movf	(??_gpio_pin_write_logic+1)^0,w,c
  3409   001142  0A00               	xorlw	0	; case 0
  3410   001144  B4D8               	btfsc	status,2,c
  3411   001146  EFA7  F008         	goto	i1l2754
  3412   00114A  EF72  F008         	goto	i1l2050
  3413   00114E                     i1l2754:
  3414                           
  3415                           ; Switch size 1, requested type "simple"
  3416                           ; Number of cases is 2, Range of values is 0 to 1
  3417                           ; switch strategies available:
  3418                           ; Name         Instructions Cycles
  3419                           ; simple_byte            7     4 (average)
  3420                           ;	Chosen strategy is simple_byte
  3421   00114E  5039               	movf	??_gpio_pin_write_logic^0,w,c
  3422   001150  0A00               	xorlw	0	; case 0
  3423   001152  B4D8               	btfsc	status,2,c
  3424   001154  EF47  F008         	goto	i1l2048
  3425   001158  0A01               	xorlw	1	; case 1
  3426   00115A  B4D8               	btfsc	status,2,c
  3427   00115C  EF1F  F008         	goto	i1l2046
  3428   001160  EF72  F008         	goto	i1l2050
  3429   001164                     i1l2058:
  3430                           
  3431                           ;MCAL_Layer/GPIO/hal_gpio.c: 118:     return (ret);
  3432   001164  503E               	movf	gpio_pin_write_logic@ret^0,w,c
  3433   001166  0012               	return		;funcret
  3434   001168                     __end_of_gpio_pin_write_logic:
  3435                           	callstack 0
  3436                           
  3437 ;; *************** function _INT1_ISR *****************
  3438 ;; Defined at:
  3439 ;;		line 473 in file "MCAL_Layer/Interrupt/mcal_INTx_external_interrupt.c"
  3440 ;; Parameters:    Size  Location     Type
  3441 ;;		None
  3442 ;; Auto vars:     Size  Location     Type
  3443 ;;		None
  3444 ;; Return value:  Size  Location     Type
  3445 ;;                  1    wreg      void 
  3446 ;; Registers used:
  3447 ;;		None
  3448 ;; Tracked objects:
  3449 ;;		On entry : 0/0
  3450 ;;		On exit  : 0/0
  3451 ;;		Unchanged: 0/0
  3452 ;; Data sizes:     COMRAM   BANK0   BANK1   BANK2   BANK3   BANK4   BANK5   BANK6   BANK7   BANK8   BANK9  BANK10  BANK1
      +1  BANK12  BANK13  BANK14  BANK15
  3453 ;;      Params:         0       0       0       0       0       0       0       0       0       0       0       0       
      +0       0       0       0       0
  3454 ;;      Locals:         0       0       0       0       0       0       0       0       0       0       0       0       
      +0       0       0       0       0
  3455 ;;      Temps:          0       0       0       0       0       0       0       0       0       0       0       0       
      +0       0       0       0       0
  3456 ;;      Totals:         0       0       0       0       0       0       0       0       0       0       0       0       
      +0       0       0       0       0
  3457 ;;Total ram usage:        0 bytes
  3458 ;; Hardware stack levels used: 1
  3459 ;; Hardware stack levels required when called: 2
  3460 ;; This function calls:
  3461 ;;		Nothing
  3462 ;; This function is called by:
  3463 ;;		_Interrupt_Manager_Low
  3464 ;; This function uses a non-reentrant model
  3465 ;;
  3466                           
  3467                           	psect	text27
  3468   001A08                     __ptext27:
  3469                           	callstack 0
  3470   001A08                     _INT1_ISR:
  3471                           	callstack 23
  3472   001A08                     
  3473                           ;MCAL_Layer/Interrupt/mcal_INTx_external_interrupt.c: 476:     (INTCON3bits.INT1IF = 0);
  3474   001A08  90F0               	bcf	240,0,c	;volatile
  3475   001A0A  0012               	return		;funcret
  3476   001A0C                     __end_of_INT1_ISR:
  3477                           	callstack 0
  3478                           
  3479 ;; *************** function _Interrupt_Manager_High *****************
  3480 ;; Defined at:
  3481 ;;		line 17 in file "MCAL_Layer/Interrupt/mcal_interrupt_manager.c"
  3482 ;; Parameters:    Size  Location     Type
  3483 ;;		None
  3484 ;; Auto vars:     Size  Location     Type
  3485 ;;		None
  3486 ;; Return value:  Size  Location     Type
  3487 ;;                  1    wreg      void 
  3488 ;; Registers used:
  3489 ;;		cstack
  3490 ;; Tracked objects:
  3491 ;;		On entry : 0/0
  3492 ;;		On exit  : 0/0
  3493 ;;		Unchanged: 0/0
  3494 ;; Data sizes:     COMRAM   BANK0   BANK1   BANK2   BANK3   BANK4   BANK5   BANK6   BANK7   BANK8   BANK9  BANK10  BANK1
      +1  BANK12  BANK13  BANK14  BANK15
  3495 ;;      Params:         0       0       0       0       0       0       0       0       0       0       0       0       
      +0       0       0       0       0
  3496 ;;      Locals:         0       0       0       0       0       0       0       0       0       0       0       0       
      +0       0       0       0       0
  3497 ;;      Temps:          0       0       0       0       0       0       0       0       0       0       0       0       
      +0       0       0       0       0
  3498 ;;      Totals:         0       0       0       0       0       0       0       0       0       0       0       0       
      +0       0       0       0       0
  3499 ;;Total ram usage:        0 bytes
  3500 ;; Hardware stack levels used: 1
  3501 ;; Hardware stack levels required when called: 1
  3502 ;; This function calls:
  3503 ;;		_INT0_ISR
  3504 ;;		_INT2_ISR
  3505 ;; This function is called by:
  3506 ;;		Interrupt level 2
  3507 ;; This function uses a non-reentrant model
  3508 ;;
  3509                           
  3510                           	psect	intcode
  3511   000008                     __pintcode:
  3512                           	callstack 0
  3513   000008                     _Interrupt_Manager_High:
  3514                           	callstack 20
  3515                           
  3516                           ;incstack = 0
  3517   000008  824C               	bsf	int$flags,1,c	;set compiler interrupt flag (level 2)
  3518   00000A  EF85  F00C         	goto	int_func
  3519                           
  3520                           	psect	intcode_body
  3521   00190A                     __pintcode_body:
  3522                           	callstack 20
  3523   00190A                     int_func:
  3524                           	callstack 20
  3525   00190A                     
  3526                           ;MCAL_Layer/Interrupt/mcal_interrupt_manager.c: 19:     if ((1 == INTCONbits.INT0IE) && 
      +                          (1 == INTCONbits.INT0IF))
  3527   00190A  A8F2               	btfss	242,4,c	;volatile
  3528   00190C  EF8A  F00C         	goto	i2u80_41
  3529   001910  EF8C  F00C         	goto	i2u80_40
  3530   001914                     i2u80_41:
  3531   001914  EF95  F00C         	goto	i2l1704
  3532   001918                     i2u80_40:
  3533   001918  A2F2               	btfss	242,1,c	;volatile
  3534   00191A  EF91  F00C         	goto	i2u81_41
  3535   00191E  EF93  F00C         	goto	i2u81_40
  3536   001922                     i2u81_41:
  3537   001922  EF95  F00C         	goto	i2l1704
  3538   001926                     i2u81_40:
  3539   001926                     
  3540                           ;MCAL_Layer/Interrupt/mcal_interrupt_manager.c: 20:     {;MCAL_Layer/Interrupt/mcal_inte
      +                          rrupt_manager.c: 21:         INT0_ISR();
  3541   001926  EC08  F00D         	call	_INT0_ISR	;wreg free
  3542   00192A                     i2l1704:
  3543                           
  3544                           ;MCAL_Layer/Interrupt/mcal_interrupt_manager.c: 23:     if ((1 == INTCON3bits.INT2IE) &&
      +                           (1 == INTCON3bits.INT2IF))
  3545   00192A  A8F0               	btfss	240,4,c	;volatile
  3546   00192C  EF9A  F00C         	goto	i2u82_41
  3547   001930  EF9C  F00C         	goto	i2u82_40
  3548   001934                     i2u82_41:
  3549   001934  EFA5  F00C         	goto	i2l214
  3550   001938                     i2u82_40:
  3551   001938  A2F0               	btfss	240,1,c	;volatile
  3552   00193A  EFA1  F00C         	goto	i2u83_41
  3553   00193E  EFA3  F00C         	goto	i2u83_40
  3554   001942                     i2u83_41:
  3555   001942  EFA5  F00C         	goto	i2l214
  3556   001946                     i2u83_40:
  3557   001946                     
  3558                           ;MCAL_Layer/Interrupt/mcal_interrupt_manager.c: 24:     {;MCAL_Layer/Interrupt/mcal_inte
      +                          rrupt_manager.c: 25:         INT2_ISR();
  3559   001946  EC06  F00D         	call	_INT2_ISR	;wreg free
  3560   00194A                     i2l214:
  3561   00194A  924C               	bcf	int$flags,1,c	;clear compiler interrupt flag (level 2)
  3562   00194C  0011               	retfie		f
  3563   00194E                     __end_of_Interrupt_Manager_High:
  3564                           	callstack 0
  3565                           
  3566 ;; *************** function _INT2_ISR *****************
  3567 ;; Defined at:
  3568 ;;		line 489 in file "MCAL_Layer/Interrupt/mcal_INTx_external_interrupt.c"
  3569 ;; Parameters:    Size  Location     Type
  3570 ;;		None
  3571 ;; Auto vars:     Size  Location     Type
  3572 ;;		None
  3573 ;; Return value:  Size  Location     Type
  3574 ;;                  1    wreg      void 
  3575 ;; Registers used:
  3576 ;;		None
  3577 ;; Tracked objects:
  3578 ;;		On entry : 0/0
  3579 ;;		On exit  : 0/0
  3580 ;;		Unchanged: 0/0
  3581 ;; Data sizes:     COMRAM   BANK0   BANK1   BANK2   BANK3   BANK4   BANK5   BANK6   BANK7   BANK8   BANK9  BANK10  BANK1
      +1  BANK12  BANK13  BANK14  BANK15
  3582 ;;      Params:         0       0       0       0       0       0       0       0       0       0       0       0       
      +0       0       0       0       0
  3583 ;;      Locals:         0       0       0       0       0       0       0       0       0       0       0       0       
      +0       0       0       0       0
  3584 ;;      Temps:          0       0       0       0       0       0       0       0       0       0       0       0       
      +0       0       0       0       0
  3585 ;;      Totals:         0       0       0       0       0       0       0       0       0       0       0       0       
      +0       0       0       0       0
  3586 ;;Total ram usage:        0 bytes
  3587 ;; Hardware stack levels used: 1
  3588 ;; This function calls:
  3589 ;;		Nothing
  3590 ;; This function is called by:
  3591 ;;		_Interrupt_Manager_High
  3592 ;; This function uses a non-reentrant model
  3593 ;;
  3594                           
  3595                           	psect	text29
  3596   001A0C                     __ptext29:
  3597                           	callstack 0
  3598   001A0C                     _INT2_ISR:
  3599                           	callstack 20
  3600   001A0C                     
  3601                           ;MCAL_Layer/Interrupt/mcal_INTx_external_interrupt.c: 492:     (INTCON3bits.INT2IF = 0);
  3602   001A0C  92F0               	bcf	240,1,c	;volatile
  3603   001A0E  0012               	return		;funcret
  3604   001A10                     __end_of_INT2_ISR:
  3605                           	callstack 0
  3606                           
  3607 ;; *************** function _INT0_ISR *****************
  3608 ;; Defined at:
  3609 ;;		line 457 in file "MCAL_Layer/Interrupt/mcal_INTx_external_interrupt.c"
  3610 ;; Parameters:    Size  Location     Type
  3611 ;;		None
  3612 ;; Auto vars:     Size  Location     Type
  3613 ;;		None
  3614 ;; Return value:  Size  Location     Type
  3615 ;;                  1    wreg      void 
  3616 ;; Registers used:
  3617 ;;		None
  3618 ;; Tracked objects:
  3619 ;;		On entry : 0/0
  3620 ;;		On exit  : 0/0
  3621 ;;		Unchanged: 0/0
  3622 ;; Data sizes:     COMRAM   BANK0   BANK1   BANK2   BANK3   BANK4   BANK5   BANK6   BANK7   BANK8   BANK9  BANK10  BANK1
      +1  BANK12  BANK13  BANK14  BANK15
  3623 ;;      Params:         0       0       0       0       0       0       0       0       0       0       0       0       
      +0       0       0       0       0
  3624 ;;      Locals:         0       0       0       0       0       0       0       0       0       0       0       0       
      +0       0       0       0       0
  3625 ;;      Temps:          0       0       0       0       0       0       0       0       0       0       0       0       
      +0       0       0       0       0
  3626 ;;      Totals:         0       0       0       0       0       0       0       0       0       0       0       0       
      +0       0       0       0       0
  3627 ;;Total ram usage:        0 bytes
  3628 ;; Hardware stack levels used: 1
  3629 ;; This function calls:
  3630 ;;		Nothing
  3631 ;; This function is called by:
  3632 ;;		_Interrupt_Manager_High
  3633 ;; This function uses a non-reentrant model
  3634 ;;
  3635                           
  3636                           	psect	text30
  3637   001A10                     __ptext30:
  3638                           	callstack 0
  3639   001A10                     _INT0_ISR:
  3640                           	callstack 20
  3641   001A10                     
  3642                           ;MCAL_Layer/Interrupt/mcal_INTx_external_interrupt.c: 460:     (INTCONbits.INT0IF = 0);
  3643   001A10  92F2               	bcf	242,1,c	;volatile
  3644   001A12  0012               	return		;funcret
  3645   001A14                     __end_of_INT0_ISR:
  3646                           	callstack 0
  3647                           
  3648                           	psect	smallconst
  3649   001000                     __psmallconst:
  3650                           	callstack 0
  3651   001000  00                 	db	0
  3652   001001  00                 	db	0	; dummy byte at the end
  3653   000000                     
  3654                           	psect	rparam
  3655   000000                     
  3656                           	psect	temp
  3657   00004C                     btemp:
  3658                           	callstack 0
  3659   00004C                     	ds	1
  3660   000000                     int$flags	set	btemp
  3661   000000                     wtemp8	set	btemp+1
  3662   000000                     ttemp5	set	btemp+1
  3663   000000                     ttemp6	set	btemp+4
  3664   000000                     ttemp7	set	btemp+8
  3665                           
  3666                           	psect	config
  3667                           
  3668                           ; Padding undefined space
  3669   300000                     	org	3145728
  3670   300000  FF                 	db	255
  3671                           
  3672                           ;Config register CONFIG1H @ 0x300001
  3673                           ;	Oscillator Selection bits
  3674                           ;	FOSC = RCIO6, External RC oscillator, port function on RA6
  3675                           ;	Fail-Safe Clock Monitor Enable bit
  3676                           ;	FCMEN = OFF, Fail-Safe Clock Monitor disabled
  3677                           ;	Internal/External Oscillator Switchover bit
  3678                           ;	IESO = OFF, Oscillator Switchover mode disabled
  3679   300001                     	org	3145729
  3680   300001  07                 	db	7
  3681                           
  3682                           ;Config register CONFIG2L @ 0x300002
  3683                           ;	Power-up Timer Enable bit
  3684                           ;	PWRTEN = OFF, PWRT disabled
  3685                           ;	Brown-out Reset Enable bits
  3686                           ;	BOREN = SBORDIS, Brown-out Reset enabled in hardware only (SBOREN is disabled)
  3687                           ;	Brown Out Reset Voltage bits
  3688                           ;	BORV = 18, VBOR set to 1.8 V nominal
  3689   300002                     	org	3145730
  3690   300002  1F                 	db	31
  3691                           
  3692                           ;Config register CONFIG2H @ 0x300003
  3693                           ;	Watchdog Timer Enable bit
  3694                           ;	WDTEN = ON, WDT is always enabled. SWDTEN bit has no effect
  3695                           ;	Watchdog Timer Postscale Select bits
  3696                           ;	WDTPS = 32768, 1:32768
  3697   300003                     	org	3145731
  3698   300003  1F                 	db	31
  3699                           
  3700                           ; Padding undefined space
  3701   300004                     	org	3145732
  3702   300004  FF                 	db	255
  3703                           
  3704                           ;Config register CONFIG3H @ 0x300005
  3705                           ;	CCP2 MUX bit
  3706                           ;	CCP2MX = PORTC, CCP2 input/output is multiplexed with RC1
  3707                           ;	PORTB A/D Enable bit
  3708                           ;	PBADEN = OFF, PORTB<4:0> pins are configured as digital I/O on Reset
  3709                           ;	Low-Power Timer1 Oscillator Enable bit
  3710                           ;	LPT1OSC = OFF, Timer1 configured for higher power operation
  3711                           ;	HFINTOSC Fast Start-up
  3712                           ;	HFOFST = ON, HFINTOSC starts clocking the CPU without waiting for the oscillator to st
      +                          ablize.
  3713                           ;	MCLR Pin Enable bit
  3714                           ;	MCLRE = ON, MCLR pin enabled; RE3 input pin disabled
  3715   300005                     	org	3145733
  3716   300005  89                 	db	137
  3717                           
  3718                           ;Config register CONFIG4L @ 0x300006
  3719                           ;	Stack Full/Underflow Reset Enable bit
  3720                           ;	STVREN = ON, Stack full/underflow will cause Reset
  3721                           ;	Single-Supply ICSP Enable bit
  3722                           ;	LVP = ON, Single-Supply ICSP enabled
  3723                           ;	Extended Instruction Set Enable bit
  3724                           ;	XINST = OFF, Instruction set extension and Indexed Addressing mode disabled (Legacy mo
      +                          de)
  3725                           ;	Background Debugger Enable bit
  3726                           ;	DEBUG = 0x1, unprogrammed default
  3727   300006                     	org	3145734
  3728   300006  85                 	db	133
  3729                           
  3730                           ; Padding undefined space
  3731   300007                     	org	3145735
  3732   300007  FF                 	db	255
  3733                           
  3734                           ;Config register CONFIG5L @ 0x300008
  3735                           ;	Code Protection Block 0
  3736                           ;	CP0 = OFF, Block 0 (000800-003FFFh) not code-protected
  3737                           ;	Code Protection Block 1
  3738                           ;	CP1 = OFF, Block 1 (004000-007FFFh) not code-protected
  3739                           ;	Code Protection Block 2
  3740                           ;	CP2 = OFF, Block 2 (008000-00BFFFh) not code-protected
  3741                           ;	Code Protection Block 3
  3742                           ;	CP3 = OFF, Block 3 (00C000-00FFFFh) not code-protected
  3743   300008                     	org	3145736
  3744   300008  0F                 	db	15
  3745                           
  3746                           ;Config register CONFIG5H @ 0x300009
  3747                           ;	Boot Block Code Protection bit
  3748                           ;	CPB = OFF, Boot block (000000-0007FFh) not code-protected
  3749                           ;	Data EEPROM Code Protection bit
  3750                           ;	CPD = OFF, Data EEPROM not code-protected
  3751   300009                     	org	3145737
  3752   300009  C0                 	db	192
  3753                           
  3754                           ;Config register CONFIG6L @ 0x30000A
  3755                           ;	Write Protection Block 0
  3756                           ;	WRT0 = OFF, Block 0 (000800-003FFFh) not write-protected
  3757                           ;	Write Protection Block 1
  3758                           ;	WRT1 = OFF, Block 1 (004000-007FFFh) not write-protected
  3759                           ;	Write Protection Block 2
  3760                           ;	WRT2 = OFF, Block 2 (008000-00BFFFh) not write-protected
  3761                           ;	Write Protection Block 3
  3762                           ;	WRT3 = OFF, Block 3 (00C000h-00FFFFh) not write-protected
  3763   30000A                     	org	3145738
  3764   30000A  0F                 	db	15
  3765                           
  3766                           ;Config register CONFIG6H @ 0x30000B
  3767                           ;	Configuration Register Write Protection bit
  3768                           ;	WRTC = OFF, Configuration registers (300000-3000FFh) not write-protected
  3769                           ;	Boot Block Write Protection bit
  3770                           ;	WRTB = OFF, Boot Block (000000-0007FFh) not write-protected
  3771                           ;	Data EEPROM Write Protection bit
  3772                           ;	WRTD = OFF, Data EEPROM not write-protected
  3773   30000B                     	org	3145739
  3774   30000B  E0                 	db	224
  3775                           
  3776                           ;Config register CONFIG7L @ 0x30000C
  3777                           ;	Table Read Protection Block 0
  3778                           ;	EBTR0 = OFF, Block 0 (000800-003FFFh) not protected from table reads executed in other
      +                           blocks
  3779                           ;	Table Read Protection Block 1
  3780                           ;	EBTR1 = OFF, Block 1 (004000-007FFFh) not protected from table reads executed in other
      +                           blocks
  3781                           ;	Table Read Protection Block 2
  3782                           ;	EBTR2 = OFF, Block 2 (008000-00BFFFh) not protected from table reads executed in other
      +                           blocks
  3783                           ;	Table Read Protection Block 3
  3784                           ;	EBTR3 = OFF, Block 3 (00C000-00FFFFh) not protected from table reads executed in other
      +                           blocks
  3785   30000C                     	org	3145740
  3786   30000C  0F                 	db	15
  3787                           
  3788                           ;Config register CONFIG7H @ 0x30000D
  3789                           ;	Boot Block Table Read Protection bit
  3790                           ;	EBTRB = OFF, Boot Block (000000-0007FFh) not protected from table reads executed in ot
      +                          her blocks
  3791   30000D                     	org	3145741
  3792   30000D  40                 	db	64
  3793                           tosu	equ	0xFFF
  3794                           tosh	equ	0xFFE
  3795                           tosl	equ	0xFFD
  3796                           stkptr	equ	0xFFC
  3797                           pclatu	equ	0xFFB
  3798                           pclath	equ	0xFFA
  3799                           pcl	equ	0xFF9
  3800                           tblptru	equ	0xFF8
  3801                           tblptrh	equ	0xFF7
  3802                           tblptrl	equ	0xFF6
  3803                           tablat	equ	0xFF5
  3804                           prodh	equ	0xFF4
  3805                           prodl	equ	0xFF3
  3806                           indf0	equ	0xFEF
  3807                           postinc0	equ	0xFEE
  3808                           postdec0	equ	0xFED
  3809                           preinc0	equ	0xFEC
  3810                           plusw0	equ	0xFEB
  3811                           fsr0h	equ	0xFEA
  3812                           fsr0l	equ	0xFE9
  3813                           wreg	equ	0xFE8
  3814                           indf1	equ	0xFE7
  3815                           postinc1	equ	0xFE6
  3816                           postdec1	equ	0xFE5
  3817                           preinc1	equ	0xFE4
  3818                           plusw1	equ	0xFE3
  3819                           fsr1h	equ	0xFE2
  3820                           fsr1l	equ	0xFE1
  3821                           bsr	equ	0xFE0
  3822                           indf2	equ	0xFDF
  3823                           postinc2	equ	0xFDE
  3824                           postdec2	equ	0xFDD
  3825                           preinc2	equ	0xFDC
  3826                           plusw2	equ	0xFDB
  3827                           fsr2h	equ	0xFDA
  3828                           fsr2l	equ	0xFD9
  3829                           status	equ	0xFD8

Data Sizes:
    Strings     0
    Constant    0
    Data        62
    BSS         26
    Persistent  0
    Stack       0

Auto Spaces:
    Space          Size  Autos    Used
    COMRAM           94     21      75
    BANK0           160     15      49
    BANK1           256      0       0
    BANK2           256      0       0
    BANK3           256      0       0
    BANK4           256      0       0
    BANK5           256      0       0
    BANK6           256      0       0
    BANK7           256      0       0
    BANK8           256      0       0
    BANK9           256      0       0
    BANK10          256      0       0
    BANK11          256      0       0
    BANK12          256      0       0
    BANK13          256      0       0
    BANK14          256      0       0
    BANK15           96      0       0

Pointer List with Targets:

    gpio_pin_direction_initialize@_pin_config_t	PTR const struct . size(1) Largest target is 6
		 -> led_initialize@pin(BANK0[1]), RB4_obj(BANK0[6]), RB5_obj(BANK0[6]), RB6_obj(BANK0[6]), 
		 -> RB7_obj(BANK0[6]), 

    gpio_pin_initialize@_pin_config_t	PTR const struct . size(1) Largest target is 6
		 -> led_initialize@pin(BANK0[1]), RB4_obj(BANK0[6]), RB5_obj(BANK0[6]), RB6_obj(BANK0[6]), 
		 -> RB7_obj(BANK0[6]), 

    gpio_pin_write_logic@_pin_config_t	PTR const struct . size(1) Largest target is 1
		 -> led_turn_off@pin(COMRAM[1]), led_turn_on@pin(COMRAM[1]), 

    INT0_INTERRUPT_HANDLER	PTR FTN()void  size(2) Largest target is 1
		 -> NULL(), 

    INT1_INTERRUPT_HANDLER	PTR FTN()void  size(2) Largest target is 1
		 -> NULL(), 

    INT2_INTERRUPT_HANDLER	PTR FTN()void  size(2) Largest target is 1
		 -> NULL(), 

    Interrupt_INTx_Clear_Flag@int_obj$EXT_interrupt_handler	PTR FTN()void  size(2) Largest target is 0

    Interrupt_INTx_Disable@int_obj$EXT_interrupt_handler	PTR FTN()void  size(2) Largest target is 0

    Interrupt_INTx_Edge_Init@int_obj$EXT_interrupt_handler	PTR FTN()void  size(2) Largest target is 0

    Interrupt_INTx_Enable@int_obj$EXT_interrupt_handler	PTR FTN()void  size(2) Largest target is 0

    Interrupt_INTx_Pin_Init@int_obj$EXT_interrupt_handler	PTR FTN()void  size(2) Largest target is 0

    Interrupt_INTx_Priority_Init@int_obj$EXT_interrupt_handler	PTR FTN()void  size(2) Largest target is 0

    Interrupt_INTx_Set_Interrupt_Handler@int_obj$EXT_interrupt_handler	PTR FTN()void  size(2) Largest target is 0

    Interrupt_RBx_Enable@int_obj	PTR const struct . size(1) Largest target is 6
		 -> RB4_obj(BANK0[6]), RB5_obj(BANK0[6]), RB6_obj(BANK0[6]), RB7_obj(BANK0[6]), 

    Interrupt_RBx_Init@int_obj	PTR const struct . size(1) Largest target is 6
		 -> RB4_obj(BANK0[6]), RB5_obj(BANK0[6]), RB6_obj(BANK0[6]), RB7_obj(BANK0[6]), 

    Interrupt_RBx_Pin_Init@int_obj	PTR const struct . size(1) Largest target is 6
		 -> RB4_obj(BANK0[6]), RB5_obj(BANK0[6]), RB6_obj(BANK0[6]), RB7_obj(BANK0[6]), 

    Interrupt_RBx_Pin_Init@int_obj$EXT_interrupt_handler_High	PTR FTN()void  size(2) Largest target is 1
		 -> RB4_INT_APP_ISR_HIGH(), RB5_INT_APP_ISR_HIGH(), RB6_INT_APP_ISR_HIGH(), RB7_INT_APP_ISR_HIGH(), 

    Interrupt_RBx_Pin_Init@int_obj$EXT_interrupt_handler_Low	PTR FTN()void  size(2) Largest target is 1
		 -> RB4_INT_APP_ISR_LOW(), RB5_INT_APP_ISR_LOW(), RB6_INT_APP_ISR_LOW(), RB7_INT_APP_ISR_LOW(), 

    Interrupt_RBx_Priority_Init@int_obj	PTR const struct . size(1) Largest target is 6
		 -> RB4_obj(BANK0[6]), RB5_obj(BANK0[6]), RB6_obj(BANK0[6]), RB7_obj(BANK0[6]), 

    Interrupt_RBx_Priority_Init@int_obj$EXT_interrupt_handler_High	PTR FTN()void  size(2) Largest target is 1
		 -> RB4_INT_APP_ISR_HIGH(), RB5_INT_APP_ISR_HIGH(), RB6_INT_APP_ISR_HIGH(), RB7_INT_APP_ISR_HIGH(), 

    Interrupt_RBx_Priority_Init@int_obj$EXT_interrupt_handler_Low	PTR FTN()void  size(2) Largest target is 1
		 -> RB4_INT_APP_ISR_LOW(), RB5_INT_APP_ISR_LOW(), RB6_INT_APP_ISR_LOW(), RB7_INT_APP_ISR_LOW(), 

    Interrupt_RBx_Set_Interrupt_Handler@int_obj	PTR const struct . size(1) Largest target is 6
		 -> RB4_obj(BANK0[6]), RB5_obj(BANK0[6]), RB6_obj(BANK0[6]), RB7_obj(BANK0[6]), 

    Interrupt_RBx_Set_Interrupt_Handler@int_obj$EXT_interrupt_handler_High	PTR FTN()void  size(2) Largest target is 1
		 -> RB4_INT_APP_ISR_HIGH(), RB5_INT_APP_ISR_HIGH(), RB6_INT_APP_ISR_HIGH(), RB7_INT_APP_ISR_HIGH(), 

    Interrupt_RBx_Set_Interrupt_Handler@int_obj$EXT_interrupt_handler_Low	PTR FTN()void  size(2) Largest target is 1
		 -> RB4_INT_APP_ISR_LOW(), RB5_INT_APP_ISR_LOW(), RB6_INT_APP_ISR_LOW(), RB7_INT_APP_ISR_LOW(), 

    lat_registers	PTR volatile unsigned char [5] size(2) Largest target is 1
		 -> LATA(BITBIGSFRll[1]), LATB(BITBIGSFRhl[1]), LATC(BITBIGSFRhl[1]), LATD(BITBIGSFRhl[1]), 
		 -> LATE(BITBIGSFRhl[1]), 

    led_initialize@led	PTR const struct . size(1) Largest target is 1
		 -> led1(COMRAM[1]), led2(COMRAM[1]), led3(COMRAM[1]), led4(COMRAM[1]), 

    led_turn_off@led	PTR const struct . size(1) Largest target is 1
		 -> led1(COMRAM[1]), led2(COMRAM[1]), led3(COMRAM[1]), led4(COMRAM[1]), 

    led_turn_on@led	PTR const struct . size(1) Largest target is 1
		 -> led1(COMRAM[1]), led2(COMRAM[1]), led3(COMRAM[1]), led4(COMRAM[1]), 

    port_registers	PTR volatile unsigned char [5] size(2) Largest target is 1
		 -> PORTA(BITBIGSFRll[1]), PORTB(BITBIGSFRlh[1]), PORTC(BITBIGSFRlh[1]), PORTD(BITBIGSFRlh[1]), 
		 -> PORTE(BITBIGSFRlh[1]), 

    RB4_ISRS	PTR FTN()void [2] size(2) Largest target is 1
		 -> RB4_INT_APP_ISR_HIGH(), RB4_INT_APP_ISR_LOW(), RB5_INT_APP_ISR_HIGH(), RB5_INT_APP_ISR_LOW(), 
		 -> RB6_INT_APP_ISR_HIGH(), RB6_INT_APP_ISR_LOW(), RB7_INT_APP_ISR_HIGH(), RB7_INT_APP_ISR_LOW(), 

    RB4_obj$EXT_interrupt_handler_High	PTR FTN()void  size(2) Largest target is 1
		 -> RB4_INT_APP_ISR_HIGH(), RB5_INT_APP_ISR_HIGH(), RB6_INT_APP_ISR_HIGH(), RB7_INT_APP_ISR_HIGH(), 

    RB4_obj$EXT_interrupt_handler_Low	PTR FTN()void  size(2) Largest target is 1
		 -> RB4_INT_APP_ISR_LOW(), RB5_INT_APP_ISR_LOW(), RB6_INT_APP_ISR_LOW(), RB7_INT_APP_ISR_LOW(), 

    RB5_ISRS	PTR FTN()void [2] size(2) Largest target is 1
		 -> RB4_INT_APP_ISR_HIGH(), RB4_INT_APP_ISR_LOW(), RB5_INT_APP_ISR_HIGH(), RB5_INT_APP_ISR_LOW(), 
		 -> RB6_INT_APP_ISR_HIGH(), RB6_INT_APP_ISR_LOW(), RB7_INT_APP_ISR_HIGH(), RB7_INT_APP_ISR_LOW(), 

    RB5_obj$EXT_interrupt_handler_High	PTR FTN()void  size(2) Largest target is 1
		 -> RB4_INT_APP_ISR_HIGH(), RB5_INT_APP_ISR_HIGH(), RB6_INT_APP_ISR_HIGH(), RB7_INT_APP_ISR_HIGH(), 

    RB5_obj$EXT_interrupt_handler_Low	PTR FTN()void  size(2) Largest target is 1
		 -> RB4_INT_APP_ISR_LOW(), RB5_INT_APP_ISR_LOW(), RB6_INT_APP_ISR_LOW(), RB7_INT_APP_ISR_LOW(), 

    RB6_ISRS	PTR FTN()void [2] size(2) Largest target is 1
		 -> RB4_INT_APP_ISR_HIGH(), RB4_INT_APP_ISR_LOW(), RB5_INT_APP_ISR_HIGH(), RB5_INT_APP_ISR_LOW(), 
		 -> RB6_INT_APP_ISR_HIGH(), RB6_INT_APP_ISR_LOW(), RB7_INT_APP_ISR_HIGH(), RB7_INT_APP_ISR_LOW(), 

    RB6_obj$EXT_interrupt_handler_High	PTR FTN()void  size(2) Largest target is 1
		 -> RB4_INT_APP_ISR_HIGH(), RB5_INT_APP_ISR_HIGH(), RB6_INT_APP_ISR_HIGH(), RB7_INT_APP_ISR_HIGH(), 

    RB6_obj$EXT_interrupt_handler_Low	PTR FTN()void  size(2) Largest target is 1
		 -> RB4_INT_APP_ISR_LOW(), RB5_INT_APP_ISR_LOW(), RB6_INT_APP_ISR_LOW(), RB7_INT_APP_ISR_LOW(), 

    RB7_ISRS	PTR FTN()void [2] size(2) Largest target is 1
		 -> RB4_INT_APP_ISR_HIGH(), RB4_INT_APP_ISR_LOW(), RB5_INT_APP_ISR_HIGH(), RB5_INT_APP_ISR_LOW(), 
		 -> RB6_INT_APP_ISR_HIGH(), RB6_INT_APP_ISR_LOW(), RB7_INT_APP_ISR_HIGH(), RB7_INT_APP_ISR_LOW(), 

    RB7_obj$EXT_interrupt_handler_High	PTR FTN()void  size(2) Largest target is 1
		 -> RB4_INT_APP_ISR_HIGH(), RB5_INT_APP_ISR_HIGH(), RB6_INT_APP_ISR_HIGH(), RB7_INT_APP_ISR_HIGH(), 

    RB7_obj$EXT_interrupt_handler_Low	PTR FTN()void  size(2) Largest target is 1
		 -> RB4_INT_APP_ISR_LOW(), RB5_INT_APP_ISR_LOW(), RB6_INT_APP_ISR_LOW(), RB7_INT_APP_ISR_LOW(), 

    S540$EXT_interrupt_handler_High	PTR FTN()void  size(2) Largest target is 1
		 -> RB4_INT_APP_ISR_HIGH(), RB5_INT_APP_ISR_HIGH(), RB6_INT_APP_ISR_HIGH(), RB7_INT_APP_ISR_HIGH(), 

    S540$EXT_interrupt_handler_Low	PTR FTN()void  size(2) Largest target is 1
		 -> RB4_INT_APP_ISR_LOW(), RB5_INT_APP_ISR_LOW(), RB6_INT_APP_ISR_LOW(), RB7_INT_APP_ISR_LOW(), 

    S653$EXT_interrupt_handler	PTR FTN()void  size(2) Largest target is 0

    tris_registers	PTR volatile unsigned char [5] size(2) Largest target is 1
		 -> TRISA(BITBIGSFRhl[1]), TRISB(BITBIGSFRhhlll[1]), TRISC(BITBIGSFRhhlll[1]), TRISD(BITBIGSFRhhlll[1]), 
		 -> TRISE(BITBIGSFRhhlll[1]), 


Critical Paths under _main in COMRAM

    None.

Critical Paths under _Interrupt_Manager_Low in COMRAM

    _Interrupt_Manager_Low->_RB4_ISR
    _Interrupt_Manager_Low->_RB5_ISR
    _Interrupt_Manager_Low->_RB6_ISR
    _Interrupt_Manager_Low->_RB7_ISR
    _RB7_INT_APP_ISR_LOW->_led_turn_off
    _RB7_INT_APP_ISR_HIGH->_led_turn_off
    _RB6_INT_APP_ISR_LOW->_led_turn_on
    _RB6_INT_APP_ISR_HIGH->_led_turn_on
    _RB5_INT_APP_ISR_LOW->_led_turn_off
    _RB5_INT_APP_ISR_HIGH->_led_turn_off
    _led_turn_off->_gpio_pin_write_logic
    _RB4_INT_APP_ISR_LOW->_led_turn_on
    _RB4_INT_APP_ISR_HIGH->_led_turn_on
    _led_turn_on->_gpio_pin_write_logic

Critical Paths under _Interrupt_Manager_High in COMRAM

    None.

Critical Paths under _main in BANK0

    _main->_Interrupt_RBx_Init
    _main->_led_initialize
    _led_initialize->_gpio_pin_initialize
    _Interrupt_RBx_Init->_Interrupt_RBx_Pin_Init
    _Interrupt_RBx_Pin_Init->_gpio_pin_initialize
    _gpio_pin_initialize->_gpio_pin_direction_initialize

Critical Paths under _Interrupt_Manager_Low in BANK0

    None.

Critical Paths under _Interrupt_Manager_High in BANK0

    None.

Critical Paths under _main in BANK1

    None.

Critical Paths under _Interrupt_Manager_Low in BANK1

    None.

Critical Paths under _Interrupt_Manager_High in BANK1

    None.

Critical Paths under _main in BANK2

    None.

Critical Paths under _Interrupt_Manager_Low in BANK2

    None.

Critical Paths under _Interrupt_Manager_High in BANK2

    None.

Critical Paths under _main in BANK3

    None.

Critical Paths under _Interrupt_Manager_Low in BANK3

    None.

Critical Paths under _Interrupt_Manager_High in BANK3

    None.

Critical Paths under _main in BANK4

    None.

Critical Paths under _Interrupt_Manager_Low in BANK4

    None.

Critical Paths under _Interrupt_Manager_High in BANK4

    None.

Critical Paths under _main in BANK5

    None.

Critical Paths under _Interrupt_Manager_Low in BANK5

    None.

Critical Paths under _Interrupt_Manager_High in BANK5

    None.

Critical Paths under _main in BANK6

    None.

Critical Paths under _Interrupt_Manager_Low in BANK6

    None.

Critical Paths under _Interrupt_Manager_High in BANK6

    None.

Critical Paths under _main in BANK7

    None.

Critical Paths under _Interrupt_Manager_Low in BANK7

    None.

Critical Paths under _Interrupt_Manager_High in BANK7

    None.

Critical Paths under _main in BANK8

    None.

Critical Paths under _Interrupt_Manager_Low in BANK8

    None.

Critical Paths under _Interrupt_Manager_High in BANK8

    None.

Critical Paths under _main in BANK9

    None.

Critical Paths under _Interrupt_Manager_Low in BANK9

    None.

Critical Paths under _Interrupt_Manager_High in BANK9

    None.

Critical Paths under _main in BANK10

    None.

Critical Paths under _Interrupt_Manager_Low in BANK10

    None.

Critical Paths under _Interrupt_Manager_High in BANK10

    None.

Critical Paths under _main in BANK11

    None.

Critical Paths under _Interrupt_Manager_Low in BANK11

    None.

Critical Paths under _Interrupt_Manager_High in BANK11

    None.

Critical Paths under _main in BANK12

    None.

Critical Paths under _Interrupt_Manager_Low in BANK12

    None.

Critical Paths under _Interrupt_Manager_High in BANK12

    None.

Critical Paths under _main in BANK13

    None.

Critical Paths under _Interrupt_Manager_Low in BANK13

    None.

Critical Paths under _Interrupt_Manager_High in BANK13

    None.

Critical Paths under _main in BANK14

    None.

Critical Paths under _Interrupt_Manager_Low in BANK14

    None.

Critical Paths under _Interrupt_Manager_High in BANK14

    None.

Critical Paths under _main in BANK15

    None.

Critical Paths under _Interrupt_Manager_Low in BANK15

    None.

Critical Paths under _Interrupt_Manager_High in BANK15

    None.

Call Graph Tables:

 ---------------------------------------------------------------------------------
 (Depth) Function   	        Calls       Base Space   Used Autos Params    Refs
 ---------------------------------------------------------------------------------
 (0) _main                                                 1     1      0    4654
                                             14 BANK0      1     1      0
                 _Interrupt_RBx_Init
                   _application_init
                     _led_initialize
 ---------------------------------------------------------------------------------
 (1) _led_initialize                                       4     3      1    1698
                                             10 BANK0      4     3      1
                _gpio_pin_initialize
 ---------------------------------------------------------------------------------
 (1) _application_init                                     1     1      0     102
                                              0 BANK0      1     1      0
               _ecu_layer_initialize
 ---------------------------------------------------------------------------------
 (2) _ecu_layer_initialize                                 1     1      0      65
 ---------------------------------------------------------------------------------
 (1) _Interrupt_RBx_Init                                   2     1      1    2796
                                             12 BANK0      2     1      1
               _Interrupt_RBx_Enable
             _Interrupt_RBx_Pin_Init
        _Interrupt_RBx_Priority_Init
_Interrupt_RBx_Set_Interrupt_Handler
 ---------------------------------------------------------------------------------
 (2) _Interrupt_RBx_Set_Interrupt_Handler                  2     1      1     440
                                              0 BANK0      2     1      1
 ---------------------------------------------------------------------------------
 (2) _Interrupt_RBx_Priority_Init                          3     2      1     223
                                              0 BANK0      3     2      1
 ---------------------------------------------------------------------------------
 (2) _Interrupt_RBx_Pin_Init                               2     1      1    1438
                                             10 BANK0      2     1      1
                _gpio_pin_initialize
 ---------------------------------------------------------------------------------
 (2) _gpio_pin_initialize                                  3     2      1    1110
                                              7 BANK0      3     2      1
      _gpio_pin_direction_initialize
 ---------------------------------------------------------------------------------
 (3) _gpio_pin_direction_initialize                        7     6      1     347
                                              0 BANK0      7     6      1
 ---------------------------------------------------------------------------------
 (2) _Interrupt_RBx_Enable                                 2     1      1     134
                                              0 BANK0      1     0      1
 ---------------------------------------------------------------------------------
 Estimated maximum stack depth 3
 ---------------------------------------------------------------------------------
 (Depth) Function   	        Calls       Base Space   Used Autos Params    Refs
 ---------------------------------------------------------------------------------
 (5) _Interrupt_Manager_Low                                9     9      0   35704
                                             12 COMRAM     9     9      0
                           _INT1_ISR
                            _RB4_ISR
                            _RB5_ISR
                            _RB6_ISR
                            _RB7_ISR
 ---------------------------------------------------------------------------------
 (6) _RB7_ISR                                              1     1      0    8926
                                             11 COMRAM     1     1      0
               _RB4_INT_APP_ISR_HIGH *
                _RB4_INT_APP_ISR_LOW *
               _RB5_INT_APP_ISR_HIGH *
                _RB5_INT_APP_ISR_LOW *
               _RB6_INT_APP_ISR_HIGH *
                _RB6_INT_APP_ISR_LOW *
               _RB7_INT_APP_ISR_HIGH *
                _RB7_INT_APP_ISR_LOW *
 ---------------------------------------------------------------------------------
 (6) _RB6_ISR                                              1     1      0    8926
                                             11 COMRAM     1     1      0
               _RB4_INT_APP_ISR_HIGH *
                _RB4_INT_APP_ISR_LOW *
               _RB5_INT_APP_ISR_HIGH *
                _RB5_INT_APP_ISR_LOW *
               _RB6_INT_APP_ISR_HIGH *
                _RB6_INT_APP_ISR_LOW *
               _RB7_INT_APP_ISR_HIGH *
                _RB7_INT_APP_ISR_LOW *
 ---------------------------------------------------------------------------------
 (6) _RB5_ISR                                              1     1      0    8926
                                             11 COMRAM     1     1      0
               _RB4_INT_APP_ISR_HIGH *
                _RB4_INT_APP_ISR_LOW *
               _RB5_INT_APP_ISR_HIGH *
                _RB5_INT_APP_ISR_LOW *
               _RB6_INT_APP_ISR_HIGH *
                _RB6_INT_APP_ISR_LOW *
               _RB7_INT_APP_ISR_HIGH *
                _RB7_INT_APP_ISR_LOW *
 ---------------------------------------------------------------------------------
 (6) _RB4_ISR                                              1     1      0    8926
                                             11 COMRAM     1     1      0
               _RB4_INT_APP_ISR_HIGH *
                _RB4_INT_APP_ISR_LOW *
               _RB5_INT_APP_ISR_HIGH *
                _RB5_INT_APP_ISR_LOW *
               _RB6_INT_APP_ISR_HIGH *
                _RB6_INT_APP_ISR_LOW *
               _RB7_INT_APP_ISR_HIGH *
                _RB7_INT_APP_ISR_LOW *
 ---------------------------------------------------------------------------------
 (7) _RB7_INT_APP_ISR_LOW                                  0     0      0    1113
                       _led_turn_off
 ---------------------------------------------------------------------------------
 (7) _RB7_INT_APP_ISR_HIGH                                 0     0      0    1113
                       _led_turn_off
 ---------------------------------------------------------------------------------
 (7) _RB6_INT_APP_ISR_LOW                                  0     0      0    1113
                        _led_turn_on
 ---------------------------------------------------------------------------------
 (7) _RB6_INT_APP_ISR_HIGH                                 0     0      0    1113
                        _led_turn_on
 ---------------------------------------------------------------------------------
 (7) _RB5_INT_APP_ISR_LOW                                  0     0      0    1113
                       _led_turn_off
 ---------------------------------------------------------------------------------
 (7) _RB5_INT_APP_ISR_HIGH                                 0     0      0    1113
                       _led_turn_off
 ---------------------------------------------------------------------------------
 (8) _led_turn_off                                         4     3      1    1113
                                              8 COMRAM     3     2      1
               _gpio_pin_write_logic
 ---------------------------------------------------------------------------------
 (7) _RB4_INT_APP_ISR_LOW                                  0     0      0    1113
                        _led_turn_on
 ---------------------------------------------------------------------------------
 (7) _RB4_INT_APP_ISR_HIGH                                 0     0      0    1113
                        _led_turn_on
 ---------------------------------------------------------------------------------
 (8) _led_turn_on                                          4     3      1    1113
                                              8 COMRAM     3     2      1
               _gpio_pin_write_logic
 ---------------------------------------------------------------------------------
 (9) _gpio_pin_write_logic                                 8     6      2     679
                                              0 COMRAM     8     6      2
 ---------------------------------------------------------------------------------
 (6) _INT1_ISR                                             0     0      0       0
 ---------------------------------------------------------------------------------
 Estimated maximum stack depth 9
 ---------------------------------------------------------------------------------
 (Depth) Function   	        Calls       Base Space   Used Autos Params    Refs
 ---------------------------------------------------------------------------------
 (10) _Interrupt_Manager_High                              0     0      0       0
                           _INT0_ISR
                           _INT2_ISR
 ---------------------------------------------------------------------------------
 (11) _INT2_ISR                                            0     0      0       0
 ---------------------------------------------------------------------------------
 (11) _INT0_ISR                                            0     0      0       0
 ---------------------------------------------------------------------------------
 Estimated maximum stack depth 11
 ---------------------------------------------------------------------------------

 Call Graph Graphs:

 _main (ROOT)
   _Interrupt_RBx_Init
     _Interrupt_RBx_Enable
     _Interrupt_RBx_Pin_Init
       _gpio_pin_initialize
         _gpio_pin_direction_initialize
     _Interrupt_RBx_Priority_Init
     _Interrupt_RBx_Set_Interrupt_Handler
   _application_init
     _ecu_layer_initialize
   _led_initialize
     _gpio_pin_initialize

 _Interrupt_Manager_Low (ROOT)
   _INT1_ISR
   _RB4_ISR
     _RB4_INT_APP_ISR_HIGH *
       _led_turn_on
         _gpio_pin_write_logic
     _RB4_INT_APP_ISR_LOW *
       _led_turn_on
     _RB5_INT_APP_ISR_HIGH *
       _led_turn_off
         _gpio_pin_write_logic
     _RB5_INT_APP_ISR_LOW *
       _led_turn_off
     _RB6_INT_APP_ISR_HIGH *
       _led_turn_on
     _RB6_INT_APP_ISR_LOW *
       _led_turn_on
     _RB7_INT_APP_ISR_HIGH *
       _led_turn_off
     _RB7_INT_APP_ISR_LOW *
       _led_turn_off
   _RB5_ISR
     _RB4_INT_APP_ISR_HIGH *
     _RB4_INT_APP_ISR_LOW *
     _RB5_INT_APP_ISR_HIGH *
     _RB5_INT_APP_ISR_LOW *
     _RB6_INT_APP_ISR_HIGH *
     _RB6_INT_APP_ISR_LOW *
     _RB7_INT_APP_ISR_HIGH *
     _RB7_INT_APP_ISR_LOW *
   _RB6_ISR
     _RB4_INT_APP_ISR_HIGH *
     _RB4_INT_APP_ISR_LOW *
     _RB5_INT_APP_ISR_HIGH *
     _RB5_INT_APP_ISR_LOW *
     _RB6_INT_APP_ISR_HIGH *
     _RB6_INT_APP_ISR_LOW *
     _RB7_INT_APP_ISR_HIGH *
     _RB7_INT_APP_ISR_LOW *
   _RB7_ISR
     _RB4_INT_APP_ISR_HIGH *
     _RB4_INT_APP_ISR_LOW *
     _RB5_INT_APP_ISR_HIGH *
     _RB5_INT_APP_ISR_LOW *
     _RB6_INT_APP_ISR_HIGH *
     _RB6_INT_APP_ISR_LOW *
     _RB7_INT_APP_ISR_HIGH *
     _RB7_INT_APP_ISR_LOW *

 _Interrupt_Manager_High (ROOT)
   _INT0_ISR
   _INT2_ISR

 Address spaces:
Name               Size   Autos  Total    Cost      Usage
BIGRAM             F5F      0       0      43        0.0%
EEDATA             400      0       0       0        0.0%
BITBANK14          100      0       0      32        0.0%
BANK14             100      0       0      33        0.0%
BITBANK13          100      0       0      30        0.0%
BANK13             100      0       0      31        0.0%
BITBANK12          100      0       0      28        0.0%
BANK12             100      0       0      29        0.0%
BITBANK11          100      0       0      26        0.0%
BANK11             100      0       0      27        0.0%
BITBANK10          100      0       0      24        0.0%
BANK10             100      0       0      25        0.0%
BITBANK9           100      0       0      22        0.0%
BANK9              100      0       0      23        0.0%
BITBANK8           100      0       0      20        0.0%
BANK8              100      0       0      21        0.0%
BITBANK7           100      0       0      18        0.0%
BANK7              100      0       0      19        0.0%
BITBANK6           100      0       0      16        0.0%
BANK6              100      0       0      17        0.0%
BITBANK5           100      0       0      14        0.0%
BANK5              100      0       0      15        0.0%
BITBANK4           100      0       0      12        0.0%
BANK4              100      0       0      13        0.0%
BITBANK3           100      0       0      10        0.0%
BANK3              100      0       0      11        0.0%
BITBANK2           100      0       0       8        0.0%
BANK2              100      0       0       9        0.0%
BITBANK1           100      0       0       6        0.0%
BANK1              100      0       0       7        0.0%
BITBANK0            A0      0       0       4        0.0%
BANK0               A0      F      31       5       30.6%
BITBANK15           60      0       0      34        0.0%
BANK15              60      0       0      35        0.0%
BITCOMRAM           5E      0       0       0        0.0%
COMRAM              5E     15      4B       1       79.8%
BITBIGSFRhhlll      39      0       0      38        0.0%
BITBIGSFRll         20      0       0      41        0.0%
BITBIGSFRhhllh      1F      0       0      37        0.0%
BITBIGSFRhhh         D      0       0      36        0.0%
BITBIGSFRlh          4      0       0      40        0.0%
BITBIGSFRhl          4      0       0      39        0.0%
BIGSFR               0      0       0     200        0.0%
BITSFR               0      0       0     200        0.0%
SFR                  0      0       0     200        0.0%
STACK                0      0       0       2        0.0%
NULL                 0      0       0       0        0.0%
ABS                  0      0      7C      42        0.0%
DATA                 0      0      7C       3        0.0%
CODE                 0      0       0       0        0.0%


Microchip Technology PIC18 Macro Assembler V2.46 build 20240104201356 
Symbol Table                                                                                   Mon Aug 12 09:52:08 2024

                     ?_Interrupt_Manager_Low 0037                        ?_RB7_INT_APP_ISR_HIGH 0037  
                                          l9 14A6                      ?_Interrupt_Manager_High 0037  
                                         l13 14FC                                           l60 1A06  
                       ??_Interrupt_RBx_Init 008F                                           bsr 0FE0  
                                        l105 1908                                          l117 127E  
                                        l510 19A6                                          l505 1402  
                                        l522 1366                                          l508 19A2  
                                        l292 19B2                                          l286 1484  
                                        l287 1480                                          l288 1480  
                                        l493 173E                                          l477 188A  
                                        l479 18BE                          led_initialize@F3156 0036  
                                        tosl 0FFD                                          wreg 0FE8  
                               ?_led_turn_on 003F                              __end_of_RB4_ISR 16D6  
                            __end_of_RB5_ISR 1660                              __end_of_RB6_ISR 15EA  
                            __end_of_RB7_ISR 1574                                         l2530 11A6  
                                       l2610 12C2                                         l2602 1280  
                                       l2532 11F8                                         l2540 127C  
                                       l2524 1168                                         l2620 1318  
                                       l2612 12D0                                         l2604 1296  
                                       l2700 140C                                         l2526 117E  
                                       l2550 18FA                                         l2614 12E6  
                                       l2606 129E                                         l2632 198C  
                                       l2528 119E                                         l2552 1906  
                                       l2544 18C0                                         l2616 12F4  
                                       l2608 12AC                                         l2640 14AA  
                                       l2704 1420                                         l2634 199E  
                                       l2538 1250                                         l2546 18D2  
                                       l2570 1718                                         l2562 16D6  
                                       l2618 130A                                         l2626 132E  
                                       l2642 14DC                                         l2548 18F2  
                                       l2580 1368                                         l2572 1732  
                                       l2564 16EC                                         l2628 1364  
                                       l2660 186E                                         l2556 1A04  
                                       l2652 19A8                                         l2644 14DE  
                                       l2636 1488                                         l2590 13B8  
                                       l2582 137A                                         l2574 173A  
                                       l2566 16F4                                         l2670 18B2  
                                       l2662 1884                                         l2558 1A04  
                                       l2654 19A8                                         l2646 14F0  
                                       l2638 149E                                         l2584 1382  
                                       l2568 170E                                         l2576 173C  
                                       l2664 188E                                         l2672 18BA  
                                       l2656 19B0                                         l2648 14F8  
                                       l2586 1394                                         l2666 189A  
                                       l2588 13A6                                         l2596 13CA  
                                       l2668 18A6                       ??_Interrupt_RBx_Enable 0083  
                                       l2598 1400                                         l2698 1404  
                                       _LATA 0F89                                         _LATB 0F8A  
                                       _LATC 0F8B                                         _LATD 0F8C  
                                       _LATE 0F8D                                         u2410 1266  
                                       u2411 1260                                         u2404 1216  
                                       u2420 18D2                                         u2500 149E  
                                       u2405 1212                                         u2421 18CE  
                                       u2501 149A                                         u2430 18F2  
                                       u2431 18EE                                         u2416 1268  
                                       u2440 16EC                                         u2520 1884  
                                       u2441 16E8                                         u2521 1880  
                                       u2370 117E                                         u2450 170E  
                                       u2371 117A                                         u2451 170A  
                                       u2515 14EC                                         u2380 119E  
                                       u2460 1732                                         u2381 119A  
                                       u2461 172E                                         u2517 14F0  
                                       u2470 137A                                         u2471 1376  
                                       u2480 1296                                         u2560 141C  
                                       u2481 1292                                         u2561 1418  
                                       u2490 199E                                         u2394 11C4  
                                       u2491 199A                                         u2395 11C0  
                                       i1l20 1812                                         i1l23 1754  
                                       i1l16 17BE                                         i1l27 17A8  
                                       _led1 001C                                         _led2 001B  
                                       _led3 001A                                         _led4 0019  
                                       _main 1404                                         fsr2h 0FDA  
                                       indf2 0FDF                                         fsr1l 0FE1  
                                       fsr2l 0FD9                                         btemp 004C  
                     __end_of_led_initialize 14FE                                         prodh 0FF4  
                                       prodl 0FF3                                         start 02A6  
           gpio_pin_initialize@_pin_config_t 0089                                ?_led_turn_off 003F  
             __end_of_Interrupt_Manager_High 194E                                 ___param_bank 0000  
                       _gpio_pin_write_logic 1002                             __end_of_INT0_ISR 1A14  
                           __end_of_INT1_ISR 1A0C                             __end_of_INT2_ISR 1A10  
                                      ?_main 0037                       _INT0_INTERRUPT_HANDLER 0031  
                                      i1l136 1166                                        i1l251 19F8  
                                      i1l260 19DA                                        i1l228 027E  
                                      i1l254 19EE                                        i1l263 19D0  
                                      i1l272 1A02                                        i1l257 19E4  
                                      i1l266 19C6                                        i1l269 19BC  
                                      i2l214 194A                                        i1l446 1A0A  
                                      i1l550 1572                                        i1l543 15E8  
                                      i1l536 165E                                        i1l529 16D4  
                                      i2l442 1A12                                        i2l450 1A0E  
                                      _PORTA 0F80                                        _PORTB 0F81  
                                      _PORTC 0F82                                        _PORTD 0F83  
                                      _PORTE 0F84                                        _TRISA 0F92  
                                      _TRISB 0F93                                        _TRISC 0F94  
                                      _TRISD 0F95                                        _TRISE 0F96  
                                      pclath 0FFA                                        pclatu 0FFB  
                                      tablat 0FF5                                        ttemp5 004D  
                                      ttemp6 0050                                        ttemp7 0054  
                                      status 0FD8                Interrupt_RBx_Pin_Init@int_obj 008C  
                                      wtemp8 004D                              ?_led_initialize 008C  
                             ??_led_turn_off 0040          __end_of_Interrupt_RBx_Priority_Init 1740  
                _Interrupt_RBx_Priority_Init 16D6               ?_gpio_pin_direction_initialize 0082  
                     ??_RB7_INT_APP_ISR_HIGH 0042                              __initialization 1814  
                               __end_of_main 1488                        ?_gpio_pin_write_logic 0037  
 Interrupt_RBx_Set_Interrupt_Handler@int_obj 0082                                _lat_registers 000B  
                                     ??_main 0090                                __activetblptr 0002  
                           led_turn_on@F3161 0035                                    ??_RB4_ISR 0042  
                                  ??_RB5_ISR 0042                                    ??_RB6_ISR 0042  
                                  ??_RB7_ISR 0042                                       i1l2100 17BA  
                                     i1l2102 17C2                                       i1l2040 1002  
                                     i1l2104 17F4                                       i1l2120 178C  
                                     i1l2112 1740                                       i1l2050 10E4  
                                     i1l2042 1016                                       i1l2106 17F6  
                                     i1l2122 179C                                       i1l2114 1750  
                                     i1l2044 1036                                       i1l2108 1806  
                                     i1l2116 1758                                       i1l2132 19F0  
                                     i1l2140 19C8                                       i1l2046 103E  
                                     i1l2118 178A                                       i1l2134 19E6  
                                     i1l2142 19BE                                       i1l1432 1A08  
                                     i1l2048 108E                                       i1l2056 113A  
                                     i1l2136 19DC                                       i1l2144 19B4  
                                     i1l2240 1664                                       i1l2400 00A2  
                                     i1l2058 1164                                       i1l2146 19FA  
                                     i1l2138 19D2                                       i1l2242 1674  
                                     i1l2250 15EC                                       i1l2410 00E0  
                                     i1l2402 00B0                                       i1l2244 1686  
                                     i1l2260 1640                                       i1l2252 15EE  
                                     i1l2420 0120                                       i1l2404 00BE  
                                     i1l2412 00E6                                       i1l2246 16A4  
                                     i1l2238 1662                                       i1l2254 15FE  
                                     i1l2270 15BC                                       i1l2262 1576  
                                     i1l2430 0154                                       i1l2422 0124  
                                     i1l2414 00F4                                       i1l2406 00CC  
                                     i1l2248 16B6                                       i1l2256 1610  
                                     i1l2272 15CE                                       i1l2264 1578  
                                     i1l2280 1524                                       i1l2440 018A  
                                     i1l2432 0164                                       i1l2416 0102  
                                     i1l2424 012A                                       i1l2408 00DC  
                                     i1l2098 17AA                                       i1l2258 162E  
                                     i1l2266 1588                                       i1l2282 1546  
                                     i1l2274 1500                                       i1l2450 01C0  
                                     i1l2442 0198                                       i1l2434 0168  
                                     i1l2426 0138                                       i1l2418 0110  
                                     i1l2268 159A                                       i1l2284 1558  
                                     i1l2276 1502                                       i1l2452 01CE  
                                     i1l2460 01F6                                       i1l2444 01A8  
                                     i1l2428 0146                                       i1l2436 016E  
                                     i1l2278 1512                                       i1l2470 0234  
                                     i1l2462 0204                                       i1l2454 01DC  
                                     i1l2446 01AC                                       i1l2438 017C  
                                     i1l2390 006C                                       i1l2382 003E  
                                     i1l2480 0274                                       i1l2464 0212  
                                     i1l2472 023A                                       i1l2456 01EC  
                                     i1l2448 01B2                                       i1l2392 007A  
                                     i1l2384 004C                                       i1l2482 0278  
                                     i1l2474 0248                                       i1l2466 0220  
                                     i1l2458 01F0                                       i1l2394 0088  
                                     i1l2386 005A                                       i1l2476 0256  
                                     i1l2468 0230                                       i1l2396 0098  
                                     i1l2388 005E                                       i1l2478 0264  
                                     i1l2398 009C                                       i1l2754 114E  
                                     i2l1424 1A10                                       i2l1428 1A0C  
                                     i2l1700 1918                                       i2l1702 1926  
                                     i2l1704 192A                                       i2l1706 1938  
                                     i2l1708 1946                                       i2l1698 190A  
                   ??_Interrupt_RBx_Pin_Init 008D  __end_of_Interrupt_RBx_Set_Interrupt_Handler 1368  
      ??_Interrupt_RBx_Set_Interrupt_Handler 0083         ?_Interrupt_RBx_Set_Interrupt_Handler 0082  
        _Interrupt_RBx_Set_Interrupt_Handler 1280                                       clear_0 185A  
                                     isa$std 0001                          _RB4_INT_APP_ISR_LOW 19E6  
                               __pdataCOMRAM 0001                                 __mediumconst 0000  
                                     tblptrh 0FF7                                       tblptrl 0FF6  
                                     tblptru 0FF8                                   __accesstop 0060  
                    __end_of__initialization 1860                                    ?_INT0_ISR 0037  
                                  ?_INT1_ISR 0037                                    ?_INT2_ISR 0037  
                       ?_RB4_INT_APP_ISR_LOW 0037                                ___rparam_used 0001  
                    ??_Interrupt_Manager_Low 0043                            led_initialize@led 008C  
                          led_initialize@pin 008F                            led_initialize@ret 008E  
                     ??_gpio_pin_write_logic 0039                               __pcstackCOMRAM 0037  
               __end_of_RB4_INT_APP_ISR_HIGH 19FA                             _application_init 19A8  
                               __pidataBANK0 194E                                RB4_ISR@source 0042  
                       __end_of_led_turn_off 17AA                          _RB5_INT_APP_ISR_LOW 19D2  
                              RB5_ISR@source 0042                        ??_RB4_INT_APP_ISR_LOW 0042  
                                 ??_INT0_ISR 0037                                   ??_INT1_ISR 0037  
                                 ??_INT2_ISR 0037                         ?_RB5_INT_APP_ISR_LOW 0037  
                              RB6_ISR@source 0042                            led_turn_off@F3166 0034  
                            led_toggle@F3171 0033                                      _RB4_ISR 1660  
                                    _RB5_ISR 15EA                                      _RB6_ISR 1574  
                                    _RB7_ISR 14FE                                      _RB4_obj 007C  
                                    _RB5_obj 0076                                      _RB6_obj 0070  
                                    _RB7_obj 006A                                      i2u80_40 1918  
                                    i2u80_41 1914                                      i2u81_40 1926  
                                    i2u81_41 1922                                      i2u82_40 1938  
                                    i2u82_41 1934                                      i2u83_40 1946  
                                    i2u83_41 1942                                RB7_ISR@source 0042  
                           ??_led_initialize 008D                               _tris_registers 0001  
                        _RB6_INT_APP_ISR_LOW 19BE                                      __Hparam 0000  
                                    __Lparam 0000                        ??_RB5_INT_APP_ISR_LOW 0042  
                        _gpio_pin_initialize 18C0               Interrupt_RBx_Priority_Init@ret 0084  
                               __psmallconst 1000                                      __pcinit 1814  
                                    __ramtop 1000                                      __ptext0 1404  
                                    __ptext1 1488                                      __ptext2 19A8  
                                    __ptext3 1A04                                      __ptext4 186E  
                                    __ptext5 1280                                      __ptext6 16D6  
                                    __ptext7 1368                                      __ptext8 18C0  
                                    __ptext9 1168                         ?_RB6_INT_APP_ISR_LOW 0037  
                     _INT1_INTERRUPT_HANDLER 002F              ??_gpio_pin_direction_initialize 0083  
         Interrupt_RBx_Priority_Init@int_obj 0082                       _Interrupt_RBx_Pin_Init 1368  
               __end_of_RB5_INT_APP_ISR_HIGH 19E6                         ?_gpio_pin_initialize 0089  
                       _RB4_INT_APP_ISR_HIGH 19F0                                      main@ret 0090  
                             __pintcode_body 190A                         end_of_initialization 1860  
                              __Lmediumconst 0000                                      int_func 190A  
          gpio_pin_write_logic@_pin_config_t 0037                          _RB7_INT_APP_ISR_LOW 19FA  
                                    postdec1 0FE5                                      postdec2 0FDD  
                                    postinc0 0FEE                                      postinc2 0FDE  
                      ??_RB6_INT_APP_ISR_LOW 0042                                    _PORTBbits 0F81  
                      ??_gpio_pin_initialize 008A                         ?_RB7_INT_APP_ISR_LOW 0037  
                      ?_RB4_INT_APP_ISR_HIGH 0037                     __end_of_application_init 19B4  
                   ??_Interrupt_Manager_High 0037                                 _led_turn_off 1740  
              __end_of_Interrupt_Manager_Low 02A6                    Interrupt_RBx_Init@int_obj 008E  
                              __pidataCOMRAM 1970                        Interrupt_RBx_Init@ret 008F  
                        start_initialization 1814                                ??_led_turn_on 0040  
                      ??_RB7_INT_APP_ISR_LOW 0042        __end_of_gpio_pin_direction_initialize 1280  
              _gpio_pin_direction_initialize 1168                              led_turn_off@led 003F  
                            led_turn_off@pin 0041                 __end_of_RB6_INT_APP_ISR_HIGH 19D2  
                       _RB5_INT_APP_ISR_HIGH 19DC                          application_init@ret 0082  
                                __pdataBANK0 0060                 __end_of_ecu_layer_initialize 1A08  
                                   ?_RB4_ISR 0037                                     ?_RB5_ISR 0037  
                                   ?_RB6_ISR 0037                                     ?_RB7_ISR 0037  
                                __pbssCOMRAM 001D                                __pcstackBANK0 0082  
                     ??_RB4_INT_APP_ISR_HIGH 0042                  __end_of_RB4_INT_APP_ISR_LOW 19F0  
                        __end_of_led_turn_on 1814                    Interrupt_RBx_Pin_Init@ret 008D  
               ?_Interrupt_RBx_Priority_Init 0082                                    __pintcode 0008  
                 __end_of_Interrupt_RBx_Init 18C0                        ?_RB5_INT_APP_ISR_HIGH 0037  
               __end_of_Interrupt_RBx_Enable 19A8                                  __pintcodelo 0018  
                    ?_Interrupt_RBx_Pin_Init 008C                    gpio_pin_write_logic@logic 0038  
                                __smallconst 1000                                     _RB4_ISRS 0029  
                __end_of_RB5_INT_APP_ISR_LOW 19DC                                     _INT0_ISR 1A10  
                                   _RB5_ISRS 0025                                     _INT1_ISR 1A08  
                                   _INT2_ISR 1A0C                                     _RB6_ISRS 0021  
                                   _RB7_ISRS 001D                                     _RB4_Flag 0018  
                                   _RB5_Flag 0017                                     _RB6_Flag 0016  
                                   _RB7_Flag 0015                                     i1u200_20 004C  
                                   i1u200_21 0048                                     i1u201_20 005A  
                                   i1u201_21 0056                                     i1u210_20 00F4  
                                   i1u202_20 006C                                     i1u210_21 00F0  
                                   i1u202_21 0068                                     i1u211_20 0102  
                                   i1u203_20 007A                                     i1u211_21 00FE  
                                   i1u203_21 0076                                     i1u140_20 1036  
                                   i1u220_20 0198                                     i1u212_20 0110  
                                   i1u204_20 0088                                     i1u140_21 1032  
                                   i1u220_21 0194                                     i1u212_21 010C  
                                   i1u204_21 0084                                     i1u221_20 01A8  
                                   i1u213_20 0120                                     i1u205_20 0098  
                                   i1u221_21 01A4                                     i1u213_21 011C  
                                   i1u205_21 0094                                     i1u141_24 105C  
                                   i1u141_25 1058                                     i1u230_20 0248  
                                   i1u222_20 01C0                                     i1u214_20 0138  
                                   i1u206_20 00B0                                     i1u230_21 0244  
                                   i1u222_21 01BC                                     i1u214_21 0134  
                                   i1u206_21 00AC                                     i1u142_24 10AC  
                                   i1u142_25 10A8                                     i1u151_20 17BA  
                                   i1u231_20 0256                                     i1u223_20 01CE  
                                   i1u215_20 0146                                     i1u207_20 00BE  
                                   i1u151_21 17B6                                     i1u231_21 0252  
                                   i1u223_21 01CA                                     i1u215_21 0142  
                                   i1u207_21 00BA                                     i1u143_24 1102  
                                   i1u143_25 10FE                                     i1u232_20 0264  
                                   i1u224_20 01DC                                     i1u216_20 0154  
                                   i1u208_20 00CC                                     i1u232_21 0260  
                                   i1u224_21 01D8                                     i1u216_21 0150  
                                   i1u208_21 00C8                                     i1u152_25 1804  
                                   i1u152_27 1806                                     i1u153_20 1750  
                                   i1u233_20 0274                                     i1u225_20 01EC  
                                   i1u217_20 0164                                     i1u209_20 00DC  
                                   i1u153_21 174C                                     i1u233_21 0270  
                                   i1u225_21 01E8                                     i1u217_21 0160  
                                   i1u209_21 00D8                                     i1u226_20 0204  
                                   i1u218_20 017C                                     i1u226_21 0200  
                                   i1u218_21 0178                                     i1u154_25 179A  
                                   i1u154_27 179C                                     i1u139_20 1016  
                                   i1u163_20 1674                                     i1u171_20 1640  
                                   i1u170_28 1616                                     i1u227_20 0212  
                                   i1u219_20 018A                                     i1u139_21 1012  
                                   i1u163_21 1670                                     i1u171_21 163C  
                                   i1u170_29 162A                                     i1u227_21 020E  
                                   i1u219_21 0186                                     i1u164_20 1686  
                                   i1u228_20 0220                                     i1u164_21 1682  
                                   i1u228_21 021C                                     i1u172_28 164A  
                                   i1u173_20 1588                                     i1u181_20 1558  
                                   i1u180_28 152E                                     i1u229_20 0230  
                                   i1u172_29 165E                                     i1u173_21 1584  
                                   i1u181_21 1554                                     i1u180_29 1542  
                                   i1u229_21 022C                                     i1u166_20 16B6  
                                   i1u165_28 168C                                     i1u174_20 159A  
                                   i1u166_21 16B2                                     i1u165_29 16A0  
                                   i1u174_21 1596                                     i1u182_28 155E  
                                   i1u182_29 1572                                     i1u167_28 16C0  
                                   i1u168_20 15FE                                     i1u176_20 15CE  
                                   i1u175_28 15A4                                     i1u167_29 16D4  
                                   i1u168_21 15FA                                     i1u176_21 15CA  
                                   i1u175_29 15B8                                     i1u169_20 1610  
                                   i1u169_21 160C                                     i1u177_28 15D4  
                                   i1u178_20 1512                                     i1u177_29 15E8  
                                   i1u178_21 150E                                     i1u179_20 1524  
                                   i1u179_21 1520                                     _RCONbits 0FD0  
              ??_Interrupt_RBx_Priority_Init 0083             gpio_pin_direction_initialize@ret 0088  
             __end_of_Interrupt_RBx_Pin_Init 1404   gpio_pin_direction_initialize@_pin_config_t 0082  
                     _Interrupt_Manager_High 0008                       _INT2_INTERRUPT_HANDLER 002D  
                     gpio_pin_initialize@ret 008B                                  _led_turn_on 17AA  
               __end_of_RB7_INT_APP_ISR_HIGH 19BE                      gpio_pin_write_logic@ret 003E  
                       _RB6_INT_APP_ISR_HIGH 19C8                            ?_application_init 0037  
                                _INTCON2bits 0FF1                                  _INTCON3bits 0FF0  
                                  copy_data0 1828                                    copy_data1 1848  
                         ??_application_init 0082       Interrupt_RBx_Set_Interrupt_Handler@ret 0083  
                       _ecu_layer_initialize 1A04                               led_turn_on@led 003F  
                             led_turn_on@pin 0041                                     __Hrparam 0000  
                     ??_RB5_INT_APP_ISR_HIGH 0042                                     __Lrparam 0000  
                __end_of_RB6_INT_APP_ISR_LOW 19C8                  __end_of_gpio_pin_initialize 190A  
                                   __ptext10 198C                                     __ptext20 19DC  
                                   __ptext12 14FE                                     __ptext21 19E6  
                                   __ptext13 1574                                     __ptext30 1A10  
                                   __ptext22 19F0                                     __ptext14 15EA  
                                   __ptext23 19FA                                     __ptext15 1660  
                                   __ptext24 1740                                     __ptext16 19B4  
                                   __ptext25 17AA                                     __ptext17 19BE  
                                   __ptext26 1002                                     __ptext18 19C8  
                                   __ptext27 1A08                                     __ptext19 19D2  
                                   __ptext29 1A0C                        ?_RB6_INT_APP_ISR_HIGH 0037  
                       _Interrupt_RBx_Enable 198C                        ?_ecu_layer_initialize 0037  
                                   isa$xinst 0000                                     int$flags 004C  
                      _Interrupt_Manager_Low 0018                  Interrupt_RBx_Enable@int_obj 0082  
                __end_of_RB7_INT_APP_ISR_LOW 1A04                                   _INTCONbits 0FF2  
               __end_of_gpio_pin_write_logic 1168                                     intlevel1 0000  
                                   intlevel2 0000                        ?_Interrupt_RBx_Enable 0082  
                       _RB7_INT_APP_ISR_HIGH 19B4                               _port_registers 0060  
                         _Interrupt_RBx_Init 186E                       ??_RB6_INT_APP_ISR_HIGH 0042  
                     ??_ecu_layer_initialize 0082                          ?_Interrupt_RBx_Init 008E  
                             _led_initialize 1488  
