

Microchip MPLAB XC8 Assembler V2.46 build 20240104201356 
                                                                                               Mon Aug 05 04:24:51 2024

Microchip MPLAB XC8 C Compiler v2.46 (Free license) build 20240104201356 Og1 
     1                           	processor	18F46K20
     2                           	fnconf	rparam,??,?,0
     3                           	pagewidth 120
     4                           	opt	flic
     5                           	psect	idataCOMRAM,global,class=CODE,delta=1,noexec
     6                           	psect	idataBANK0,global,class=CODE,delta=1,noexec
     7                           	psect	smallconst,global,reloc=2,class=SMALLCONST,delta=1,noexec
     8                           	psect	cinit,global,reloc=2,class=CODE,delta=1
     9                           	psect	bssCOMRAM,global,class=COMRAM,space=1,delta=1,lowdata,noexec
    10                           	psect	dataCOMRAM,global,class=COMRAM,space=1,delta=1,lowdata,noexec
    11                           	psect	bssBANK0,global,class=BANK0,space=1,delta=1,lowdata,noexec
    12                           	psect	dataBANK0,global,class=BANK0,space=1,delta=1,lowdata,noexec
    13                           	psect	cstackBANK0,global,class=BANK0,space=1,delta=1,lowdata,noexec
    14                           	psect	cstackCOMRAM,global,class=COMRAM,space=1,delta=1,lowdata,noexec
    15                           	psect	text0,global,reloc=2,class=CODE,delta=1
    16                           	psect	text1,global,reloc=2,class=CODE,delta=1
    17                           	psect	text2,global,reloc=2,class=CODE,delta=1
    18                           	psect	text3,global,reloc=2,class=CODE,delta=1
    19                           	psect	text4,global,reloc=2,class=CODE,delta=1
    20                           	psect	text5,global,reloc=2,class=CODE,delta=1
    21                           	psect	text6,global,reloc=2,class=CODE,delta=1
    22                           	psect	text7,global,reloc=2,class=CODE,delta=1
    23                           	psect	text8,global,reloc=2,class=CODE,delta=1
    24                           	psect	text9,global,reloc=2,class=CODE,delta=1
    25                           	psect	text10,global,reloc=2,class=CODE,delta=1
    26                           	psect	text11,global,reloc=2,class=CODE,delta=1
    27                           	psect	text12,global,reloc=2,class=CODE,delta=1
    28                           	psect	text13,global,reloc=2,class=CODE,delta=1
    29                           	psect	text14,global,reloc=2,class=CODE,delta=1
    30                           	psect	text15,global,reloc=2,class=CODE,delta=1
    31                           	psect	intcode,global,reloc=2,class=CODE,delta=1
    32                           	psect	text17,global,reloc=2,class=CODE,delta=1
    33                           	psect	text18,global,reloc=2,class=CODE,delta=1
    34                           	psect	text19,global,reloc=2,class=CODE,delta=1
    35                           	psect	text20,global,reloc=2,class=CODE,delta=1
    36                           	psect	intsave_regs,global,class=BIGRAM,space=1,delta=1,noexec
    37                           	psect	rparam,global,class=COMRAM,space=1,delta=1,noexec
    38                           	psect	temp,global,ovrld,common,class=COMRAM,space=1,delta=1,lowdata
    39                           	psect	config,global,abs,ovrld,class=CONFIG,space=4,delta=1,noexec
    40   000000                     
    41                           ; Generated 12/10/2023 GMT
    42                           ; 
    43                           ; Copyright © 2023, Microchip Technology Inc. and its subsidiaries ("Microchip")
    44                           ; All rights reserved.
    45                           ; 
    46                           ; This software is developed by Microchip Technology Inc. and its subsidiaries ("Microch
      +                          ip").
    47                           ; 
    48                           ; Redistribution and use in source and binary forms, with or without modification, are
    49                           ; permitted provided that the following conditions are met:
    50                           ; 
    51                           ;     1. Redistributions of source code must retain the above copyright notice, this lis
      +                          t of
    52                           ;        conditions and the following disclaimer.
    53                           ; 
    54                           ;     2. Redistributions in binary form must reproduce the above copyright notice, this 
      +                          list
    55                           ;        of conditions and the following disclaimer in the documentation and/or other
    56                           ;        materials provided with the distribution. Publication is not required when
    57                           ;        this file is used in an embedded application.
    58                           ; 
    59                           ;     3. Microchip's name may not be used to endorse or promote products derived from th
      +                          is
    60                           ;        software without specific prior written permission.
    61                           ; 
    62                           ; THIS SOFTWARE IS PROVIDED BY MICROCHIP "AS IS" AND ANY EXPRESS OR IMPLIED WARRANTIES,
    63                           ; INCLUDING, BUT NOT LIMITED TO, THE IMPLIED WARRANTIES OF MERCHANTABILITY AND FITNESS F
      +                          OR
    64                           ; PURPOSE ARE DISCLAIMED.  IN NO EVENT SHALL MICROCHIP BE LIABLE FOR ANY DIRECT, INDIREC
      +                          T,
    65                           ; INCIDENTAL, SPECIAL, EXEMPLARY, OR CONSEQUENTIAL DAMAGES (INCLUDING BUT NOT LIMITED TO
    66                           ; PROCUREMENT OF SUBSTITUTE GOODS OR SERVICES; LOSS OF USE, DATA OR PROFITS; OR BUSINESS
    67                           ; INTERRUPTION) HOWSOEVER CAUSED AND ON ANY THEORY OF LIABILITY, WHETHER IN CONTRACT, ST
      +                          RICT
    68                           ; LIABILITY, OR TORT (INCLUDING NEGLIGENCE OR OTHERWISE) ARISING IN ANY WAY OUT OF THE U
      +                          SE OF
    69                           ; THIS SOFTWARE, EVEN IF ADVISED OF THE POSSIBILITY OF SUCH DAMAGE.
    70                           ; 
    71                           ; 
    72                           ; Code-generator required, PIC18F46K20 Definitions
    73                           ; 
    74                           ; SFR Addresses
    75   000000                     
    76                           	psect	idataCOMRAM
    77   001842                     __pidataCOMRAM:
    78                           	callstack 0
    79                           
    80                           ;initializer for _seconds
    81   001842  2D                 	db	45
    82                           
    83                           ;initializer for _minutes
    84   001843  3B                 	db	59
    85                           
    86                           ;initializer for _hours
    87   001844  17                 	db	23
    88                           
    89                           ;initializer for _lcd_1
    90   001845  02                 	db	2
    91   001846  0A                 	db	10
    92   001847  12                 	db	18
    93   001848  1A                 	db	26
    94   001849  22                 	db	34
    95   00184A  2A                 	db	42
    96                           
    97                           ;initializer for _seg1
    98   00184B  02                 	db	2
    99   00184C  0A                 	db	10
   100   00184D  12                 	db	18
   101   00184E  1A                 	db	26
   102   00184F  01                 	db	1
   103                           
   104                           ;initializer for _btn_high
   105   001850  52                 	db	82
   106   001851  00                 	db	0
   107   001852  00                 	db	0
   108                           
   109                           ;initializer for _btn_low
   110   001853  C3                 	db	195
   111   001854  00                 	db	0
   112   001855  01                 	db	1
   113                           
   114                           ;initializer for _dc_motor_2
   115   001856  12                 	db	18
   116   001857  1A                 	db	26
   117                           
   118                           ;initializer for _dc_motor_1
   119   001858  02                 	db	2
   120   001859  0A                 	db	10
   121                           
   122                           ;initializer for _seg6_enable
   123   00185A  2B                 	db	43
   124                           
   125                           ;initializer for _seg5_enable
   126   00185B  23                 	db	35
   127                           
   128                           ;initializer for _seg4_enable
   129   00185C  1B                 	db	27
   130                           
   131                           ;initializer for _seg3_enable
   132   00185D  13                 	db	19
   133                           
   134                           ;initializer for _seg2_enable
   135   00185E  0B                 	db	11
   136                           
   137                           ;initializer for _seg1_enable
   138   00185F  03                 	db	3
   139                           
   140                           ;initializer for _relay2
   141   001860  12                 	db	18
   142                           
   143                           ;initializer for _relay1
   144   001861  02                 	db	2
   145                           
   146                           ;initializer for _led2
   147   001862  12                 	db	18
   148                           
   149                           ;initializer for _led1
   150   001863  02                 	db	2
   151                           
   152                           	psect	idataBANK0
   153   0015B4                     __pidataBANK0:
   154                           	callstack 0
   155                           
   156                           ;initializer for _port_registers
   157   0015B4  80                 	db	128
   158   0015B5  0F                 	db	15
   159   0015B6  81                 	db	129
   160   0015B7  0F                 	db	15
   161   0015B8  82                 	db	130
   162   0015B9  0F                 	db	15
   163   0015BA  83                 	db	131
   164   0015BB  0F                 	db	15
   165   0015BC  84                 	db	132
   166   0015BD  0F                 	db	15
   167                           
   168                           ;initializer for _tris_registers
   169   0015BE  92                 	db	146
   170   0015BF  0F                 	db	15
   171   0015C0  93                 	db	147
   172   0015C1  0F                 	db	15
   173   0015C2  94                 	db	148
   174   0015C3  0F                 	db	15
   175   0015C4  95                 	db	149
   176   0015C5  0F                 	db	15
   177   0015C6  96                 	db	150
   178   0015C7  0F                 	db	15
   179                           
   180                           ;initializer for _lat_registers
   181   0015C8  89                 	db	137
   182   0015C9  0F                 	db	15
   183   0015CA  8A                 	db	138
   184   0015CB  0F                 	db	15
   185   0015CC  8B                 	db	139
   186   0015CD  0F                 	db	15
   187   0015CE  8C                 	db	140
   188   0015CF  0F                 	db	15
   189   0015D0  8D                 	db	141
   190   0015D1  0F                 	db	15
   191                           
   192                           ;initializer for _lcd_2
   193   0015D2  32                 	db	50
   194   0015D3  3A                 	db	58
   195   0015D4  03                 	db	3
   196   0015D5  0B                 	db	11
   197   0015D6  13                 	db	19
   198   0015D7  1B                 	db	27
   199   0015D8  23                 	db	35
   200   0015D9  2B                 	db	43
   201   0015DA  33                 	db	51
   202   0015DB  3B                 	db	59
   203                           
   204                           ;initializer for _keypad1
   205   0015DC  82                 	db	130
   206   0015DD  8A                 	db	138
   207   0015DE  92                 	db	146
   208   0015DF  9A                 	db	154
   209   0015E0  62                 	db	98
   210   0015E1  6A                 	db	106
   211   0015E2  72                 	db	114
   212   0015E3  7A                 	db	122
   213                           
   214                           ;initializer for _custom6
   215   0015E4  0E                 	db	14
   216   0015E5  0E                 	db	14
   217   0015E6  1F                 	db	31
   218   0015E7  1F                 	db	31
   219   0015E8  1F                 	db	31
   220   0015E9  1F                 	db	31
   221   0015EA  1F                 	db	31
   222   0015EB  00                 	db	0
   223                           
   224                           ;initializer for _custom5
   225   0015EC  0E                 	db	14
   226   0015ED  0A                 	db	10
   227   0015EE  1F                 	db	31
   228   0015EF  1F                 	db	31
   229   0015F0  1F                 	db	31
   230   0015F1  1F                 	db	31
   231   0015F2  1F                 	db	31
   232   0015F3  00                 	db	0
   233                           
   234                           ;initializer for _custom4
   235   0015F4  0E                 	db	14
   236   0015F5  0A                 	db	10
   237   0015F6  1B                 	db	27
   238   0015F7  1F                 	db	31
   239   0015F8  1F                 	db	31
   240   0015F9  1F                 	db	31
   241   0015FA  1F                 	db	31
   242   0015FB  00                 	db	0
   243                           
   244                           ;initializer for _custom3
   245   0015FC  0E                 	db	14
   246   0015FD  0A                 	db	10
   247   0015FE  1B                 	db	27
   248   0015FF  11                 	db	17
   249   001600  1F                 	db	31
   250   001601  1F                 	db	31
   251   001602  1F                 	db	31
   252   001603  00                 	db	0
   253                           
   254                           ;initializer for _custom2
   255   001604  0E                 	db	14
   256   001605  0A                 	db	10
   257   001606  1B                 	db	27
   258   001607  11                 	db	17
   259   001608  11                 	db	17
   260   001609  1F                 	db	31
   261   00160A  1F                 	db	31
   262   00160B  00                 	db	0
   263                           
   264                           ;initializer for _custom1
   265   00160C  0E                 	db	14
   266   00160D  0A                 	db	10
   267   00160E  1B                 	db	27
   268   00160F  11                 	db	17
   269   001610  11                 	db	17
   270   001611  11                 	db	17
   271   001612  1F                 	db	31
   272   001613  00                 	db	0
   273                           
   274                           ;initializer for _int0_obj
   275   001614  6E                 	db	low _INT0_App_ISR
   276   001615  18                 	db	high _INT0_App_ISR
   277   001616  41                 	db	65
   278   001617  01                 	db	1
   279   001618  00                 	db	0
   280   001619  01                 	db	1
   281                           
   282                           	psect	smallconst
   283   001000                     __psmallconst:
   284                           	callstack 0
   285   001000  00                 	db	0
   286   001001                     _btn_values:
   287                           	callstack 0
   288   001001  37                 	db	55
   289   001002  38                 	db	56
   290   001003  39                 	db	57
   291   001004  2F                 	db	47
   292   001005  34                 	db	52
   293   001006  35                 	db	53
   294   001007  36                 	db	54
   295   001008  2A                 	db	42
   296   001009  31                 	db	49
   297   00100A  32                 	db	50
   298   00100B  33                 	db	51
   299   00100C  2D                 	db	45
   300   00100D  23                 	db	35
   301   00100E  30                 	db	48
   302   00100F  3D                 	db	61
   303   001010  2B                 	db	43
   304   001011                     __end_of_btn_values:
   305                           	callstack 0
   306   000000                     _INTCON2bits	set	4081
   307   000000                     _PORTA	set	3968
   308   000000                     _LATA	set	3977
   309   000000                     _TRISA	set	3986
   310   000000                     _LATE	set	3981
   311   000000                     _LATD	set	3980
   312   000000                     _LATC	set	3979
   313   000000                     _LATB	set	3978
   314   000000                     _INTCON3bits	set	4080
   315   000000                     _INTCONbits	set	4082
   316   000000                     _TRISE	set	3990
   317   000000                     _TRISD	set	3989
   318   000000                     _TRISC	set	3988
   319   000000                     _TRISB	set	3987
   320   000000                     _PORTE	set	3972
   321   000000                     _PORTD	set	3971
   322   000000                     _PORTC	set	3970
   323   000000                     _PORTB	set	3969
   324   001011  57                 	db	87	;'W'
   325   001012  69                 	db	105	;'i'
   326   001013  6C                 	db	108	;'l'
   327   001014  6C                 	db	108	;'l'
   328   001015  20                 	db	32
   329   001016  43                 	db	67	;'C'
   330   001017  6F                 	db	111	;'o'
   331   001018  6E                 	db	110	;'n'
   332   001019  71                 	db	113	;'q'
   333   00101A  75                 	db	117	;'u'
   334   00101B  65                 	db	101	;'e'
   335   00101C  72                 	db	114	;'r'
   336   00101D  00                 	db	0
   337   00101E  20                 	db	32
   338   00101F  74                 	db	116	;'t'
   339   001020  68                 	db	104	;'h'
   340   001021  65                 	db	101	;'e'
   341   001022  20                 	db	32
   342   001023  57                 	db	87	;'W'
   343   001024  6F                 	db	111	;'o'
   344   001025  72                 	db	114	;'r'
   345   001026  6C                 	db	108	;'l'
   346   001027  64                 	db	100	;'d'
   347   001028  00                 	db	0
   348   001029                     STR_1:
   349   001029  25                 	db	37
   350   00102A  75                 	db	117	;'u'
   351   00102B  00                 	db	0
   352   00102C  00                 	db	0	; dummy byte at the end
   353   000000                     
   354                           ; #config settings
   355                           
   356                           	psect	cinit
   357   001680                     __pcinit:
   358                           	callstack 0
   359   001680                     start_initialization:
   360                           	callstack 0
   361   001680                     __initialization:
   362                           	callstack 0
   363                           
   364                           ; Initialize objects allocated to BANK0 (102 bytes)
   365                           ; load TBLPTR registers with __pidataBANK0
   366   001680  0EB4               	movlw	low __pidataBANK0
   367   001682  6EF6               	movwf	tblptrl,c
   368   001684  0E15               	movlw	high __pidataBANK0
   369   001686  6EF7               	movwf	tblptrh,c
   370   001688  0E00               	movlw	low (__pidataBANK0 shr (0+16))
   371   00168A  6EF8               	movwf	tblptru,c
   372   00168C  EE00  F060         	lfsr	0,__pdataBANK0
   373   001690  EE10 F066          	lfsr	1,102
   374   001694                     copy_data0:
   375   001694  0009               	tblrd		*+
   376   001696  CFF5 FFEE          	movff	tablat,postinc0
   377   00169A  50E5               	movf	postdec1,w,c
   378   00169C  50E1               	movf	fsr1l,w,c
   379   00169E  E1FA               	bnz	copy_data0
   380                           
   381                           ; Initialize objects allocated to COMRAM (34 bytes)
   382                           ; load TBLPTR registers with __pidataCOMRAM
   383   0016A0  0E42               	movlw	low __pidataCOMRAM
   384   0016A2  6EF6               	movwf	tblptrl,c
   385   0016A4  0E18               	movlw	high __pidataCOMRAM
   386   0016A6  6EF7               	movwf	tblptrh,c
   387   0016A8  0E00               	movlw	low (__pidataCOMRAM shr (0+16))
   388   0016AA  6EF8               	movwf	tblptru,c
   389   0016AC  EE00  F001         	lfsr	0,__pdataCOMRAM
   390   0016B0  EE10 F022          	lfsr	1,34
   391   0016B4                     copy_data1:
   392   0016B4  0009               	tblrd		*+
   393   0016B6  CFF5 FFEE          	movff	tablat,postinc0
   394   0016BA  50E5               	movf	postdec1,w,c
   395   0016BC  50E1               	movf	fsr1l,w,c
   396   0016BE  E1FA               	bnz	copy_data1
   397                           
   398                           ; Clear objects allocated to BANK0 (6 bytes)
   399   0016C0  0100               	movlb	0
   400   0016C2  6BD4               	clrf	(__pbssBANK0+5)& (0+255),b
   401   0016C4  6BD3               	clrf	(__pbssBANK0+4)& (0+255),b
   402   0016C6  6BD2               	clrf	(__pbssBANK0+3)& (0+255),b
   403   0016C8  6BD1               	clrf	(__pbssBANK0+2)& (0+255),b
   404   0016CA  6BD0               	clrf	(__pbssBANK0+1)& (0+255),b
   405   0016CC  6BCF               	clrf	__pbssBANK0& (0+255),b
   406                           
   407                           ; Clear objects allocated to COMRAM (26 bytes)
   408   0016CE  EE00  F023         	lfsr	0,__pbssCOMRAM
   409   0016D2  0E1A               	movlw	26
   410   0016D4                     clear_0:
   411   0016D4  6AEE               	clrf	postinc0,c
   412   0016D6  06E8               	decf	wreg,f,c
   413   0016D8  E1FD               	bnz	clear_0
   414   0016DA                     end_of_initialization:
   415                           	callstack 0
   416   0016DA                     __end_of__initialization:
   417                           	callstack 0
   418   0016DA  9051               	bcf	int$flags,0,c	;clear compiler interrupt flag (level 1)
   419   0016DC  9251               	bcf	int$flags,1,c	;clear compiler interrupt flag (level 2)
   420   0016DE  0100               	movlb	0
   421   0016E0  EF97  F00B         	goto	_main	;jump to C main() function
   422                           
   423                           	psect	bssCOMRAM
   424   000023                     __pbssCOMRAM:
   425                           	callstack 0
   426   000023                     _errno:
   427                           	callstack 0
   428   000023                     	ds	2
   429   000025                     _INT2_INTERRUPT_HANDLER:
   430                           	callstack 0
   431   000025                     	ds	2
   432   000027                     _INT1_INTERRUPT_HANDLER:
   433                           	callstack 0
   434   000027                     	ds	2
   435   000029                     _INT0_INTERRUPT_HANDLER:
   436                           	callstack 0
   437   000029                     	ds	2
   438   00002B                     button_read_state@btn_low_valid:
   439                           	callstack 0
   440   00002B                     	ds	2
   441   00002D                     button_read_state@btn_high_valid:
   442                           	callstack 0
   443   00002D                     	ds	2
   444   00002F                     	ds	1
   445   000030                     _counter:
   446                           	callstack 0
   447   000030                     	ds	1
   448   000031                     _seg_val:
   449                           	callstack 0
   450   000031                     	ds	1
   451   000032                     relay_turn_off@F3158:
   452                           	callstack 0
   453   000032                     	ds	1
   454   000033                     relay_turn_on@F3153:
   455                           	callstack 0
   456   000033                     	ds	1
   457   000034                     relay_initialize@F3148:
   458                           	callstack 0
   459   000034                     	ds	1
   460   000035                     led_toggle@F3173:
   461                           	callstack 0
   462   000035                     	ds	1
   463   000036                     led_turn_off@F3168:
   464                           	callstack 0
   465   000036                     	ds	1
   466   000037                     led_turn_on@F3163:
   467                           	callstack 0
   468   000037                     	ds	1
   469   000038                     led_initialize@F3158:
   470                           	callstack 0
   471   000038                     	ds	1
   472   000039                     turn_on_leds@_POS:
   473                           	callstack 0
   474   000039                     	ds	1
   475   00003A                     btn_high_magic_button@led_status:
   476                           	callstack 0
   477   00003A                     	ds	1
   478   00003B                     btn_high_magic_button@btn_high_last_valid_status:
   479                           	callstack 0
   480   00003B                     	ds	1
   481   00003C                     _value:
   482                           	callstack 0
   483   00003C                     	ds	1
   484                           
   485                           	psect	dataCOMRAM
   486   000001                     __pdataCOMRAM:
   487                           	callstack 0
   488   000001                     _seconds:
   489                           	callstack 0
   490   000001                     	ds	1
   491   000002                     _minutes:
   492                           	callstack 0
   493   000002                     	ds	1
   494   000003                     _hours:
   495                           	callstack 0
   496   000003                     	ds	1
   497   000004                     _lcd_1:
   498                           	callstack 0
   499   000004                     	ds	6
   500   00000A                     _seg1:
   501                           	callstack 0
   502   00000A                     	ds	5
   503   00000F                     _btn_high:
   504                           	callstack 0
   505   00000F                     	ds	3
   506   000012                     _btn_low:
   507                           	callstack 0
   508   000012                     	ds	3
   509   000015                     _dc_motor_2:
   510                           	callstack 0
   511   000015                     	ds	2
   512   000017                     _dc_motor_1:
   513                           	callstack 0
   514   000017                     	ds	2
   515   000019                     _seg6_enable:
   516                           	callstack 0
   517   000019                     	ds	1
   518   00001A                     _seg5_enable:
   519                           	callstack 0
   520   00001A                     	ds	1
   521   00001B                     _seg4_enable:
   522                           	callstack 0
   523   00001B                     	ds	1
   524   00001C                     _seg3_enable:
   525                           	callstack 0
   526   00001C                     	ds	1
   527   00001D                     _seg2_enable:
   528                           	callstack 0
   529   00001D                     	ds	1
   530   00001E                     _seg1_enable:
   531                           	callstack 0
   532   00001E                     	ds	1
   533   00001F                     _relay2:
   534                           	callstack 0
   535   00001F                     	ds	1
   536   000020                     _relay1:
   537                           	callstack 0
   538   000020                     	ds	1
   539   000021                     _led2:
   540                           	callstack 0
   541   000021                     	ds	1
   542   000022                     _led1:
   543                           	callstack 0
   544   000022                     	ds	1
   545                           
   546                           	psect	bssBANK0
   547   0000CF                     __pbssBANK0:
   548                           	callstack 0
   549   0000CF                     	ds	6
   550                           
   551                           	psect	dataBANK0
   552   000060                     __pdataBANK0:
   553                           	callstack 0
   554   000060                     _port_registers:
   555                           	callstack 0
   556   000060                     	ds	10
   557   00006A                     _tris_registers:
   558                           	callstack 0
   559   00006A                     	ds	10
   560   000074                     _lat_registers:
   561                           	callstack 0
   562   000074                     	ds	10
   563   00007E                     _lcd_2:
   564                           	callstack 0
   565   00007E                     	ds	10
   566   000088                     _keypad1:
   567                           	callstack 0
   568   000088                     	ds	8
   569   000090                     _custom6:
   570                           	callstack 0
   571   000090                     	ds	8
   572   000098                     _custom5:
   573                           	callstack 0
   574   000098                     	ds	8
   575   0000A0                     _custom4:
   576                           	callstack 0
   577   0000A0                     	ds	8
   578   0000A8                     _custom3:
   579                           	callstack 0
   580   0000A8                     	ds	8
   581   0000B0                     _custom2:
   582                           	callstack 0
   583   0000B0                     	ds	8
   584   0000B8                     _custom1:
   585                           	callstack 0
   586   0000B8                     	ds	8
   587   0000C0                     _int0_obj:
   588                           	callstack 0
   589   0000C0                     	ds	6
   590                           
   591                           	psect	cstackBANK0
   592   0000C6                     __pcstackBANK0:
   593                           	callstack 0
   594   0000C6                     gpio_pin_direction_initialize@ret:
   595                           	callstack 0
   596   0000C6                     Interrupt_INTx_Set_Interrupt_Handler@ret:
   597                           	callstack 0
   598                           
   599                           ; 1 bytes @ 0x0
   600   0000C6                     	ds	1
   601   0000C7                     gpio_pin_initialize@_pin_config_t:
   602                           	callstack 0
   603                           
   604                           ; 1 bytes @ 0x1
   605   0000C7                     	ds	1
   606   0000C8                     ??_gpio_pin_initialize:
   607                           
   608                           ; 1 bytes @ 0x2
   609   0000C8                     	ds	1
   610   0000C9                     gpio_pin_initialize@ret:
   611                           	callstack 0
   612                           
   613                           ; 1 bytes @ 0x3
   614   0000C9                     	ds	1
   615   0000CA                     led_initialize@led:
   616                           	callstack 0
   617   0000CA                     Interrupt_INTx_Pin_Init@int_obj:
   618                           	callstack 0
   619                           
   620                           ; 1 bytes @ 0x4
   621   0000CA                     	ds	1
   622   0000CB                     ??_led_initialize:
   623   0000CB                     Interrupt_INTx_Pin_Init@ret:
   624                           	callstack 0
   625                           
   626                           ; 1 bytes @ 0x5
   627   0000CB                     	ds	1
   628   0000CC                     led_initialize@ret:
   629                           	callstack 0
   630   0000CC                     Interrupt_INTx_Init@int_obj:
   631                           	callstack 0
   632                           
   633                           ; 1 bytes @ 0x6
   634   0000CC                     	ds	1
   635   0000CD                     led_initialize@pin:
   636                           	callstack 0
   637   0000CD                     Interrupt_INTx_Init@ret:
   638                           	callstack 0
   639                           
   640                           ; 1 bytes @ 0x7
   641   0000CD                     	ds	1
   642   0000CE                     main@ret:
   643                           	callstack 0
   644                           
   645                           ; 1 bytes @ 0x8
   646   0000CE                     	ds	1
   647                           
   648                           	psect	cstackCOMRAM
   649   00003D                     __pcstackCOMRAM:
   650                           	callstack 0
   651   00003D                     gpio_pin_toggle_logic@_pin_config_t:
   652                           	callstack 0
   653                           
   654                           ; 1 bytes @ 0x0
   655   00003D                     	ds	1
   656   00003E                     ??_gpio_pin_toggle_logic:
   657                           
   658                           ; 1 bytes @ 0x1
   659   00003E                     	ds	4
   660   000042                     led_toggle@led:
   661                           	callstack 0
   662                           
   663                           ; 1 bytes @ 0x5
   664   000042                     	ds	1
   665   000043                     ??_led_toggle:
   666                           
   667                           ; 1 bytes @ 0x6
   668   000043                     	ds	1
   669   000044                     led_toggle@pin:
   670                           	callstack 0
   671                           
   672                           ; 1 bytes @ 0x7
   673   000044                     	ds	1
   674   000045                     ??_Interrupt_Manager:
   675   000045                     
   676                           ; 1 bytes @ 0x8
   677   000045                     	ds	6
   678   00004B                     gpio_pin_direction_initialize@_pin_config_t:
   679                           	callstack 0
   680   00004B                     Interrupt_INTx_Enable@int_obj:
   681                           	callstack 0
   682   00004B                     Interrupt_INTx_Disable@int_obj:
   683                           	callstack 0
   684   00004B                     Interrupt_INTx_Edge_Init@int_obj:
   685                           	callstack 0
   686   00004B                     Interrupt_INTx_Clear_Flag@int_obj:
   687                           	callstack 0
   688   00004B                     application_init@ret:
   689                           	callstack 0
   690   00004B                     INT0_Set_Interrupt_Handler@Interrupt_Handler:
   691                           	callstack 0
   692   00004B                     INT1_Set_Interrupt_Handler@Interrupt_Handler:
   693                           	callstack 0
   694   00004B                     INT2_Set_Interrupt_Handler@Interrupt_Handler:
   695                           	callstack 0
   696                           
   697                           ; 2 bytes @ 0xE
   698   00004B                     	ds	1
   699   00004C                     ??_gpio_pin_direction_initialize:
   700   00004C                     ??_Interrupt_INTx_Disable:
   701   00004C                     ??_Interrupt_INTx_Clear_Flag:
   702   00004C                     ??_Interrupt_INTx_Edge_Init:
   703   00004C                     ??_Interrupt_INTx_Enable:
   704                           
   705                           ; 1 bytes @ 0xF
   706   00004C                     	ds	1
   707   00004D                     INT0_Set_Interrupt_Handler@ret:
   708                           	callstack 0
   709   00004D                     INT1_Set_Interrupt_Handler@ret:
   710                           	callstack 0
   711   00004D                     INT2_Set_Interrupt_Handler@ret:
   712                           	callstack 0
   713                           
   714                           ; 1 bytes @ 0x10
   715   00004D                     	ds	1
   716   00004E                     Interrupt_INTx_Disable@ret:
   717                           	callstack 0
   718   00004E                     Interrupt_INTx_Edge_Init@ret:
   719                           	callstack 0
   720   00004E                     Interrupt_INTx_Clear_Flag@ret:
   721                           	callstack 0
   722   00004E                     Interrupt_INTx_Set_Interrupt_Handler@int_obj:
   723                           	callstack 0
   724                           
   725                           ; 1 bytes @ 0x11
   726   00004E                     	ds	1
   727   00004F                     ??_Interrupt_INTx_Set_Interrupt_Handler:
   728                           
   729                           ; 1 bytes @ 0x12
   730   00004F                     	ds	2
   731   000051                     
   732                           ; 1 bytes @ 0x14
   733 ;;
   734 ;;Main: autosize = 0, tempsize = 0, incstack = 0, save=0
   735 ;;
   736 ;; *************** function _main *****************
   737 ;; Defined at:
   738 ;;		line 24 in file "app.c"
   739 ;; Parameters:    Size  Location     Type
   740 ;;		None
   741 ;; Auto vars:     Size  Location     Type
   742 ;;  ret             1    8[BANK0 ] unsigned char 
   743 ;; Return value:  Size  Location     Type
   744 ;;                  2  962[None  ] int 
   745 ;; Registers used:
   746 ;;		wreg, fsr2l, fsr2h, status,2, status,0, prodl, prodh, cstack
   747 ;; Tracked objects:
   748 ;;		On entry : 0/0
   749 ;;		On exit  : 0/0
   750 ;;		Unchanged: 0/0
   751 ;; Data sizes:     COMRAM   BANK0   BANK1   BANK2   BANK3   BANK4   BANK5   BANK6   BANK7   BANK8   BANK9  BANK10  BANK1
      +1  BANK12  BANK13  BANK14  BANK15
   752 ;;      Params:         0       0       0       0       0       0       0       0       0       0       0       0       
      +0       0       0       0       0
   753 ;;      Locals:         0       1       0       0       0       0       0       0       0       0       0       0       
      +0       0       0       0       0
   754 ;;      Temps:          0       0       0       0       0       0       0       0       0       0       0       0       
      +0       0       0       0       0
   755 ;;      Totals:         0       1       0       0       0       0       0       0       0       0       0       0       
      +0       0       0       0       0
   756 ;;Total ram usage:        1 bytes
   757 ;; Hardware stack levels required when called: 9
   758 ;; This function calls:
   759 ;;		_Interrupt_INTx_Init
   760 ;;		_application_init
   761 ;;		_led_initialize
   762 ;; This function is called by:
   763 ;;		Startup code after reset
   764 ;; This function uses a non-reentrant model
   765 ;;
   766                           
   767                           	psect	text0
   768   00172E                     __ptext0:
   769                           	callstack 0
   770   00172E                     _main:
   771                           	callstack 22
   772   00172E                     
   773                           ;app.c: 26:     Std_ReturnType ret = application_init();
   774   00172E  EC32  F00C         	call	_application_init	;wreg free
   775   001732  0100               	movlb	0	; () banked
   776   001734  6FCE               	movwf	main@ret& (0+255),b
   777   001736                     
   778                           ; BSR set to: 0
   779                           ;app.c: 28:     if ((Std_ReturnType)0x01u == ret)
   780   001736  05CE               	decf	main@ret& (0+255),w,b
   781   001738  A4D8               	btfss	status,2,c
   782   00173A  EFA1  F00B         	goto	u5801
   783   00173E  EFA3  F00B         	goto	u5800
   784   001742                     u5801:
   785   001742  EFA5  F00B         	goto	l6367
   786   001746                     u5800:
   787   001746  EFB3  F00B         	goto	l964
   788   00174A                     l6367:
   789                           
   790                           ; BSR set to: 0
   791                           ;app.c: 32:     ret |= Interrupt_INTx_Init(&int0_obj);
   792   00174A  0EC0               	movlw	low _int0_obj
   793   00174C  6FCC               	movwf	Interrupt_INTx_Init@int_obj& (0+255),b
   794   00174E  ECA6  F00A         	call	_Interrupt_INTx_Init	;wreg free
   795   001752  0100               	movlb	0	; () banked
   796   001754  13CE               	iorwf	main@ret& (0+255),f,b
   797                           
   798                           ;app.c: 33:     ret |= led_initialize(&led1);
   799   001756  0E22               	movlw	low _led1
   800   001758  6FCA               	movwf	led_initialize@led& (0+255),b
   801   00175A  ECC5  F009         	call	_led_initialize	;wreg free
   802   00175E  0100               	movlb	0	; () banked
   803   001760  13CE               	iorwf	main@ret& (0+255),f,b
   804   001762                     l965:
   805   001762  EFB1  F00B         	goto	l965
   806   001766                     l964:
   807                           
   808                           ; BSR set to: 0
   809   001766  EF2F  F000         	goto	start
   810   00176A                     __end_of_main:
   811                           	callstack 0
   812                           
   813 ;; *************** function _led_initialize *****************
   814 ;; Defined at:
   815 ;;		line 35 in file "ECU_Layer/led/ecu_led.c"
   816 ;; Parameters:    Size  Location     Type
   817 ;;  led             1    4[BANK0 ] PTR const struct .
   818 ;;		 -> led1(1), 
   819 ;; Auto vars:     Size  Location     Type
   820 ;;  pin             1    7[BANK0 ] struct .
   821 ;;  ret             1    6[BANK0 ] unsigned char 
   822 ;; Return value:  Size  Location     Type
   823 ;;                  1    wreg      unsigned char 
   824 ;; Registers used:
   825 ;;		wreg, fsr2l, fsr2h, status,2, status,0, prodl, prodh, cstack
   826 ;; Tracked objects:
   827 ;;		On entry : 0/0
   828 ;;		On exit  : 0/0
   829 ;;		Unchanged: 0/0
   830 ;; Data sizes:     COMRAM   BANK0   BANK1   BANK2   BANK3   BANK4   BANK5   BANK6   BANK7   BANK8   BANK9  BANK10  BANK1
      +1  BANK12  BANK13  BANK14  BANK15
   831 ;;      Params:         0       1       0       0       0       0       0       0       0       0       0       0       
      +0       0       0       0       0
   832 ;;      Locals:         0       2       0       0       0       0       0       0       0       0       0       0       
      +0       0       0       0       0
   833 ;;      Temps:          0       1       0       0       0       0       0       0       0       0       0       0       
      +0       0       0       0       0
   834 ;;      Totals:         0       4       0       0       0       0       0       0       0       0       0       0       
      +0       0       0       0       0
   835 ;;Total ram usage:        4 bytes
   836 ;; Hardware stack levels used: 1
   837 ;; Hardware stack levels required when called: 7
   838 ;; This function calls:
   839 ;;		_gpio_pin_initialize
   840 ;; This function is called by:
   841 ;;		_main
   842 ;; This function uses a non-reentrant model
   843 ;;
   844                           
   845                           	psect	text1
   846   00138A                     __ptext1:
   847                           	callstack 0
   848   00138A                     _led_initialize:
   849                           	callstack 23
   850   00138A                     
   851                           ;ECU_Layer/led/ecu_led.c: 35: Std_ReturnType led_initialize(const led_t *led);ECU_Layer/
      +                          led/ecu_led.c: 35: Std_ReturnType led_initialize(const led_t *led);ECU_Layer/led/ecu_led
      +                          .c: 36: {;ECU_Layer/led/ecu_led.c: 36: {;ECU_Layer/led/ecu_led.c: 37:     Std_ReturnType
      +                           ret = (Std_ReturnType)0x00u;;ECU_Layer/led/ecu_led.c: 37:     Std_ReturnType ret = (Std
      +                          _ReturnType)0x00u;
   852   00138A  0E00               	movlw	0
   853   00138C  0100               	movlb	0	; () banked
   854   00138E  6FCC               	movwf	led_initialize@ret& (0+255),b
   855                           
   856                           ;ECU_Layer/led/ecu_led.c: 38:     if (((void*)0) == led);ECU_Layer/led/ecu_led.c: 38:   
      +                            if (((void*)0) == led)
   857   001390  51CA               	movf	led_initialize@led& (0+255),w,b
   858   001392  A4D8               	btfss	status,2,c
   859   001394  EFCE  F009         	goto	u5421
   860   001398  EFD0  F009         	goto	u5420
   861   00139C                     u5421:
   862   00139C  EFD4  F009         	goto	l338
   863   0013A0                     u5420:
   864   0013A0                     
   865                           ; BSR set to: 0
   866                           ;ECU_Layer/led/ecu_led.c: 39:     {;ECU_Layer/led/ecu_led.c: 39:     {;ECU_Layer/led/ecu
      +                          _led.c: 40:         ret = (Std_ReturnType)0x01u;;ECU_Layer/led/ecu_led.c: 40:         re
      +                          t = (Std_ReturnType)0x01u;
   867   0013A0  0E01               	movlw	1
   868   0013A2  6FCC               	movwf	led_initialize@ret& (0+255),b
   869                           
   870                           ;ECU_Layer/led/ecu_led.c: 41:     };ECU_Layer/led/ecu_led.c: 41:     }
   871   0013A4  EFFD  F009         	goto	l5903
   872   0013A8                     l338:
   873                           
   874                           ; BSR set to: 0
   875                           ;ECU_Layer/led/ecu_led.c: 43:     {;ECU_Layer/led/ecu_led.c: 43:     {;ECU_Layer/led/ecu
      +                          _led.c: 44:         pin_config_t pin = {;ECU_Layer/led/ecu_led.c: 44:         pin_config
      +                          _t pin = {
   876   0013A8  C038  F0CD         	movff	led_initialize@F3158,led_initialize@pin
   877   0013AC                     
   878                           ; BSR set to: 0
   879   0013AC  51CA               	movf	led_initialize@led& (0+255),w,b
   880   0013AE  6ED9               	movwf	fsr2l,c
   881   0013B0  6ADA               	clrf	fsr2h,c
   882   0013B2  50DF               	movf	223,w,c
   883   0013B4  0B0F               	andlw	15
   884   0013B6  6FCB               	movwf	??_led_initialize& (0+255),b
   885   0013B8  51CD               	movf	led_initialize@pin& (0+255),w,b
   886   0013BA  19CB               	xorwf	??_led_initialize& (0+255),w,b
   887   0013BC  0BF8               	andlw	-8
   888   0013BE  19CB               	xorwf	??_led_initialize& (0+255),w,b
   889   0013C0  6FCD               	movwf	led_initialize@pin& (0+255),b
   890   0013C2  51CA               	movf	led_initialize@led& (0+255),w,b
   891   0013C4  6ED9               	movwf	fsr2l,c
   892   0013C6  6ADA               	clrf	fsr2h,c
   893   0013C8  38DF               	swapf	223,w,c
   894   0013CA  0B07               	andlw	7
   895   0013CC  6FCB               	movwf	??_led_initialize& (0+255),b
   896   0013CE  47CB               	rlncf	??_led_initialize& (0+255),f,b
   897   0013D0  47CB               	rlncf	??_led_initialize& (0+255),f,b
   898   0013D2  47CB               	rlncf	??_led_initialize& (0+255),f,b
   899   0013D4  51CD               	movf	led_initialize@pin& (0+255),w,b
   900   0013D6  19CB               	xorwf	??_led_initialize& (0+255),w,b
   901   0013D8  0BC7               	andlw	-57
   902   0013DA  19CB               	xorwf	??_led_initialize& (0+255),w,b
   903   0013DC  6FCD               	movwf	led_initialize@pin& (0+255),b
   904   0013DE                     
   905                           ; BSR set to: 0
   906   0013DE  9DCD               	bcf	led_initialize@pin& (0+255),6,b
   907   0013E0                     
   908                           ; BSR set to: 0
   909   0013E0  51CA               	movf	led_initialize@led& (0+255),w,b
   910   0013E2  6ED9               	movwf	fsr2l,c
   911   0013E4  6ADA               	clrf	fsr2h,c
   912   0013E6  AEDF               	btfss	indf2,7,c
   913   0013E8  D002               	bra	u5435
   914   0013EA  8FCD               	bsf	led_initialize@pin& (0+255),7,b
   915   0013EC  D002               	bra	u5437
   916   0013EE                     u5435:
   917   0013EE  0100               	movlb	0	; () banked
   918   0013F0  9FCD               	bcf	led_initialize@pin& (0+255),7,b
   919   0013F2                     u5437:
   920   0013F2                     
   921                           ; BSR set to: 0
   922                           ;ECU_Layer/led/ecu_led.c: 50:         gpio_pin_initialize(&pin);;ECU_Layer/led/ecu_led.c
      +                          : 50:         gpio_pin_initialize(&pin);
   923   0013F2  0ECD               	movlw	low led_initialize@pin
   924   0013F4  6FC7               	movwf	gpio_pin_initialize@_pin_config_t& (0+255),b
   925   0013F6  EC72  F00B         	call	_gpio_pin_initialize	;wreg free
   926   0013FA                     l5903:
   927                           
   928                           ;ECU_Layer/led/ecu_led.c: 52:     return (ret);;ECU_Layer/led/ecu_led.c: 52:     return 
      +                          (ret);
   929   0013FA  0100               	movlb	0	; () banked
   930   0013FC  51CC               	movf	led_initialize@ret& (0+255),w,b
   931   0013FE                     
   932                           ; BSR set to: 0
   933   0013FE  0012               	return		;funcret
   934   001400                     __end_of_led_initialize:
   935                           	callstack 0
   936                           
   937 ;; *************** function _application_init *****************
   938 ;; Defined at:
   939 ;;		line 39 in file "app.c"
   940 ;; Parameters:    Size  Location     Type
   941 ;;		None
   942 ;; Auto vars:     Size  Location     Type
   943 ;;  ret             1   14[COMRAM] unsigned char 
   944 ;; Return value:  Size  Location     Type
   945 ;;                  1    wreg      unsigned char 
   946 ;; Registers used:
   947 ;;		wreg, status,2, cstack
   948 ;; Tracked objects:
   949 ;;		On entry : 0/0
   950 ;;		On exit  : 0/0
   951 ;;		Unchanged: 0/0
   952 ;; Data sizes:     COMRAM   BANK0   BANK1   BANK2   BANK3   BANK4   BANK5   BANK6   BANK7   BANK8   BANK9  BANK10  BANK1
      +1  BANK12  BANK13  BANK14  BANK15
   953 ;;      Params:         0       0       0       0       0       0       0       0       0       0       0       0       
      +0       0       0       0       0
   954 ;;      Locals:         1       0       0       0       0       0       0       0       0       0       0       0       
      +0       0       0       0       0
   955 ;;      Temps:          0       0       0       0       0       0       0       0       0       0       0       0       
      +0       0       0       0       0
   956 ;;      Totals:         1       0       0       0       0       0       0       0       0       0       0       0       
      +0       0       0       0       0
   957 ;;Total ram usage:        1 bytes
   958 ;; Hardware stack levels used: 1
   959 ;; Hardware stack levels required when called: 6
   960 ;; This function calls:
   961 ;;		_ecu_layer_initialize
   962 ;; This function is called by:
   963 ;;		_main
   964 ;; This function uses a non-reentrant model
   965 ;;
   966                           
   967                           	psect	text2
   968   001864                     __ptext2:
   969                           	callstack 0
   970   001864                     _application_init:
   971                           	callstack 24
   972   001864                     
   973                           ;app.c: 42:     ret = ecu_layer_initialize();
   974   001864  EC3C  F00C         	call	_ecu_layer_initialize	;wreg free
   975   001868  6E4B               	movwf	application_init@ret^0,c
   976   00186A                     
   977                           ;app.c: 44:     return (ret);
   978   00186A  504B               	movf	application_init@ret^0,w,c
   979   00186C  0012               	return		;funcret
   980   00186E                     __end_of_application_init:
   981                           	callstack 0
   982                           
   983 ;; *************** function _ecu_layer_initialize *****************
   984 ;; Defined at:
   985 ;;		line 10 in file "ECU_Layer/ecu_layer_init.c"
   986 ;; Parameters:    Size  Location     Type
   987 ;;		None
   988 ;; Auto vars:     Size  Location     Type
   989 ;;  ret             1    0        unsigned char 
   990 ;; Return value:  Size  Location     Type
   991 ;;                  1    wreg      unsigned char 
   992 ;; Registers used:
   993 ;;		wreg, status,2
   994 ;; Tracked objects:
   995 ;;		On entry : 0/0
   996 ;;		On exit  : 0/0
   997 ;;		Unchanged: 0/0
   998 ;; Data sizes:     COMRAM   BANK0   BANK1   BANK2   BANK3   BANK4   BANK5   BANK6   BANK7   BANK8   BANK9  BANK10  BANK1
      +1  BANK12  BANK13  BANK14  BANK15
   999 ;;      Params:         0       0       0       0       0       0       0       0       0       0       0       0       
      +0       0       0       0       0
  1000 ;;      Locals:         0       0       0       0       0       0       0       0       0       0       0       0       
      +0       0       0       0       0
  1001 ;;      Temps:          0       0       0       0       0       0       0       0       0       0       0       0       
      +0       0       0       0       0
  1002 ;;      Totals:         0       0       0       0       0       0       0       0       0       0       0       0       
      +0       0       0       0       0
  1003 ;;Total ram usage:        0 bytes
  1004 ;; Hardware stack levels used: 1
  1005 ;; Hardware stack levels required when called: 5
  1006 ;; This function calls:
  1007 ;;		Nothing
  1008 ;; This function is called by:
  1009 ;;		_application_init
  1010 ;; This function uses a non-reentrant model
  1011 ;;
  1012                           
  1013                           	psect	text3
  1014   001878                     __ptext3:
  1015                           	callstack 0
  1016   001878                     _ecu_layer_initialize:
  1017                           	callstack 24
  1018   001878                     
  1019                           ;ECU_Layer/ecu_layer_init.c: 18:     return (ret);
  1020   001878  0E00               	movlw	0
  1021   00187A  0012               	return		;funcret
  1022   00187C                     __end_of_ecu_layer_initialize:
  1023                           	callstack 0
  1024                           
  1025 ;; *************** function _Interrupt_INTx_Init *****************
  1026 ;; Defined at:
  1027 ;;		line 35 in file "MCAL_Layer/Interrupt/mcal_external_interrupt.c"
  1028 ;; Parameters:    Size  Location     Type
  1029 ;;  int_obj         1    6[BANK0 ] PTR const struct .
  1030 ;;		 -> int0_obj(6), 
  1031 ;; Auto vars:     Size  Location     Type
  1032 ;;  ret             1    7[BANK0 ] unsigned char 
  1033 ;; Return value:  Size  Location     Type
  1034 ;;                  1    wreg      unsigned char 
  1035 ;; Registers used:
  1036 ;;		wreg, fsr2l, fsr2h, status,2, status,0, prodl, prodh, cstack
  1037 ;; Tracked objects:
  1038 ;;		On entry : 0/0
  1039 ;;		On exit  : 0/0
  1040 ;;		Unchanged: 0/0
  1041 ;; Data sizes:     COMRAM   BANK0   BANK1   BANK2   BANK3   BANK4   BANK5   BANK6   BANK7   BANK8   BANK9  BANK10  BANK1
      +1  BANK12  BANK13  BANK14  BANK15
  1042 ;;      Params:         0       1       0       0       0       0       0       0       0       0       0       0       
      +0       0       0       0       0
  1043 ;;      Locals:         0       1       0       0       0       0       0       0       0       0       0       0       
      +0       0       0       0       0
  1044 ;;      Temps:          0       0       0       0       0       0       0       0       0       0       0       0       
      +0       0       0       0       0
  1045 ;;      Totals:         0       2       0       0       0       0       0       0       0       0       0       0       
      +0       0       0       0       0
  1046 ;;Total ram usage:        2 bytes
  1047 ;; Hardware stack levels used: 1
  1048 ;; Hardware stack levels required when called: 8
  1049 ;; This function calls:
  1050 ;;		_Interrupt_INTx_Clear_Flag
  1051 ;;		_Interrupt_INTx_Disable
  1052 ;;		_Interrupt_INTx_Edge_Init
  1053 ;;		_Interrupt_INTx_Enable
  1054 ;;		_Interrupt_INTx_Pin_Init
  1055 ;;		_Interrupt_INTx_Set_Interrupt_Handler
  1056 ;; This function is called by:
  1057 ;;		_main
  1058 ;; This function uses a non-reentrant model
  1059 ;;
  1060                           
  1061                           	psect	text4
  1062   00154C                     __ptext4:
  1063                           	callstack 0
  1064   00154C                     _Interrupt_INTx_Init:
  1065                           	callstack 22
  1066   00154C                     
  1067                           ;MCAL_Layer/Interrupt/mcal_external_interrupt.c: 35: Std_ReturnType Interrupt_INTx_Init(
      +                          const interrupt_INTx_t *int_obj);MCAL_Layer/Interrupt/mcal_external_interrupt.c: 36: {;M
      +                          CAL_Layer/Interrupt/mcal_external_interrupt.c: 37:     Std_ReturnType ret = (Std_ReturnT
      +                          ype)0x00u;
  1068   00154C  0E00               	movlw	0
  1069   00154E  0100               	movlb	0	; () banked
  1070   001550  6FCD               	movwf	Interrupt_INTx_Init@ret& (0+255),b
  1071                           
  1072                           ;MCAL_Layer/Interrupt/mcal_external_interrupt.c: 39:     if (int_obj == ((void*)0))
  1073   001552  51CC               	movf	Interrupt_INTx_Init@int_obj& (0+255),w,b
  1074   001554  A4D8               	btfss	status,2,c
  1075   001556  EFAF  F00A         	goto	u5591
  1076   00155A  EFB1  F00A         	goto	u5590
  1077   00155E                     u5591:
  1078   00155E  EFB5  F00A         	goto	l6005
  1079   001562                     u5590:
  1080   001562                     
  1081                           ; BSR set to: 0
  1082                           ;MCAL_Layer/Interrupt/mcal_external_interrupt.c: 40:     {;MCAL_Layer/Interrupt/mcal_ext
      +                          ernal_interrupt.c: 41:         ret = (Std_ReturnType)0x01u;
  1083   001562  0E01               	movlw	1
  1084   001564  6FCD               	movwf	Interrupt_INTx_Init@ret& (0+255),b
  1085                           
  1086                           ;MCAL_Layer/Interrupt/mcal_external_interrupt.c: 42:     }
  1087   001566  EFD7  F00A         	goto	l6013
  1088   00156A                     l6005:
  1089                           
  1090                           ; BSR set to: 0
  1091                           ;MCAL_Layer/Interrupt/mcal_external_interrupt.c: 44:     {;MCAL_Layer/Interrupt/mcal_ext
      +                          ernal_interrupt.c: 46:         ret |= Interrupt_INTx_Disable(int_obj);
  1092   00156A  C0CC  F04B         	movff	Interrupt_INTx_Init@int_obj,Interrupt_INTx_Disable@int_obj
  1093   00156E  EC38  F00A         	call	_Interrupt_INTx_Disable	;wreg free
  1094   001572  0100               	movlb	0	; () banked
  1095   001574  13CD               	iorwf	Interrupt_INTx_Init@ret& (0+255),f,b
  1096                           
  1097                           ;MCAL_Layer/Interrupt/mcal_external_interrupt.c: 48:         ret |= Interrupt_INTx_Clear
      +                          _Flag(int_obj);
  1098   001576  C0CC  F04B         	movff	Interrupt_INTx_Init@int_obj,Interrupt_INTx_Clear_Flag@int_obj
  1099   00157A  EC6F  F00A         	call	_Interrupt_INTx_Clear_Flag	;wreg free
  1100   00157E  0100               	movlb	0	; () banked
  1101   001580  13CD               	iorwf	Interrupt_INTx_Init@ret& (0+255),f,b
  1102                           
  1103                           ;MCAL_Layer/Interrupt/mcal_external_interrupt.c: 50:         ret |= Interrupt_INTx_Edge_
      +                          Init(int_obj);
  1104   001582  C0CC  F04B         	movff	Interrupt_INTx_Init@int_obj,Interrupt_INTx_Edge_Init@int_obj
  1105   001586  EC17  F008         	call	_Interrupt_INTx_Edge_Init	;wreg free
  1106   00158A  0100               	movlb	0	; () banked
  1107   00158C  13CD               	iorwf	Interrupt_INTx_Init@ret& (0+255),f,b
  1108   00158E                     
  1109                           ; BSR set to: 0
  1110                           ;MCAL_Layer/Interrupt/mcal_external_interrupt.c: 56:         ret |= Interrupt_INTx_Pin_I
      +                          nit(int_obj);
  1111   00158E  C0CC  F0CA         	movff	Interrupt_INTx_Init@int_obj,Interrupt_INTx_Pin_Init@int_obj
  1112   001592  ECCC  F00B         	call	_Interrupt_INTx_Pin_Init	;wreg free
  1113   001596  0100               	movlb	0	; () banked
  1114   001598  13CD               	iorwf	Interrupt_INTx_Init@ret& (0+255),f,b
  1115   00159A                     
  1116                           ; BSR set to: 0
  1117                           ;MCAL_Layer/Interrupt/mcal_external_interrupt.c: 58:         ret |= Interrupt_INTx_Set_I
      +                          nterrupt_Handler(int_obj);
  1118   00159A  C0CC  F04E         	movff	Interrupt_INTx_Init@int_obj,Interrupt_INTx_Set_Interrupt_Handler@int_obj
  1119   00159E  EC30  F009         	call	_Interrupt_INTx_Set_Interrupt_Handler	;wreg free
  1120   0015A2  0100               	movlb	0	; () banked
  1121   0015A4  13CD               	iorwf	Interrupt_INTx_Init@ret& (0+255),f,b
  1122   0015A6                     
  1123                           ; BSR set to: 0
  1124                           ;MCAL_Layer/Interrupt/mcal_external_interrupt.c: 60:         Interrupt_INTx_Enable(int_o
      +                          bj);
  1125   0015A6  C0CC  F04B         	movff	Interrupt_INTx_Init@int_obj,Interrupt_INTx_Enable@int_obj
  1126   0015AA  EC00  F00A         	call	_Interrupt_INTx_Enable	;wreg free
  1127   0015AE                     l6013:
  1128                           
  1129                           ;MCAL_Layer/Interrupt/mcal_external_interrupt.c: 62:     return (ret);
  1130   0015AE  0100               	movlb	0	; () banked
  1131   0015B0  51CD               	movf	Interrupt_INTx_Init@ret& (0+255),w,b
  1132   0015B2                     
  1133                           ; BSR set to: 0
  1134   0015B2  0012               	return		;funcret
  1135   0015B4                     __end_of_Interrupt_INTx_Init:
  1136                           	callstack 0
  1137                           
  1138 ;; *************** function _Interrupt_INTx_Set_Interrupt_Handler *****************
  1139 ;; Defined at:
  1140 ;;		line 516 in file "MCAL_Layer/Interrupt/mcal_external_interrupt.c"
  1141 ;; Parameters:    Size  Location     Type
  1142 ;;  int_obj         1   17[COMRAM] PTR const struct .
  1143 ;;		 -> int0_obj(6), 
  1144 ;; Auto vars:     Size  Location     Type
  1145 ;;  ret             1    0[BANK0 ] unsigned char 
  1146 ;; Return value:  Size  Location     Type
  1147 ;;                  1    wreg      unsigned char 
  1148 ;; Registers used:
  1149 ;;		wreg, fsr2l, fsr2h, status,2, status,0, cstack
  1150 ;; Tracked objects:
  1151 ;;		On entry : 0/0
  1152 ;;		On exit  : 0/0
  1153 ;;		Unchanged: 0/0
  1154 ;; Data sizes:     COMRAM   BANK0   BANK1   BANK2   BANK3   BANK4   BANK5   BANK6   BANK7   BANK8   BANK9  BANK10  BANK1
      +1  BANK12  BANK13  BANK14  BANK15
  1155 ;;      Params:         1       0       0       0       0       0       0       0       0       0       0       0       
      +0       0       0       0       0
  1156 ;;      Locals:         0       1       0       0       0       0       0       0       0       0       0       0       
      +0       0       0       0       0
  1157 ;;      Temps:          2       0       0       0       0       0       0       0       0       0       0       0       
      +0       0       0       0       0
  1158 ;;      Totals:         3       1       0       0       0       0       0       0       0       0       0       0       
      +0       0       0       0       0
  1159 ;;Total ram usage:        4 bytes
  1160 ;; Hardware stack levels used: 1
  1161 ;; Hardware stack levels required when called: 6
  1162 ;; This function calls:
  1163 ;;		_INT0_Set_Interrupt_Handler
  1164 ;;		_INT1_Set_Interrupt_Handler
  1165 ;;		_INT2_Set_Interrupt_Handler
  1166 ;; This function is called by:
  1167 ;;		_Interrupt_INTx_Init
  1168 ;; This function uses a non-reentrant model
  1169 ;;
  1170                           
  1171                           	psect	text5
  1172   001260                     __ptext5:
  1173                           	callstack 0
  1174   001260                     _Interrupt_INTx_Set_Interrupt_Handler:
  1175                           	callstack 23
  1176   001260                     
  1177                           ;MCAL_Layer/Interrupt/mcal_external_interrupt.c: 520:     if (((void*)0) == int_obj)
  1178   001260  504E               	movf	Interrupt_INTx_Set_Interrupt_Handler@int_obj^0,w,c
  1179   001262  A4D8               	btfss	status,2,c
  1180   001264  EF36  F009         	goto	u4891
  1181   001268  EF38  F009         	goto	u4890
  1182   00126C                     u4891:
  1183   00126C  EF64  F009         	goto	l5505
  1184   001270                     u4890:
  1185   001270                     l5493:
  1186                           
  1187                           ;MCAL_Layer/Interrupt/mcal_external_interrupt.c: 521:     {;MCAL_Layer/Interrupt/mcal_ex
      +                          ternal_interrupt.c: 522:         ret = (Std_ReturnType)0x01u;
  1188   001270  0E01               	movlw	1
  1189   001272  0100               	movlb	0	; () banked
  1190   001274  6FC6               	movwf	Interrupt_INTx_Set_Interrupt_Handler@ret& (0+255),b
  1191                           
  1192                           ;MCAL_Layer/Interrupt/mcal_external_interrupt.c: 523:     }
  1193   001276  EF82  F009         	goto	l5507
  1194   00127A                     l5495:
  1195                           
  1196                           ;MCAL_Layer/Interrupt/mcal_external_interrupt.c: 529:                 ret = INT0_Set_Int
      +                          errupt_Handler(int_obj->EXT_interrupt_handler);
  1197   00127A  504E               	movf	Interrupt_INTx_Set_Interrupt_Handler@int_obj^0,w,c
  1198   00127C  6ED9               	movwf	fsr2l,c
  1199   00127E  6ADA               	clrf	fsr2h,c
  1200   001280  CFDE F04B          	movff	postinc2,INT0_Set_Interrupt_Handler@Interrupt_Handler
  1201   001284  CFDD F04C          	movff	postdec2,INT0_Set_Interrupt_Handler@Interrupt_Handler+1
  1202   001288  EC0C  F00C         	call	_INT0_Set_Interrupt_Handler	;wreg free
  1203   00128C  0100               	movlb	0	; () banked
  1204   00128E  6FC6               	movwf	Interrupt_INTx_Set_Interrupt_Handler@ret& (0+255),b
  1205                           
  1206                           ;MCAL_Layer/Interrupt/mcal_external_interrupt.c: 530:                 break;
  1207   001290  EF82  F009         	goto	l5507
  1208   001294                     l5497:
  1209                           
  1210                           ;MCAL_Layer/Interrupt/mcal_external_interrupt.c: 532:                 ret = INT1_Set_Int
      +                          errupt_Handler(int_obj->EXT_interrupt_handler);
  1211   001294  504E               	movf	Interrupt_INTx_Set_Interrupt_Handler@int_obj^0,w,c
  1212   001296  6ED9               	movwf	fsr2l,c
  1213   001298  6ADA               	clrf	fsr2h,c
  1214   00129A  CFDE F04B          	movff	postinc2,INT1_Set_Interrupt_Handler@Interrupt_Handler
  1215   00129E  CFDD F04C          	movff	postdec2,INT1_Set_Interrupt_Handler@Interrupt_Handler+1
  1216   0012A2  ECF7  F00B         	call	_INT1_Set_Interrupt_Handler	;wreg free
  1217   0012A6  0100               	movlb	0	; () banked
  1218   0012A8  6FC6               	movwf	Interrupt_INTx_Set_Interrupt_Handler@ret& (0+255),b
  1219                           
  1220                           ;MCAL_Layer/Interrupt/mcal_external_interrupt.c: 533:                 break;
  1221   0012AA  EF82  F009         	goto	l5507
  1222   0012AE                     l5499:
  1223                           
  1224                           ;MCAL_Layer/Interrupt/mcal_external_interrupt.c: 535:                 ret = INT2_Set_Int
      +                          errupt_Handler(int_obj->EXT_interrupt_handler);
  1225   0012AE  504E               	movf	Interrupt_INTx_Set_Interrupt_Handler@int_obj^0,w,c
  1226   0012B0  6ED9               	movwf	fsr2l,c
  1227   0012B2  6ADA               	clrf	fsr2h,c
  1228   0012B4  CFDE F04B          	movff	postinc2,INT2_Set_Interrupt_Handler@Interrupt_Handler
  1229   0012B8  CFDD F04C          	movff	postdec2,INT2_Set_Interrupt_Handler@Interrupt_Handler+1
  1230   0012BC  ECE2  F00B         	call	_INT2_Set_Interrupt_Handler	;wreg free
  1231   0012C0  0100               	movlb	0	; () banked
  1232   0012C2  6FC6               	movwf	Interrupt_INTx_Set_Interrupt_Handler@ret& (0+255),b
  1233                           
  1234                           ;MCAL_Layer/Interrupt/mcal_external_interrupt.c: 536:                 break;
  1235   0012C4  EF82  F009         	goto	l5507
  1236   0012C8                     l5505:
  1237   0012C8  504E               	movf	Interrupt_INTx_Set_Interrupt_Handler@int_obj^0,w,c
  1238   0012CA  6ED9               	movwf	fsr2l,c
  1239   0012CC  6ADA               	clrf	fsr2h,c
  1240   0012CE  0E04               	movlw	4
  1241   0012D0  26D9               	addwf	fsr2l,f,c
  1242   0012D2  50DF               	movf	indf2,w,c
  1243   0012D4  6E4F               	movwf	??_Interrupt_INTx_Set_Interrupt_Handler^0,c
  1244   0012D6  6A50               	clrf	(??_Interrupt_INTx_Set_Interrupt_Handler+1)^0,c
  1245                           
  1246                           ; Switch on 2 bytes has been partitioned into a top level switch of size 1, and 1 sub-sw
      +                          itches
  1247                           ; Switch size 1, requested type "simple"
  1248                           ; Number of cases is 1, Range of values is 0 to 0
  1249                           ; switch strategies available:
  1250                           ; Name         Instructions Cycles
  1251                           ; simple_byte            4     3 (average)
  1252                           ;	Chosen strategy is simple_byte
  1253   0012D8  5050               	movf	(??_Interrupt_INTx_Set_Interrupt_Handler+1)^0,w,c
  1254   0012DA  0A00               	xorlw	0	; case 0
  1255   0012DC  B4D8               	btfsc	status,2,c
  1256   0012DE  EF73  F009         	goto	l6469
  1257   0012E2  EF38  F009         	goto	l5493
  1258   0012E6                     l6469:
  1259                           
  1260                           ; Switch size 1, requested type "simple"
  1261                           ; Number of cases is 3, Range of values is 0 to 2
  1262                           ; switch strategies available:
  1263                           ; Name         Instructions Cycles
  1264                           ; simple_byte           10     6 (average)
  1265                           ;	Chosen strategy is simple_byte
  1266   0012E6  504F               	movf	??_Interrupt_INTx_Set_Interrupt_Handler^0,w,c
  1267   0012E8  0A00               	xorlw	0	; case 0
  1268   0012EA  B4D8               	btfsc	status,2,c
  1269   0012EC  EF3D  F009         	goto	l5495
  1270   0012F0  0A01               	xorlw	1	; case 1
  1271   0012F2  B4D8               	btfsc	status,2,c
  1272   0012F4  EF4A  F009         	goto	l5497
  1273   0012F8  0A03               	xorlw	3	; case 2
  1274   0012FA  B4D8               	btfsc	status,2,c
  1275   0012FC  EF57  F009         	goto	l5499
  1276   001300  EF38  F009         	goto	l5493
  1277   001304                     l5507:
  1278                           
  1279                           ; BSR set to: 0
  1280                           ;MCAL_Layer/Interrupt/mcal_external_interrupt.c: 542:     return (ret);
  1281   001304  51C6               	movf	Interrupt_INTx_Set_Interrupt_Handler@ret& (0+255),w,b
  1282   001306                     
  1283                           ; BSR set to: 0
  1284   001306  0012               	return		;funcret
  1285   001308                     __end_of_Interrupt_INTx_Set_Interrupt_Handler:
  1286                           	callstack 0
  1287                           
  1288 ;; *************** function _INT2_Set_Interrupt_Handler *****************
  1289 ;; Defined at:
  1290 ;;		line 497 in file "MCAL_Layer/Interrupt/mcal_external_interrupt.c"
  1291 ;; Parameters:    Size  Location     Type
  1292 ;;  Interrupt_Ha    2   14[COMRAM] PTR FTN()void 
  1293 ;;		 -> INT0_App_ISR(1), 
  1294 ;; Auto vars:     Size  Location     Type
  1295 ;;  ret             1   16[COMRAM] unsigned char 
  1296 ;; Return value:  Size  Location     Type
  1297 ;;                  1    wreg      unsigned char 
  1298 ;; Registers used:
  1299 ;;		wreg, status,2, status,0
  1300 ;; Tracked objects:
  1301 ;;		On entry : 0/0
  1302 ;;		On exit  : 0/0
  1303 ;;		Unchanged: 0/0
  1304 ;; Data sizes:     COMRAM   BANK0   BANK1   BANK2   BANK3   BANK4   BANK5   BANK6   BANK7   BANK8   BANK9  BANK10  BANK1
      +1  BANK12  BANK13  BANK14  BANK15
  1305 ;;      Params:         2       0       0       0       0       0       0       0       0       0       0       0       
      +0       0       0       0       0
  1306 ;;      Locals:         1       0       0       0       0       0       0       0       0       0       0       0       
      +0       0       0       0       0
  1307 ;;      Temps:          0       0       0       0       0       0       0       0       0       0       0       0       
      +0       0       0       0       0
  1308 ;;      Totals:         3       0       0       0       0       0       0       0       0       0       0       0       
      +0       0       0       0       0
  1309 ;;Total ram usage:        3 bytes
  1310 ;; Hardware stack levels used: 1
  1311 ;; Hardware stack levels required when called: 5
  1312 ;; This function calls:
  1313 ;;		Nothing
  1314 ;; This function is called by:
  1315 ;;		_Interrupt_INTx_Set_Interrupt_Handler
  1316 ;; This function uses a non-reentrant model
  1317 ;;
  1318                           
  1319                           	psect	text6
  1320   0017C4                     __ptext6:
  1321                           	callstack 0
  1322   0017C4                     _INT2_Set_Interrupt_Handler:
  1323                           	callstack 23
  1324   0017C4                     
  1325                           ;MCAL_Layer/Interrupt/mcal_external_interrupt.c: 497: static Std_ReturnType INT2_Set_Int
      +                          errupt_Handler(void (*Interrupt_Handler) (void));MCAL_Layer/Interrupt/mcal_external_inte
      +                          rrupt.c: 498: {;MCAL_Layer/Interrupt/mcal_external_interrupt.c: 499:     Std_ReturnType 
      +                          ret = (Std_ReturnType)0x00u;
  1326   0017C4  0E00               	movlw	0
  1327   0017C6  6E4D               	movwf	INT2_Set_Interrupt_Handler@ret^0,c
  1328   0017C8                     
  1329                           ;MCAL_Layer/Interrupt/mcal_external_interrupt.c: 501:     if (((void*)0) ==Interrupt_Han
      +                          dler)
  1330   0017C8  504B               	movf	INT2_Set_Interrupt_Handler@Interrupt_Handler^0,w,c
  1331   0017CA  104C               	iorwf	(INT2_Set_Interrupt_Handler@Interrupt_Handler+1)^0,w,c
  1332   0017CC  A4D8               	btfss	status,2,c
  1333   0017CE  EFEB  F00B         	goto	u4511
  1334   0017D2  EFED  F00B         	goto	u4510
  1335   0017D6                     u4511:
  1336   0017D6  EFF1  F00B         	goto	l5235
  1337   0017DA                     u4510:
  1338   0017DA                     
  1339                           ;MCAL_Layer/Interrupt/mcal_external_interrupt.c: 502:     {;MCAL_Layer/Interrupt/mcal_ex
      +                          ternal_interrupt.c: 503:         ret = (Std_ReturnType)0x01u;
  1340   0017DA  0E01               	movlw	1
  1341   0017DC  6E4D               	movwf	INT2_Set_Interrupt_Handler@ret^0,c
  1342                           
  1343                           ;MCAL_Layer/Interrupt/mcal_external_interrupt.c: 504:     }
  1344   0017DE  EFF5  F00B         	goto	l5237
  1345   0017E2                     l5235:
  1346                           
  1347                           ;MCAL_Layer/Interrupt/mcal_external_interrupt.c: 506:     {;MCAL_Layer/Interrupt/mcal_ex
      +                          ternal_interrupt.c: 507:         INT2_INTERRUPT_HANDLER = Interrupt_Handler;
  1348   0017E2  C04B  F025         	movff	INT2_Set_Interrupt_Handler@Interrupt_Handler,_INT2_INTERRUPT_HANDLER
  1349   0017E6  C04C  F026         	movff	INT2_Set_Interrupt_Handler@Interrupt_Handler+1,_INT2_INTERRUPT_HANDLER+1
  1350   0017EA                     l5237:
  1351                           
  1352                           ;MCAL_Layer/Interrupt/mcal_external_interrupt.c: 509:     return (ret);
  1353   0017EA  504D               	movf	INT2_Set_Interrupt_Handler@ret^0,w,c
  1354   0017EC  0012               	return		;funcret
  1355   0017EE                     __end_of_INT2_Set_Interrupt_Handler:
  1356                           	callstack 0
  1357                           
  1358 ;; *************** function _INT1_Set_Interrupt_Handler *****************
  1359 ;; Defined at:
  1360 ;;		line 478 in file "MCAL_Layer/Interrupt/mcal_external_interrupt.c"
  1361 ;; Parameters:    Size  Location     Type
  1362 ;;  Interrupt_Ha    2   14[COMRAM] PTR FTN()void 
  1363 ;;		 -> INT0_App_ISR(1), 
  1364 ;; Auto vars:     Size  Location     Type
  1365 ;;  ret             1   16[COMRAM] unsigned char 
  1366 ;; Return value:  Size  Location     Type
  1367 ;;                  1    wreg      unsigned char 
  1368 ;; Registers used:
  1369 ;;		wreg, status,2, status,0
  1370 ;; Tracked objects:
  1371 ;;		On entry : 0/0
  1372 ;;		On exit  : 0/0
  1373 ;;		Unchanged: 0/0
  1374 ;; Data sizes:     COMRAM   BANK0   BANK1   BANK2   BANK3   BANK4   BANK5   BANK6   BANK7   BANK8   BANK9  BANK10  BANK1
      +1  BANK12  BANK13  BANK14  BANK15
  1375 ;;      Params:         2       0       0       0       0       0       0       0       0       0       0       0       
      +0       0       0       0       0
  1376 ;;      Locals:         1       0       0       0       0       0       0       0       0       0       0       0       
      +0       0       0       0       0
  1377 ;;      Temps:          0       0       0       0       0       0       0       0       0       0       0       0       
      +0       0       0       0       0
  1378 ;;      Totals:         3       0       0       0       0       0       0       0       0       0       0       0       
      +0       0       0       0       0
  1379 ;;Total ram usage:        3 bytes
  1380 ;; Hardware stack levels used: 1
  1381 ;; Hardware stack levels required when called: 5
  1382 ;; This function calls:
  1383 ;;		Nothing
  1384 ;; This function is called by:
  1385 ;;		_Interrupt_INTx_Set_Interrupt_Handler
  1386 ;; This function uses a non-reentrant model
  1387 ;;
  1388                           
  1389                           	psect	text7
  1390   0017EE                     __ptext7:
  1391                           	callstack 0
  1392   0017EE                     _INT1_Set_Interrupt_Handler:
  1393                           	callstack 23
  1394   0017EE                     
  1395                           ;MCAL_Layer/Interrupt/mcal_external_interrupt.c: 478: static Std_ReturnType INT1_Set_Int
      +                          errupt_Handler(void (*Interrupt_Handler) (void));MCAL_Layer/Interrupt/mcal_external_inte
      +                          rrupt.c: 479: {;MCAL_Layer/Interrupt/mcal_external_interrupt.c: 480:     Std_ReturnType 
      +                          ret = (Std_ReturnType)0x00u;
  1396   0017EE  0E00               	movlw	0
  1397   0017F0  6E4D               	movwf	INT1_Set_Interrupt_Handler@ret^0,c
  1398   0017F2                     
  1399                           ;MCAL_Layer/Interrupt/mcal_external_interrupt.c: 482:     if (((void*)0) ==Interrupt_Han
      +                          dler)
  1400   0017F2  504B               	movf	INT1_Set_Interrupt_Handler@Interrupt_Handler^0,w,c
  1401   0017F4  104C               	iorwf	(INT1_Set_Interrupt_Handler@Interrupt_Handler+1)^0,w,c
  1402   0017F6  A4D8               	btfss	status,2,c
  1403   0017F8  EF00  F00C         	goto	u4501
  1404   0017FC  EF02  F00C         	goto	u4500
  1405   001800                     u4501:
  1406   001800  EF06  F00C         	goto	l5223
  1407   001804                     u4500:
  1408   001804                     
  1409                           ;MCAL_Layer/Interrupt/mcal_external_interrupt.c: 483:     {;MCAL_Layer/Interrupt/mcal_ex
      +                          ternal_interrupt.c: 484:         ret = (Std_ReturnType)0x01u;
  1410   001804  0E01               	movlw	1
  1411   001806  6E4D               	movwf	INT1_Set_Interrupt_Handler@ret^0,c
  1412                           
  1413                           ;MCAL_Layer/Interrupt/mcal_external_interrupt.c: 485:     }
  1414   001808  EF0A  F00C         	goto	l5225
  1415   00180C                     l5223:
  1416                           
  1417                           ;MCAL_Layer/Interrupt/mcal_external_interrupt.c: 487:     {;MCAL_Layer/Interrupt/mcal_ex
      +                          ternal_interrupt.c: 488:         INT1_INTERRUPT_HANDLER = Interrupt_Handler;
  1418   00180C  C04B  F027         	movff	INT1_Set_Interrupt_Handler@Interrupt_Handler,_INT1_INTERRUPT_HANDLER
  1419   001810  C04C  F028         	movff	INT1_Set_Interrupt_Handler@Interrupt_Handler+1,_INT1_INTERRUPT_HANDLER+1
  1420   001814                     l5225:
  1421                           
  1422                           ;MCAL_Layer/Interrupt/mcal_external_interrupt.c: 490:     return (ret);
  1423   001814  504D               	movf	INT1_Set_Interrupt_Handler@ret^0,w,c
  1424   001816  0012               	return		;funcret
  1425   001818                     __end_of_INT1_Set_Interrupt_Handler:
  1426                           	callstack 0
  1427                           
  1428 ;; *************** function _INT0_Set_Interrupt_Handler *****************
  1429 ;; Defined at:
  1430 ;;		line 459 in file "MCAL_Layer/Interrupt/mcal_external_interrupt.c"
  1431 ;; Parameters:    Size  Location     Type
  1432 ;;  Interrupt_Ha    2   14[COMRAM] PTR FTN()void 
  1433 ;;		 -> INT0_App_ISR(1), 
  1434 ;; Auto vars:     Size  Location     Type
  1435 ;;  ret             1   16[COMRAM] unsigned char 
  1436 ;; Return value:  Size  Location     Type
  1437 ;;                  1    wreg      unsigned char 
  1438 ;; Registers used:
  1439 ;;		wreg, status,2, status,0
  1440 ;; Tracked objects:
  1441 ;;		On entry : 0/0
  1442 ;;		On exit  : 0/0
  1443 ;;		Unchanged: 0/0
  1444 ;; Data sizes:     COMRAM   BANK0   BANK1   BANK2   BANK3   BANK4   BANK5   BANK6   BANK7   BANK8   BANK9  BANK10  BANK1
      +1  BANK12  BANK13  BANK14  BANK15
  1445 ;;      Params:         2       0       0       0       0       0       0       0       0       0       0       0       
      +0       0       0       0       0
  1446 ;;      Locals:         1       0       0       0       0       0       0       0       0       0       0       0       
      +0       0       0       0       0
  1447 ;;      Temps:          0       0       0       0       0       0       0       0       0       0       0       0       
      +0       0       0       0       0
  1448 ;;      Totals:         3       0       0       0       0       0       0       0       0       0       0       0       
      +0       0       0       0       0
  1449 ;;Total ram usage:        3 bytes
  1450 ;; Hardware stack levels used: 1
  1451 ;; Hardware stack levels required when called: 5
  1452 ;; This function calls:
  1453 ;;		Nothing
  1454 ;; This function is called by:
  1455 ;;		_Interrupt_INTx_Set_Interrupt_Handler
  1456 ;; This function uses a non-reentrant model
  1457 ;;
  1458                           
  1459                           	psect	text8
  1460   001818                     __ptext8:
  1461                           	callstack 0
  1462   001818                     _INT0_Set_Interrupt_Handler:
  1463                           	callstack 23
  1464   001818                     
  1465                           ;MCAL_Layer/Interrupt/mcal_external_interrupt.c: 459: static Std_ReturnType INT0_Set_Int
      +                          errupt_Handler(void (*Interrupt_Handler) (void));MCAL_Layer/Interrupt/mcal_external_inte
      +                          rrupt.c: 460: {;MCAL_Layer/Interrupt/mcal_external_interrupt.c: 461:     Std_ReturnType 
      +                          ret = (Std_ReturnType)0x00u;
  1466   001818  0E00               	movlw	0
  1467   00181A  6E4D               	movwf	INT0_Set_Interrupt_Handler@ret^0,c
  1468   00181C                     
  1469                           ;MCAL_Layer/Interrupt/mcal_external_interrupt.c: 463:     if (((void*)0) ==Interrupt_Han
      +                          dler)
  1470   00181C  504B               	movf	INT0_Set_Interrupt_Handler@Interrupt_Handler^0,w,c
  1471   00181E  104C               	iorwf	(INT0_Set_Interrupt_Handler@Interrupt_Handler+1)^0,w,c
  1472   001820  A4D8               	btfss	status,2,c
  1473   001822  EF15  F00C         	goto	u4491
  1474   001826  EF17  F00C         	goto	u4490
  1475   00182A                     u4491:
  1476   00182A  EF1B  F00C         	goto	l5211
  1477   00182E                     u4490:
  1478   00182E                     
  1479                           ;MCAL_Layer/Interrupt/mcal_external_interrupt.c: 464:     {;MCAL_Layer/Interrupt/mcal_ex
      +                          ternal_interrupt.c: 465:         ret = (Std_ReturnType)0x01u;
  1480   00182E  0E01               	movlw	1
  1481   001830  6E4D               	movwf	INT0_Set_Interrupt_Handler@ret^0,c
  1482                           
  1483                           ;MCAL_Layer/Interrupt/mcal_external_interrupt.c: 466:     }
  1484   001832  EF1F  F00C         	goto	l5213
  1485   001836                     l5211:
  1486                           
  1487                           ;MCAL_Layer/Interrupt/mcal_external_interrupt.c: 468:     {;MCAL_Layer/Interrupt/mcal_ex
      +                          ternal_interrupt.c: 469:         INT0_INTERRUPT_HANDLER = Interrupt_Handler;
  1488   001836  C04B  F029         	movff	INT0_Set_Interrupt_Handler@Interrupt_Handler,_INT0_INTERRUPT_HANDLER
  1489   00183A  C04C  F02A         	movff	INT0_Set_Interrupt_Handler@Interrupt_Handler+1,_INT0_INTERRUPT_HANDLER+1
  1490   00183E                     l5213:
  1491                           
  1492                           ;MCAL_Layer/Interrupt/mcal_external_interrupt.c: 471:     return (ret);
  1493   00183E  504D               	movf	INT0_Set_Interrupt_Handler@ret^0,w,c
  1494   001840  0012               	return		;funcret
  1495   001842                     __end_of_INT0_Set_Interrupt_Handler:
  1496                           	callstack 0
  1497                           
  1498 ;; *************** function _Interrupt_INTx_Pin_Init *****************
  1499 ;; Defined at:
  1500 ;;		line 325 in file "MCAL_Layer/Interrupt/mcal_external_interrupt.c"
  1501 ;; Parameters:    Size  Location     Type
  1502 ;;  int_obj         1    4[BANK0 ] PTR const struct .
  1503 ;;		 -> int0_obj(6), 
  1504 ;; Auto vars:     Size  Location     Type
  1505 ;;  ret             1    5[BANK0 ] unsigned char 
  1506 ;; Return value:  Size  Location     Type
  1507 ;;                  1    wreg      unsigned char 
  1508 ;; Registers used:
  1509 ;;		wreg, fsr2l, fsr2h, status,2, status,0, prodl, prodh, cstack
  1510 ;; Tracked objects:
  1511 ;;		On entry : 0/0
  1512 ;;		On exit  : 0/0
  1513 ;;		Unchanged: 0/0
  1514 ;; Data sizes:     COMRAM   BANK0   BANK1   BANK2   BANK3   BANK4   BANK5   BANK6   BANK7   BANK8   BANK9  BANK10  BANK1
      +1  BANK12  BANK13  BANK14  BANK15
  1515 ;;      Params:         0       1       0       0       0       0       0       0       0       0       0       0       
      +0       0       0       0       0
  1516 ;;      Locals:         0       1       0       0       0       0       0       0       0       0       0       0       
      +0       0       0       0       0
  1517 ;;      Temps:          0       0       0       0       0       0       0       0       0       0       0       0       
      +0       0       0       0       0
  1518 ;;      Totals:         0       2       0       0       0       0       0       0       0       0       0       0       
      +0       0       0       0       0
  1519 ;;Total ram usage:        2 bytes
  1520 ;; Hardware stack levels used: 1
  1521 ;; Hardware stack levels required when called: 7
  1522 ;; This function calls:
  1523 ;;		_gpio_pin_initialize
  1524 ;; This function is called by:
  1525 ;;		_Interrupt_INTx_Init
  1526 ;; This function uses a non-reentrant model
  1527 ;;
  1528                           
  1529                           	psect	text9
  1530   001798                     __ptext9:
  1531                           	callstack 0
  1532   001798                     _Interrupt_INTx_Pin_Init:
  1533                           	callstack 22
  1534   001798                     
  1535                           ;MCAL_Layer/Interrupt/mcal_external_interrupt.c: 329:     if (int_obj == ((void*)0))
  1536   001798  0100               	movlb	0	; () banked
  1537   00179A  51CA               	movf	Interrupt_INTx_Pin_Init@int_obj& (0+255),w,b
  1538   00179C  A4D8               	btfss	status,2,c
  1539   00179E  EFD3  F00B         	goto	u4881
  1540   0017A2  EFD5  F00B         	goto	u4880
  1541   0017A6                     u4881:
  1542   0017A6  EFD9  F00B         	goto	l5485
  1543   0017AA                     u4880:
  1544   0017AA                     
  1545                           ; BSR set to: 0
  1546                           ;MCAL_Layer/Interrupt/mcal_external_interrupt.c: 330:     {;MCAL_Layer/Interrupt/mcal_ex
      +                          ternal_interrupt.c: 331:         ret = (Std_ReturnType)0x01u;
  1547   0017AA  0E01               	movlw	1
  1548   0017AC  6FCB               	movwf	Interrupt_INTx_Pin_Init@ret& (0+255),b
  1549                           
  1550                           ;MCAL_Layer/Interrupt/mcal_external_interrupt.c: 332:     }
  1551   0017AE  EFE0  F00B         	goto	l5487
  1552   0017B2                     l5485:
  1553                           
  1554                           ; BSR set to: 0
  1555                           ;MCAL_Layer/Interrupt/mcal_external_interrupt.c: 334:     {;MCAL_Layer/Interrupt/mcal_ex
      +                          ternal_interrupt.c: 335:         ret = gpio_pin_initialize(&(int_obj->mcu_pin));
  1556   0017B2  51CA               	movf	Interrupt_INTx_Pin_Init@int_obj& (0+255),w,b
  1557   0017B4  0F02               	addlw	2
  1558   0017B6  6FC7               	movwf	gpio_pin_initialize@_pin_config_t& (0+255),b
  1559   0017B8  EC72  F00B         	call	_gpio_pin_initialize	;wreg free
  1560   0017BC  0100               	movlb	0	; () banked
  1561   0017BE  6FCB               	movwf	Interrupt_INTx_Pin_Init@ret& (0+255),b
  1562   0017C0                     l5487:
  1563                           
  1564                           ; BSR set to: 0
  1565                           ;MCAL_Layer/Interrupt/mcal_external_interrupt.c: 337:     return (ret);
  1566   0017C0  51CB               	movf	Interrupt_INTx_Pin_Init@ret& (0+255),w,b
  1567   0017C2                     
  1568                           ; BSR set to: 0
  1569   0017C2  0012               	return		;funcret
  1570   0017C4                     __end_of_Interrupt_INTx_Pin_Init:
  1571                           	callstack 0
  1572                           
  1573 ;; *************** function _gpio_pin_initialize *****************
  1574 ;; Defined at:
  1575 ;;		line 17 in file "MCAL_Layer/GPIO/hal_gpio.c"
  1576 ;; Parameters:    Size  Location     Type
  1577 ;;  _pin_config_    1    1[BANK0 ] PTR const struct .
  1578 ;;		 -> int0_obj(6), seg1$segment_pins(4), seg1(5), keypad1$keypad_rows_pins(4), 
  1579 ;;		 -> keypad1(8), dc_motor_2$dc_motor_pins(2), dc_motor_2(2), dc_motor_1$dc_motor_pins(2), 
  1580 ;;		 -> dc_motor_1(2), lcd_2$lcd_data(8), lcd_1$lcd_data(4), lcd_1(6), 
  1581 ;;		 -> lcd_2(10), relay_initialize@pin_obj(1), led_initialize@pin(1), 
  1582 ;; Auto vars:     Size  Location     Type
  1583 ;;  ret             1    3[BANK0 ] unsigned char 
  1584 ;; Return value:  Size  Location     Type
  1585 ;;                  1    wreg      unsigned char 
  1586 ;; Registers used:
  1587 ;;		wreg, fsr2l, fsr2h, status,2, status,0, prodl, prodh, cstack
  1588 ;; Tracked objects:
  1589 ;;		On entry : 0/0
  1590 ;;		On exit  : 0/0
  1591 ;;		Unchanged: 0/0
  1592 ;; Data sizes:     COMRAM   BANK0   BANK1   BANK2   BANK3   BANK4   BANK5   BANK6   BANK7   BANK8   BANK9  BANK10  BANK1
      +1  BANK12  BANK13  BANK14  BANK15
  1593 ;;      Params:         0       1       0       0       0       0       0       0       0       0       0       0       
      +0       0       0       0       0
  1594 ;;      Locals:         0       1       0       0       0       0       0       0       0       0       0       0       
      +0       0       0       0       0
  1595 ;;      Temps:          0       1       0       0       0       0       0       0       0       0       0       0       
      +0       0       0       0       0
  1596 ;;      Totals:         0       3       0       0       0       0       0       0       0       0       0       0       
      +0       0       0       0       0
  1597 ;;Total ram usage:        3 bytes
  1598 ;; Hardware stack levels used: 1
  1599 ;; Hardware stack levels required when called: 6
  1600 ;; This function calls:
  1601 ;;		_gpio_pin_direction_initialize
  1602 ;; This function is called by:
  1603 ;;		_led_initialize
  1604 ;;		_Interrupt_INTx_Pin_Init
  1605 ;;		_lcd_4bit_initialize
  1606 ;;		_lcd_8bit_initialize
  1607 ;;		_dc_motor_initialize
  1608 ;;		_keypad_initialize
  1609 ;;		_relay_initialize
  1610 ;;		_seven_segment_initialize
  1611 ;; This function uses a non-reentrant model
  1612 ;;
  1613                           
  1614                           	psect	text10
  1615   0016E4                     __ptext10:
  1616                           	callstack 0
  1617   0016E4                     _gpio_pin_initialize:
  1618                           	callstack 23
  1619   0016E4                     
  1620                           ;MCAL_Layer/GPIO/hal_gpio.c: 20:     if (((void*)0) == _pin_config_t || _pin_config_t->p
      +                          in > 8 - 1);MCAL_Layer/GPIO/hal_gpio.c: 20:     if (((void*)0) == _pin_config_t || _pin_
      +                          config_t->pin > 8 - 1)
  1621   0016E4  0100               	movlb	0	; () banked
  1622   0016E6  51C7               	movf	gpio_pin_initialize@_pin_config_t& (0+255),w,b
  1623   0016E8  B4D8               	btfsc	status,2,c
  1624   0016EA  EF79  F00B         	goto	u4251
  1625   0016EE  EF7B  F00B         	goto	u4250
  1626   0016F2                     u4251:
  1627   0016F2  EF8B  F00B         	goto	l5029
  1628   0016F6                     u4250:
  1629   0016F6                     
  1630                           ; BSR set to: 0
  1631   0016F6  51C7               	movf	gpio_pin_initialize@_pin_config_t& (0+255),w,b
  1632   0016F8  6ED9               	movwf	fsr2l,c
  1633   0016FA  6ADA               	clrf	fsr2h,c
  1634   0016FC  30DF               	rrcf	223,w,c
  1635   0016FE  32E8               	rrcf	wreg,f,c
  1636   001700  32E8               	rrcf	wreg,f,c
  1637   001702  0B07               	andlw	7
  1638   001704  6FC8               	movwf	??_gpio_pin_initialize& (0+255),b
  1639   001706  0E07               	movlw	7
  1640   001708  65C8               	cpfsgt	??_gpio_pin_initialize& (0+255),b
  1641   00170A  EF89  F00B         	goto	u4261
  1642   00170E  EF8B  F00B         	goto	u4260
  1643   001712                     u4261:
  1644   001712  EF8F  F00B         	goto	l5031
  1645   001716                     u4260:
  1646   001716                     l5029:
  1647                           
  1648                           ; BSR set to: 0
  1649                           ;MCAL_Layer/GPIO/hal_gpio.c: 21:     {;MCAL_Layer/GPIO/hal_gpio.c: 21:     {;MCAL_Layer/
      +                          GPIO/hal_gpio.c: 22:         ret = (Std_ReturnType)0x01u;;MCAL_Layer/GPIO/hal_gpio.c: 22
      +                          :         ret = (Std_ReturnType)0x01u;
  1650   001716  0E01               	movlw	1
  1651   001718  6FC9               	movwf	gpio_pin_initialize@ret& (0+255),b
  1652                           
  1653                           ;MCAL_Layer/GPIO/hal_gpio.c: 23:     };MCAL_Layer/GPIO/hal_gpio.c: 23:     }
  1654   00171A  EF95  F00B         	goto	l5033
  1655   00171E                     l5031:
  1656                           
  1657                           ; BSR set to: 0
  1658                           ;MCAL_Layer/GPIO/hal_gpio.c: 25:     {;MCAL_Layer/GPIO/hal_gpio.c: 25:     {;MCAL_Layer/
      +                          GPIO/hal_gpio.c: 26:         ret = gpio_pin_direction_initialize(_pin_config_t);;MCAL_La
      +                          yer/GPIO/hal_gpio.c: 26:         ret = gpio_pin_direction_initialize(_pin_config_t);
  1659   00171E  C0C7  F04B         	movff	gpio_pin_initialize@_pin_config_t,gpio_pin_direction_initialize@_pin_config_t
  1660   001722  ECA5  F008         	call	_gpio_pin_direction_initialize	;wreg free
  1661   001726  0100               	movlb	0	; () banked
  1662   001728  6FC9               	movwf	gpio_pin_initialize@ret& (0+255),b
  1663   00172A                     l5033:
  1664                           
  1665                           ; BSR set to: 0
  1666                           ;MCAL_Layer/GPIO/hal_gpio.c: 28:     return (ret);;MCAL_Layer/GPIO/hal_gpio.c: 28:     r
      +                          eturn (ret);
  1667   00172A  51C9               	movf	gpio_pin_initialize@ret& (0+255),w,b
  1668   00172C                     
  1669                           ; BSR set to: 0
  1670   00172C  0012               	return		;funcret
  1671   00172E                     __end_of_gpio_pin_initialize:
  1672                           	callstack 0
  1673                           
  1674 ;; *************** function _gpio_pin_direction_initialize *****************
  1675 ;; Defined at:
  1676 ;;		line 38 in file "MCAL_Layer/GPIO/hal_gpio.c"
  1677 ;; Parameters:    Size  Location     Type
  1678 ;;  _pin_config_    1   14[COMRAM] PTR const struct .
  1679 ;;		 -> int0_obj(6), seg6_enable(1), seg5_enable(1), seg4_enable(1), 
  1680 ;;		 -> seg3_enable(1), seg2_enable(1), seg1_enable(1), seg1$segment_pins(4), 
  1681 ;;		 -> seg1(5), keypad1$keypad_cols_pins(4), keypad1$keypad_rows_pins(4), keypad1(8), 
  1682 ;;		 -> dc_motor_2$dc_motor_pins(2), dc_motor_2(2), dc_motor_1$dc_motor_pins(2), dc_motor_1(2), 
  1683 ;;		 -> lcd_2$lcd_data(8), lcd_1$lcd_data(4), lcd_1(6), lcd_2(10), 
  1684 ;;		 -> btn_high(3), btn_low(3), relay_initialize@pin_obj(1), led_initialize@pin(1), 
  1685 ;; Auto vars:     Size  Location     Type
  1686 ;;  ret             1    0[BANK0 ] unsigned char 
  1687 ;; Return value:  Size  Location     Type
  1688 ;;                  1    wreg      unsigned char 
  1689 ;; Registers used:
  1690 ;;		wreg, fsr2l, fsr2h, status,2, status,0, prodl, prodh
  1691 ;; Tracked objects:
  1692 ;;		On entry : 0/0
  1693 ;;		On exit  : 0/0
  1694 ;;		Unchanged: 0/0
  1695 ;; Data sizes:     COMRAM   BANK0   BANK1   BANK2   BANK3   BANK4   BANK5   BANK6   BANK7   BANK8   BANK9  BANK10  BANK1
      +1  BANK12  BANK13  BANK14  BANK15
  1696 ;;      Params:         1       0       0       0       0       0       0       0       0       0       0       0       
      +0       0       0       0       0
  1697 ;;      Locals:         0       1       0       0       0       0       0       0       0       0       0       0       
      +0       0       0       0       0
  1698 ;;      Temps:          5       0       0       0       0       0       0       0       0       0       0       0       
      +0       0       0       0       0
  1699 ;;      Totals:         6       1       0       0       0       0       0       0       0       0       0       0       
      +0       0       0       0       0
  1700 ;;Total ram usage:        7 bytes
  1701 ;; Hardware stack levels used: 1
  1702 ;; Hardware stack levels required when called: 5
  1703 ;; This function calls:
  1704 ;;		Nothing
  1705 ;; This function is called by:
  1706 ;;		_gpio_pin_initialize
  1707 ;;		_button_initialize
  1708 ;;		_keypad_initialize
  1709 ;;		_seven_segment_application_initialize
  1710 ;; This function uses a non-reentrant model
  1711 ;;
  1712                           
  1713                           	psect	text11
  1714   00114A                     __ptext11:
  1715                           	callstack 0
  1716   00114A                     _gpio_pin_direction_initialize:
  1717                           	callstack 23
  1718   00114A                     
  1719                           ;MCAL_Layer/GPIO/hal_gpio.c: 38: Std_ReturnType gpio_pin_direction_initialize(const pin_
      +                          config_t *_pin_config_t);MCAL_Layer/GPIO/hal_gpio.c: 38: Std_ReturnType gpio_pin_directi
      +                          on_initialize(const pin_config_t *_pin_config_t);MCAL_Layer/GPIO/hal_gpio.c: 39: {;MCAL_
      +                          Layer/GPIO/hal_gpio.c: 39: {;MCAL_Layer/GPIO/hal_gpio.c: 40:     Std_ReturnType ret = (S
      +                          td_ReturnType)0x00u;;MCAL_Layer/GPIO/hal_gpio.c: 40:     Std_ReturnType ret = (Std_Retur
      +                          nType)0x00u;
  1720   00114A  0E00               	movlw	0
  1721   00114C  0100               	movlb	0	; () banked
  1722   00114E  6FC6               	movwf	gpio_pin_direction_initialize@ret& (0+255),b
  1723                           
  1724                           ;MCAL_Layer/GPIO/hal_gpio.c: 42:     if (((void*)0) == _pin_config_t || _pin_config_t->p
      +                          in > 8 - 1);MCAL_Layer/GPIO/hal_gpio.c: 42:     if (((void*)0) == _pin_config_t || _pin_
      +                          config_t->pin > 8 - 1)
  1725   001150  504B               	movf	gpio_pin_direction_initialize@_pin_config_t^0,w,c
  1726   001152  B4D8               	btfsc	status,2,c
  1727   001154  EFAE  F008         	goto	u4201
  1728   001158  EFB0  F008         	goto	u4200
  1729   00115C                     u4201:
  1730   00115C  EFC0  F008         	goto	l5009
  1731   001160                     u4200:
  1732   001160                     
  1733                           ; BSR set to: 0
  1734   001160  504B               	movf	gpio_pin_direction_initialize@_pin_config_t^0,w,c
  1735   001162  6ED9               	movwf	fsr2l,c
  1736   001164  6ADA               	clrf	fsr2h,c
  1737   001166  30DF               	rrcf	223,w,c
  1738   001168  32E8               	rrcf	wreg,f,c
  1739   00116A  32E8               	rrcf	wreg,f,c
  1740   00116C  0B07               	andlw	7
  1741   00116E  6E4C               	movwf	??_gpio_pin_direction_initialize^0,c
  1742   001170  0E07               	movlw	7
  1743   001172  644C               	cpfsgt	??_gpio_pin_direction_initialize^0,c
  1744   001174  EFBE  F008         	goto	u4211
  1745   001178  EFC0  F008         	goto	u4210
  1746   00117C                     u4211:
  1747   00117C  EF17  F009         	goto	l5019
  1748   001180                     u4210:
  1749   001180                     l5009:
  1750                           
  1751                           ; BSR set to: 0
  1752                           ;MCAL_Layer/GPIO/hal_gpio.c: 43:     {;MCAL_Layer/GPIO/hal_gpio.c: 43:     {;MCAL_Layer/
      +                          GPIO/hal_gpio.c: 44:         ret = (Std_ReturnType)0x01u;;MCAL_Layer/GPIO/hal_gpio.c: 44
      +                          :         ret = (Std_ReturnType)0x01u;
  1753   001180  0E01               	movlw	1
  1754   001182  6FC6               	movwf	gpio_pin_direction_initialize@ret& (0+255),b
  1755                           
  1756                           ;MCAL_Layer/GPIO/hal_gpio.c: 45:     };MCAL_Layer/GPIO/hal_gpio.c: 45:     }
  1757   001184  EF2D  F009         	goto	l5021
  1758   001188                     l5011:
  1759                           
  1760                           ; BSR set to: 0
  1761                           ;MCAL_Layer/GPIO/hal_gpio.c: 51:                 (*tris_registers[_pin_config_t->port] |
      +                          = ((uint8)1 << _pin_config_t->pin));;MCAL_Layer/GPIO/hal_gpio.c: 51:                 (*t
      +                          ris_registers[_pin_config_t->port] |= ((uint8)1 << _pin_config_t->pin));
  1762   001188  504B               	movf	gpio_pin_direction_initialize@_pin_config_t^0,w,c
  1763   00118A  6ED9               	movwf	fsr2l,c
  1764   00118C  6ADA               	clrf	fsr2h,c
  1765   00118E  30DF               	rrcf	223,w,c
  1766   001190  32E8               	rrcf	wreg,f,c
  1767   001192  32E8               	rrcf	wreg,f,c
  1768   001194  0B07               	andlw	7
  1769   001196  6E4C               	movwf	??_gpio_pin_direction_initialize^0,c
  1770   001198  0E01               	movlw	1
  1771   00119A  6E4D               	movwf	(??_gpio_pin_direction_initialize+1)^0,c
  1772   00119C  2A4C               	incf	??_gpio_pin_direction_initialize^0,f,c
  1773   00119E  EFD3  F008         	goto	u4224
  1774   0011A2                     u4225:
  1775   0011A2  90D8               	bcf	status,0,c
  1776   0011A4  364D               	rlcf	(??_gpio_pin_direction_initialize+1)^0,f,c
  1777   0011A6                     u4224:
  1778   0011A6  2E4C               	decfsz	??_gpio_pin_direction_initialize^0,f,c
  1779   0011A8  EFD1  F008         	goto	u4225
  1780   0011AC  504B               	movf	gpio_pin_direction_initialize@_pin_config_t^0,w,c
  1781   0011AE  6ED9               	movwf	fsr2l,c
  1782   0011B0  6ADA               	clrf	fsr2h,c
  1783   0011B2  50DF               	movf	223,w,c
  1784   0011B4  0B07               	andlw	7
  1785   0011B6  0D02               	mullw	2
  1786   0011B8  50F3               	movf	243,w,c
  1787   0011BA  0F6A               	addlw	low _tris_registers
  1788   0011BC  6ED9               	movwf	fsr2l,c
  1789   0011BE  6ADA               	clrf	fsr2h,c
  1790   0011C0  CFDE F04E          	movff	postinc2,??_gpio_pin_direction_initialize+2
  1791   0011C4  CFDD F04F          	movff	postdec2,??_gpio_pin_direction_initialize+3
  1792   0011C8  C04E  FFD9         	movff	??_gpio_pin_direction_initialize+2,fsr2l
  1793   0011CC  C04F  FFDA         	movff	??_gpio_pin_direction_initialize+3,fsr2h
  1794   0011D0  504D               	movf	(??_gpio_pin_direction_initialize+1)^0,w,c
  1795   0011D2  12DF               	iorwf	indf2,f,c
  1796                           
  1797                           ;MCAL_Layer/GPIO/hal_gpio.c: 52:                 break;;MCAL_Layer/GPIO/hal_gpio.c: 52: 
      +                                          break;
  1798   0011D4  EF2D  F009         	goto	l5021
  1799   0011D8                     l5013:
  1800                           
  1801                           ; BSR set to: 0
  1802                           ;MCAL_Layer/GPIO/hal_gpio.c: 54:                 (*tris_registers[_pin_config_t->port] &
      +                          = ~((uint8)1 << _pin_config_t->pin));;MCAL_Layer/GPIO/hal_gpio.c: 54:                 (*
      +                          tris_registers[_pin_config_t->port] &= ~((uint8)1 << _pin_config_t->pin));
  1803   0011D8  504B               	movf	gpio_pin_direction_initialize@_pin_config_t^0,w,c
  1804   0011DA  6ED9               	movwf	fsr2l,c
  1805   0011DC  6ADA               	clrf	fsr2h,c
  1806   0011DE  30DF               	rrcf	223,w,c
  1807   0011E0  32E8               	rrcf	wreg,f,c
  1808   0011E2  32E8               	rrcf	wreg,f,c
  1809   0011E4  0B07               	andlw	7
  1810   0011E6  6E4C               	movwf	??_gpio_pin_direction_initialize^0,c
  1811   0011E8  0E01               	movlw	1
  1812   0011EA  6E4D               	movwf	(??_gpio_pin_direction_initialize+1)^0,c
  1813   0011EC  2A4C               	incf	??_gpio_pin_direction_initialize^0,f,c
  1814   0011EE  EFFB  F008         	goto	u4234
  1815   0011F2                     u4235:
  1816   0011F2  90D8               	bcf	status,0,c
  1817   0011F4  364D               	rlcf	(??_gpio_pin_direction_initialize+1)^0,f,c
  1818   0011F6                     u4234:
  1819   0011F6  2E4C               	decfsz	??_gpio_pin_direction_initialize^0,f,c
  1820   0011F8  EFF9  F008         	goto	u4235
  1821   0011FC  504D               	movf	(??_gpio_pin_direction_initialize+1)^0,w,c
  1822   0011FE  0AFF               	xorlw	255
  1823   001200  6E4E               	movwf	(??_gpio_pin_direction_initialize+2)^0,c
  1824   001202  504B               	movf	gpio_pin_direction_initialize@_pin_config_t^0,w,c
  1825   001204  6ED9               	movwf	fsr2l,c
  1826   001206  6ADA               	clrf	fsr2h,c
  1827   001208  50DF               	movf	223,w,c
  1828   00120A  0B07               	andlw	7
  1829   00120C  0D02               	mullw	2
  1830   00120E  50F3               	movf	243,w,c
  1831   001210  0F6A               	addlw	low _tris_registers
  1832   001212  6ED9               	movwf	fsr2l,c
  1833   001214  6ADA               	clrf	fsr2h,c
  1834   001216  CFDE F04F          	movff	postinc2,??_gpio_pin_direction_initialize+3
  1835   00121A  CFDD F050          	movff	postdec2,??_gpio_pin_direction_initialize+4
  1836   00121E  C04F  FFD9         	movff	??_gpio_pin_direction_initialize+3,fsr2l
  1837   001222  C050  FFDA         	movff	??_gpio_pin_direction_initialize+4,fsr2h
  1838   001226  504E               	movf	(??_gpio_pin_direction_initialize+2)^0,w,c
  1839   001228  16DF               	andwf	indf2,f,c
  1840                           
  1841                           ;MCAL_Layer/GPIO/hal_gpio.c: 55:                 break;;MCAL_Layer/GPIO/hal_gpio.c: 55: 
      +                                          break;
  1842   00122A  EF2D  F009         	goto	l5021
  1843   00122E                     l5019:
  1844                           
  1845                           ; BSR set to: 0
  1846   00122E  504B               	movf	gpio_pin_direction_initialize@_pin_config_t^0,w,c
  1847   001230  6ED9               	movwf	fsr2l,c
  1848   001232  6ADA               	clrf	fsr2h,c
  1849   001234  BCDF               	btfsc	indf2,6,c
  1850   001236  EF1F  F009         	goto	u4241
  1851   00123A  EF22  F009         	goto	u4240
  1852   00123E                     u4241:
  1853   00123E  0E01               	movlw	1
  1854   001240  EF23  F009         	goto	u4246
  1855   001244                     u4240:
  1856   001244  0E00               	movlw	0
  1857   001246                     u4246:
  1858                           
  1859                           ; Switch size 1, requested type "simple"
  1860                           ; Number of cases is 2, Range of values is 0 to 1
  1861                           ; switch strategies available:
  1862                           ; Name         Instructions Cycles
  1863                           ; simple_byte            7     4 (average)
  1864                           ;	Chosen strategy is simple_byte
  1865   001246  0A00               	xorlw	0	; case 0
  1866   001248  B4D8               	btfsc	status,2,c
  1867   00124A  EFEC  F008         	goto	l5013
  1868   00124E  0A01               	xorlw	1	; case 1
  1869   001250  B4D8               	btfsc	status,2,c
  1870   001252  EFC4  F008         	goto	l5011
  1871   001256  EFC0  F008         	goto	l5009
  1872   00125A                     l5021:
  1873                           
  1874                           ;MCAL_Layer/GPIO/hal_gpio.c: 61:     return (ret);;MCAL_Layer/GPIO/hal_gpio.c: 61:     r
      +                          eturn (ret);
  1875   00125A  0100               	movlb	0	; () banked
  1876   00125C  51C6               	movf	gpio_pin_direction_initialize@ret& (0+255),w,b
  1877   00125E                     
  1878                           ; BSR set to: 0
  1879   00125E  0012               	return		;funcret
  1880   001260                     __end_of_gpio_pin_direction_initialize:
  1881                           	callstack 0
  1882                           
  1883 ;; *************** function _Interrupt_INTx_Enable *****************
  1884 ;; Defined at:
  1885 ;;		line 130 in file "MCAL_Layer/Interrupt/mcal_external_interrupt.c"
  1886 ;; Parameters:    Size  Location     Type
  1887 ;;  int_obj         1   14[COMRAM] PTR const struct .
  1888 ;;		 -> int0_obj(6), 
  1889 ;; Auto vars:     Size  Location     Type
  1890 ;;  ret             1    0        unsigned char 
  1891 ;; Return value:  Size  Location     Type
  1892 ;;                  1    wreg      unsigned char 
  1893 ;; Registers used:
  1894 ;;		wreg, fsr2l, fsr2h, status,2, status,0
  1895 ;; Tracked objects:
  1896 ;;		On entry : 0/0
  1897 ;;		On exit  : 0/0
  1898 ;;		Unchanged: 0/0
  1899 ;; Data sizes:     COMRAM   BANK0   BANK1   BANK2   BANK3   BANK4   BANK5   BANK6   BANK7   BANK8   BANK9  BANK10  BANK1
      +1  BANK12  BANK13  BANK14  BANK15
  1900 ;;      Params:         1       0       0       0       0       0       0       0       0       0       0       0       
      +0       0       0       0       0
  1901 ;;      Locals:         0       0       0       0       0       0       0       0       0       0       0       0       
      +0       0       0       0       0
  1902 ;;      Temps:          2       0       0       0       0       0       0       0       0       0       0       0       
      +0       0       0       0       0
  1903 ;;      Totals:         3       0       0       0       0       0       0       0       0       0       0       0       
      +0       0       0       0       0
  1904 ;;Total ram usage:        3 bytes
  1905 ;; Hardware stack levels used: 1
  1906 ;; Hardware stack levels required when called: 5
  1907 ;; This function calls:
  1908 ;;		Nothing
  1909 ;; This function is called by:
  1910 ;;		_Interrupt_INTx_Init
  1911 ;; This function uses a non-reentrant model
  1912 ;;
  1913                           
  1914                           	psect	text12
  1915   001400                     __ptext12:
  1916                           	callstack 0
  1917   001400                     _Interrupt_INTx_Enable:
  1918                           	callstack 24
  1919   001400                     
  1920                           ;MCAL_Layer/Interrupt/mcal_external_interrupt.c: 134:     if (int_obj == ((void*)0))
  1921   001400  504B               	movf	Interrupt_INTx_Enable@int_obj^0,w,c
  1922   001402  A4D8               	btfss	status,2,c
  1923   001404  EF06  F00A         	goto	u4901
  1924   001408  EF08  F00A         	goto	u4900
  1925   00140C                     u4901:
  1926   00140C  EF19  F00A         	goto	l5523
  1927   001410                     u4900:
  1928   001410                     l5517:
  1929                           
  1930                           ;MCAL_Layer/Interrupt/mcal_external_interrupt.c: 137:     }
  1931   001410  EF37  F00A         	goto	l590
  1932   001414                     l585:
  1933                           
  1934                           ;MCAL_Layer/Interrupt/mcal_external_interrupt.c: 143:                 (INTCONbits.GIE = 
      +                          1);
  1935   001414  8EF2               	bsf	242,7,c	;volatile
  1936                           
  1937                           ;MCAL_Layer/Interrupt/mcal_external_interrupt.c: 144:                 (INTCONbits.PEIE =
      +                           1);
  1938   001416  8CF2               	bsf	242,6,c	;volatile
  1939                           
  1940                           ;MCAL_Layer/Interrupt/mcal_external_interrupt.c: 145:                 (INTCONbits.INT0IE
      +                           = 1);
  1941   001418  88F2               	bsf	242,4,c	;volatile
  1942                           
  1943                           ;MCAL_Layer/Interrupt/mcal_external_interrupt.c: 146:                 break;
  1944   00141A  EF37  F00A         	goto	l590
  1945   00141E                     l587:
  1946                           
  1947                           ;MCAL_Layer/Interrupt/mcal_external_interrupt.c: 148:                 (INTCONbits.GIE = 
      +                          1);
  1948   00141E  8EF2               	bsf	242,7,c	;volatile
  1949                           
  1950                           ;MCAL_Layer/Interrupt/mcal_external_interrupt.c: 149:                 (INTCONbits.PEIE =
      +                           1);
  1951   001420  8CF2               	bsf	242,6,c	;volatile
  1952                           
  1953                           ;MCAL_Layer/Interrupt/mcal_external_interrupt.c: 150:                 (INTCON3bits.INT1I
      +                          E = 1);
  1954   001422  86F0               	bsf	240,3,c	;volatile
  1955                           
  1956                           ;MCAL_Layer/Interrupt/mcal_external_interrupt.c: 151:                 break;
  1957   001424  EF37  F00A         	goto	l590
  1958   001428                     l588:
  1959                           
  1960                           ;MCAL_Layer/Interrupt/mcal_external_interrupt.c: 153:                 (INTCONbits.GIE = 
      +                          1);
  1961   001428  8EF2               	bsf	242,7,c	;volatile
  1962                           
  1963                           ;MCAL_Layer/Interrupt/mcal_external_interrupt.c: 154:                 (INTCONbits.PEIE =
      +                           1);
  1964   00142A  8CF2               	bsf	242,6,c	;volatile
  1965                           
  1966                           ;MCAL_Layer/Interrupt/mcal_external_interrupt.c: 155:                 (INTCON3bits.INT2I
      +                          E = 1);
  1967   00142C  88F0               	bsf	240,4,c	;volatile
  1968                           
  1969                           ;MCAL_Layer/Interrupt/mcal_external_interrupt.c: 156:                 break;
  1970   00142E  EF37  F00A         	goto	l590
  1971   001432                     l5523:
  1972   001432  504B               	movf	Interrupt_INTx_Enable@int_obj^0,w,c
  1973   001434  6ED9               	movwf	fsr2l,c
  1974   001436  6ADA               	clrf	fsr2h,c
  1975   001438  0E04               	movlw	4
  1976   00143A  26D9               	addwf	fsr2l,f,c
  1977   00143C  50DF               	movf	indf2,w,c
  1978   00143E  6E4C               	movwf	??_Interrupt_INTx_Enable^0,c
  1979   001440  6A4D               	clrf	(??_Interrupt_INTx_Enable+1)^0,c
  1980                           
  1981                           ; Switch on 2 bytes has been partitioned into a top level switch of size 1, and 1 sub-sw
      +                          itches
  1982                           ; Switch size 1, requested type "simple"
  1983                           ; Number of cases is 1, Range of values is 0 to 0
  1984                           ; switch strategies available:
  1985                           ; Name         Instructions Cycles
  1986                           ; simple_byte            4     3 (average)
  1987                           ;	Chosen strategy is simple_byte
  1988   001442  504D               	movf	(??_Interrupt_INTx_Enable+1)^0,w,c
  1989   001444  0A00               	xorlw	0	; case 0
  1990   001446  B4D8               	btfsc	status,2,c
  1991   001448  EF28  F00A         	goto	l6471
  1992   00144C  EF08  F00A         	goto	l5517
  1993   001450                     l6471:
  1994                           
  1995                           ; Switch size 1, requested type "simple"
  1996                           ; Number of cases is 3, Range of values is 0 to 2
  1997                           ; switch strategies available:
  1998                           ; Name         Instructions Cycles
  1999                           ; simple_byte           10     6 (average)
  2000                           ;	Chosen strategy is simple_byte
  2001   001450  504C               	movf	??_Interrupt_INTx_Enable^0,w,c
  2002   001452  0A00               	xorlw	0	; case 0
  2003   001454  B4D8               	btfsc	status,2,c
  2004   001456  EF0A  F00A         	goto	l585
  2005   00145A  0A01               	xorlw	1	; case 1
  2006   00145C  B4D8               	btfsc	status,2,c
  2007   00145E  EF0F  F00A         	goto	l587
  2008   001462  0A03               	xorlw	3	; case 2
  2009   001464  B4D8               	btfsc	status,2,c
  2010   001466  EF14  F00A         	goto	l588
  2011   00146A  EF08  F00A         	goto	l5517
  2012   00146E                     l590:
  2013   00146E  0012               	return		;funcret
  2014   001470                     __end_of_Interrupt_INTx_Enable:
  2015                           	callstack 0
  2016                           
  2017 ;; *************** function _Interrupt_INTx_Edge_Init *****************
  2018 ;; Defined at:
  2019 ;;		line 259 in file "MCAL_Layer/Interrupt/mcal_external_interrupt.c"
  2020 ;; Parameters:    Size  Location     Type
  2021 ;;  int_obj         1   14[COMRAM] PTR const struct .
  2022 ;;		 -> int0_obj(6), 
  2023 ;; Auto vars:     Size  Location     Type
  2024 ;;  ret             1   17[COMRAM] unsigned char 
  2025 ;; Return value:  Size  Location     Type
  2026 ;;                  1    wreg      unsigned char 
  2027 ;; Registers used:
  2028 ;;		wreg, fsr2l, fsr2h, status,2, status,0
  2029 ;; Tracked objects:
  2030 ;;		On entry : 0/0
  2031 ;;		On exit  : 0/0
  2032 ;;		Unchanged: 0/0
  2033 ;; Data sizes:     COMRAM   BANK0   BANK1   BANK2   BANK3   BANK4   BANK5   BANK6   BANK7   BANK8   BANK9  BANK10  BANK1
      +1  BANK12  BANK13  BANK14  BANK15
  2034 ;;      Params:         1       0       0       0       0       0       0       0       0       0       0       0       
      +0       0       0       0       0
  2035 ;;      Locals:         1       0       0       0       0       0       0       0       0       0       0       0       
      +0       0       0       0       0
  2036 ;;      Temps:          2       0       0       0       0       0       0       0       0       0       0       0       
      +0       0       0       0       0
  2037 ;;      Totals:         4       0       0       0       0       0       0       0       0       0       0       0       
      +0       0       0       0       0
  2038 ;;Total ram usage:        4 bytes
  2039 ;; Hardware stack levels used: 1
  2040 ;; Hardware stack levels required when called: 5
  2041 ;; This function calls:
  2042 ;;		Nothing
  2043 ;; This function is called by:
  2044 ;;		_Interrupt_INTx_Init
  2045 ;; This function uses a non-reentrant model
  2046 ;;
  2047                           
  2048                           	psect	text13
  2049   00102E                     __ptext13:
  2050                           	callstack 0
  2051   00102E                     _Interrupt_INTx_Edge_Init:
  2052                           	callstack 24
  2053   00102E                     
  2054                           ;MCAL_Layer/Interrupt/mcal_external_interrupt.c: 259: static Std_ReturnType Interrupt_IN
      +                          Tx_Edge_Init(const interrupt_INTx_t *int_obj);MCAL_Layer/Interrupt/mcal_external_interru
      +                          pt.c: 260: {;MCAL_Layer/Interrupt/mcal_external_interrupt.c: 261:     Std_ReturnType ret
      +                           = (Std_ReturnType)0x00u;
  2055   00102E  0E00               	movlw	0
  2056   001030  6E4E               	movwf	Interrupt_INTx_Edge_Init@ret^0,c
  2057                           
  2058                           ;MCAL_Layer/Interrupt/mcal_external_interrupt.c: 263:     if (int_obj == ((void*)0))
  2059   001032  504B               	movf	Interrupt_INTx_Edge_Init@int_obj^0,w,c
  2060   001034  A4D8               	btfss	status,2,c
  2061   001036  EF1F  F008         	goto	u4811
  2062   00103A  EF21  F008         	goto	u4810
  2063   00103E                     u4811:
  2064   00103E  EF85  F008         	goto	l5471
  2065   001042                     u4810:
  2066   001042                     l5435:
  2067                           
  2068                           ;MCAL_Layer/Interrupt/mcal_external_interrupt.c: 264:     {;MCAL_Layer/Interrupt/mcal_ex
      +                          ternal_interrupt.c: 265:         ret = (Std_ReturnType)0x01u;
  2069   001042  0E01               	movlw	1
  2070   001044  6E4E               	movwf	Interrupt_INTx_Edge_Init@ret^0,c
  2071                           
  2072                           ;MCAL_Layer/Interrupt/mcal_external_interrupt.c: 266:     }
  2073   001046  EFA3  F008         	goto	l5473
  2074   00104A                     l5437:
  2075                           
  2076                           ;MCAL_Layer/Interrupt/mcal_external_interrupt.c: 272:                 if (INTERRUPT_RISI
      +                          NG_EDGE == int_obj->edge)
  2077   00104A  504B               	movf	Interrupt_INTx_Edge_Init@int_obj^0,w,c
  2078   00104C  6ED9               	movwf	fsr2l,c
  2079   00104E  6ADA               	clrf	fsr2h,c
  2080   001050  0E03               	movlw	3
  2081   001052  26D9               	addwf	fsr2l,f,c
  2082   001054  04DE               	decf	postinc2,w,c
  2083   001056  A4D8               	btfss	status,2,c
  2084   001058  EF30  F008         	goto	u4821
  2085   00105C  EF32  F008         	goto	u4820
  2086   001060                     u4821:
  2087   001060  EF35  F008         	goto	l5441
  2088   001064                     u4820:
  2089   001064                     
  2090                           ;MCAL_Layer/Interrupt/mcal_external_interrupt.c: 273:                 {;MCAL_Layer/Inter
      +                          rupt/mcal_external_interrupt.c: 274:                     (INTCON2bits.INTEDG0 = 1);
  2091   001064  8CF1               	bsf	241,6,c	;volatile
  2092                           
  2093                           ;MCAL_Layer/Interrupt/mcal_external_interrupt.c: 275:                 }
  2094   001066  EFA3  F008         	goto	l5473
  2095   00106A                     l5441:
  2096   00106A  504B               	movf	Interrupt_INTx_Edge_Init@int_obj^0,w,c
  2097   00106C  6ED9               	movwf	fsr2l,c
  2098   00106E  6ADA               	clrf	fsr2h,c
  2099   001070  0E03               	movlw	3
  2100   001072  26D9               	addwf	fsr2l,f,c
  2101   001074  50DF               	movf	indf2,w,c
  2102   001076  A4D8               	btfss	status,2,c
  2103   001078  EF40  F008         	goto	u4831
  2104   00107C  EF42  F008         	goto	u4830
  2105   001080                     u4831:
  2106   001080  EF21  F008         	goto	l5435
  2107   001084                     u4830:
  2108   001084                     
  2109                           ;MCAL_Layer/Interrupt/mcal_external_interrupt.c: 277:                 {;MCAL_Layer/Inter
      +                          rupt/mcal_external_interrupt.c: 278:                     (INTCON2bits.INTEDG0 = 0);
  2110   001084  9CF1               	bcf	241,6,c	;volatile
  2111                           
  2112                           ;MCAL_Layer/Interrupt/mcal_external_interrupt.c: 279:                 }
  2113   001086  EFA3  F008         	goto	l5473
  2114   00108A                     l5447:
  2115                           
  2116                           ;MCAL_Layer/Interrupt/mcal_external_interrupt.c: 286:                 if (INTERRUPT_RISI
      +                          NG_EDGE == int_obj->edge)
  2117   00108A  504B               	movf	Interrupt_INTx_Edge_Init@int_obj^0,w,c
  2118   00108C  6ED9               	movwf	fsr2l,c
  2119   00108E  6ADA               	clrf	fsr2h,c
  2120   001090  0E03               	movlw	3
  2121   001092  26D9               	addwf	fsr2l,f,c
  2122   001094  04DE               	decf	postinc2,w,c
  2123   001096  A4D8               	btfss	status,2,c
  2124   001098  EF50  F008         	goto	u4841
  2125   00109C  EF52  F008         	goto	u4840
  2126   0010A0                     u4841:
  2127   0010A0  EF55  F008         	goto	l5451
  2128   0010A4                     u4840:
  2129   0010A4                     
  2130                           ;MCAL_Layer/Interrupt/mcal_external_interrupt.c: 287:                 {;MCAL_Layer/Inter
      +                          rupt/mcal_external_interrupt.c: 288:                     (INTCON2bits.INTEDG1 = 1);
  2131   0010A4  8AF1               	bsf	241,5,c	;volatile
  2132                           
  2133                           ;MCAL_Layer/Interrupt/mcal_external_interrupt.c: 289:                 }
  2134   0010A6  EFA3  F008         	goto	l5473
  2135   0010AA                     l5451:
  2136   0010AA  504B               	movf	Interrupt_INTx_Edge_Init@int_obj^0,w,c
  2137   0010AC  6ED9               	movwf	fsr2l,c
  2138   0010AE  6ADA               	clrf	fsr2h,c
  2139   0010B0  0E03               	movlw	3
  2140   0010B2  26D9               	addwf	fsr2l,f,c
  2141   0010B4  50DF               	movf	indf2,w,c
  2142   0010B6  A4D8               	btfss	status,2,c
  2143   0010B8  EF60  F008         	goto	u4851
  2144   0010BC  EF62  F008         	goto	u4850
  2145   0010C0                     u4851:
  2146   0010C0  EF21  F008         	goto	l5435
  2147   0010C4                     u4850:
  2148   0010C4                     
  2149                           ;MCAL_Layer/Interrupt/mcal_external_interrupt.c: 291:                 {;MCAL_Layer/Inter
      +                          rupt/mcal_external_interrupt.c: 292:                     (INTCON2bits.INTEDG1 = 0);
  2150   0010C4  9AF1               	bcf	241,5,c	;volatile
  2151                           
  2152                           ;MCAL_Layer/Interrupt/mcal_external_interrupt.c: 293:                 }
  2153   0010C6  EFA3  F008         	goto	l5473
  2154   0010CA                     l5457:
  2155                           
  2156                           ;MCAL_Layer/Interrupt/mcal_external_interrupt.c: 300:                 if (INTERRUPT_RISI
      +                          NG_EDGE == int_obj->edge)
  2157   0010CA  504B               	movf	Interrupt_INTx_Edge_Init@int_obj^0,w,c
  2158   0010CC  6ED9               	movwf	fsr2l,c
  2159   0010CE  6ADA               	clrf	fsr2h,c
  2160   0010D0  0E03               	movlw	3
  2161   0010D2  26D9               	addwf	fsr2l,f,c
  2162   0010D4  04DE               	decf	postinc2,w,c
  2163   0010D6  A4D8               	btfss	status,2,c
  2164   0010D8  EF70  F008         	goto	u4861
  2165   0010DC  EF72  F008         	goto	u4860
  2166   0010E0                     u4861:
  2167   0010E0  EF75  F008         	goto	l5461
  2168   0010E4                     u4860:
  2169   0010E4                     
  2170                           ;MCAL_Layer/Interrupt/mcal_external_interrupt.c: 301:                 {;MCAL_Layer/Inter
      +                          rupt/mcal_external_interrupt.c: 302:                     (INTCON2bits.INTEDG1 = 1);
  2171   0010E4  8AF1               	bsf	241,5,c	;volatile
  2172                           
  2173                           ;MCAL_Layer/Interrupt/mcal_external_interrupt.c: 303:                 }
  2174   0010E6  EFA3  F008         	goto	l5473
  2175   0010EA                     l5461:
  2176   0010EA  504B               	movf	Interrupt_INTx_Edge_Init@int_obj^0,w,c
  2177   0010EC  6ED9               	movwf	fsr2l,c
  2178   0010EE  6ADA               	clrf	fsr2h,c
  2179   0010F0  0E03               	movlw	3
  2180   0010F2  26D9               	addwf	fsr2l,f,c
  2181   0010F4  50DF               	movf	indf2,w,c
  2182   0010F6  A4D8               	btfss	status,2,c
  2183   0010F8  EF80  F008         	goto	u4871
  2184   0010FC  EF82  F008         	goto	u4870
  2185   001100                     u4871:
  2186   001100  EF21  F008         	goto	l5435
  2187   001104                     u4870:
  2188   001104                     
  2189                           ;MCAL_Layer/Interrupt/mcal_external_interrupt.c: 305:                 {;MCAL_Layer/Inter
      +                          rupt/mcal_external_interrupt.c: 306:                     (INTCON2bits.INTEDG1 = 0);
  2190   001104  9AF1               	bcf	241,5,c	;volatile
  2191                           
  2192                           ;MCAL_Layer/Interrupt/mcal_external_interrupt.c: 307:                 }
  2193   001106  EFA3  F008         	goto	l5473
  2194   00110A                     l5471:
  2195   00110A  504B               	movf	Interrupt_INTx_Edge_Init@int_obj^0,w,c
  2196   00110C  6ED9               	movwf	fsr2l,c
  2197   00110E  6ADA               	clrf	fsr2h,c
  2198   001110  0E04               	movlw	4
  2199   001112  26D9               	addwf	fsr2l,f,c
  2200   001114  50DF               	movf	indf2,w,c
  2201   001116  6E4C               	movwf	??_Interrupt_INTx_Edge_Init^0,c
  2202   001118  6A4D               	clrf	(??_Interrupt_INTx_Edge_Init+1)^0,c
  2203                           
  2204                           ; Switch on 2 bytes has been partitioned into a top level switch of size 1, and 1 sub-sw
      +                          itches
  2205                           ; Switch size 1, requested type "simple"
  2206                           ; Number of cases is 1, Range of values is 0 to 0
  2207                           ; switch strategies available:
  2208                           ; Name         Instructions Cycles
  2209                           ; simple_byte            4     3 (average)
  2210                           ;	Chosen strategy is simple_byte
  2211   00111A  504D               	movf	(??_Interrupt_INTx_Edge_Init+1)^0,w,c
  2212   00111C  0A00               	xorlw	0	; case 0
  2213   00111E  B4D8               	btfsc	status,2,c
  2214   001120  EF94  F008         	goto	l6473
  2215   001124  EF21  F008         	goto	l5435
  2216   001128                     l6473:
  2217                           
  2218                           ; Switch size 1, requested type "simple"
  2219                           ; Number of cases is 3, Range of values is 0 to 2
  2220                           ; switch strategies available:
  2221                           ; Name         Instructions Cycles
  2222                           ; simple_byte           10     6 (average)
  2223                           ;	Chosen strategy is simple_byte
  2224   001128  504C               	movf	??_Interrupt_INTx_Edge_Init^0,w,c
  2225   00112A  0A00               	xorlw	0	; case 0
  2226   00112C  B4D8               	btfsc	status,2,c
  2227   00112E  EF25  F008         	goto	l5437
  2228   001132  0A01               	xorlw	1	; case 1
  2229   001134  B4D8               	btfsc	status,2,c
  2230   001136  EF45  F008         	goto	l5447
  2231   00113A  0A03               	xorlw	3	; case 2
  2232   00113C  B4D8               	btfsc	status,2,c
  2233   00113E  EF65  F008         	goto	l5457
  2234   001142  EF21  F008         	goto	l5435
  2235   001146                     l5473:
  2236                           
  2237                           ;MCAL_Layer/Interrupt/mcal_external_interrupt.c: 318:     return (ret);
  2238   001146  504E               	movf	Interrupt_INTx_Edge_Init@ret^0,w,c
  2239   001148  0012               	return		;funcret
  2240   00114A                     __end_of_Interrupt_INTx_Edge_Init:
  2241                           	callstack 0
  2242                           
  2243 ;; *************** function _Interrupt_INTx_Disable *****************
  2244 ;; Defined at:
  2245 ;;		line 169 in file "MCAL_Layer/Interrupt/mcal_external_interrupt.c"
  2246 ;; Parameters:    Size  Location     Type
  2247 ;;  int_obj         1   14[COMRAM] PTR const struct .
  2248 ;;		 -> int0_obj(6), 
  2249 ;; Auto vars:     Size  Location     Type
  2250 ;;  ret             1   17[COMRAM] unsigned char 
  2251 ;; Return value:  Size  Location     Type
  2252 ;;                  1    wreg      unsigned char 
  2253 ;; Registers used:
  2254 ;;		wreg, fsr2l, fsr2h, status,2, status,0
  2255 ;; Tracked objects:
  2256 ;;		On entry : 0/0
  2257 ;;		On exit  : 0/0
  2258 ;;		Unchanged: 0/0
  2259 ;; Data sizes:     COMRAM   BANK0   BANK1   BANK2   BANK3   BANK4   BANK5   BANK6   BANK7   BANK8   BANK9  BANK10  BANK1
      +1  BANK12  BANK13  BANK14  BANK15
  2260 ;;      Params:         1       0       0       0       0       0       0       0       0       0       0       0       
      +0       0       0       0       0
  2261 ;;      Locals:         1       0       0       0       0       0       0       0       0       0       0       0       
      +0       0       0       0       0
  2262 ;;      Temps:          2       0       0       0       0       0       0       0       0       0       0       0       
      +0       0       0       0       0
  2263 ;;      Totals:         4       0       0       0       0       0       0       0       0       0       0       0       
      +0       0       0       0       0
  2264 ;;Total ram usage:        4 bytes
  2265 ;; Hardware stack levels used: 1
  2266 ;; Hardware stack levels required when called: 5
  2267 ;; This function calls:
  2268 ;;		Nothing
  2269 ;; This function is called by:
  2270 ;;		_Interrupt_INTx_Init
  2271 ;;		_Interrupt_INTx_Deinit
  2272 ;; This function uses a non-reentrant model
  2273 ;;
  2274                           
  2275                           	psect	text14
  2276   001470                     __ptext14:
  2277                           	callstack 0
  2278   001470                     _Interrupt_INTx_Disable:
  2279                           	callstack 24
  2280   001470                     
  2281                           ;MCAL_Layer/Interrupt/mcal_external_interrupt.c: 169: static Std_ReturnType Interrupt_IN
      +                          Tx_Disable(const interrupt_INTx_t *int_obj);MCAL_Layer/Interrupt/mcal_external_interrupt
      +                          .c: 170: {;MCAL_Layer/Interrupt/mcal_external_interrupt.c: 171:     Std_ReturnType ret =
      +                           (Std_ReturnType)0x00u;
  2282   001470  0E00               	movlw	0
  2283   001472  6E4E               	movwf	Interrupt_INTx_Disable@ret^0,c
  2284                           
  2285                           ;MCAL_Layer/Interrupt/mcal_external_interrupt.c: 173:     if (int_obj == ((void*)0))
  2286   001474  504B               	movf	Interrupt_INTx_Disable@int_obj^0,w,c
  2287   001476  A4D8               	btfss	status,2,c
  2288   001478  EF40  F00A         	goto	u4791
  2289   00147C  EF42  F00A         	goto	u4790
  2290   001480                     u4791:
  2291   001480  EF4F  F00A         	goto	l5405
  2292   001484                     u4790:
  2293   001484                     l5399:
  2294                           
  2295                           ;MCAL_Layer/Interrupt/mcal_external_interrupt.c: 174:     {;MCAL_Layer/Interrupt/mcal_ex
      +                          ternal_interrupt.c: 175:         ret = (Std_ReturnType)0x01u;
  2296   001484  0E01               	movlw	1
  2297   001486  6E4E               	movwf	Interrupt_INTx_Disable@ret^0,c
  2298                           
  2299                           ;MCAL_Layer/Interrupt/mcal_external_interrupt.c: 176:     }
  2300   001488  EF6D  F00A         	goto	l5407
  2301   00148C                     l596:
  2302                           
  2303                           ;MCAL_Layer/Interrupt/mcal_external_interrupt.c: 182:                 (INTCONbits.INT0IE
      +                           = 0);
  2304   00148C  98F2               	bcf	242,4,c	;volatile
  2305                           
  2306                           ;MCAL_Layer/Interrupt/mcal_external_interrupt.c: 183:                 break;
  2307   00148E  EF6D  F00A         	goto	l5407
  2308   001492                     l598:
  2309                           
  2310                           ;MCAL_Layer/Interrupt/mcal_external_interrupt.c: 185:                 (INTCON3bits.INT1I
      +                          E = 0);
  2311   001492  96F0               	bcf	240,3,c	;volatile
  2312                           
  2313                           ;MCAL_Layer/Interrupt/mcal_external_interrupt.c: 186:                 break;
  2314   001494  EF6D  F00A         	goto	l5407
  2315   001498                     l599:
  2316                           
  2317                           ;MCAL_Layer/Interrupt/mcal_external_interrupt.c: 188:                 (INTCON3bits.INT2I
      +                          E = 0);
  2318   001498  98F0               	bcf	240,4,c	;volatile
  2319                           
  2320                           ;MCAL_Layer/Interrupt/mcal_external_interrupt.c: 189:                 break;
  2321   00149A  EF6D  F00A         	goto	l5407
  2322   00149E                     l5405:
  2323   00149E  504B               	movf	Interrupt_INTx_Disable@int_obj^0,w,c
  2324   0014A0  6ED9               	movwf	fsr2l,c
  2325   0014A2  6ADA               	clrf	fsr2h,c
  2326   0014A4  0E04               	movlw	4
  2327   0014A6  26D9               	addwf	fsr2l,f,c
  2328   0014A8  50DF               	movf	indf2,w,c
  2329   0014AA  6E4C               	movwf	??_Interrupt_INTx_Disable^0,c
  2330   0014AC  6A4D               	clrf	(??_Interrupt_INTx_Disable+1)^0,c
  2331                           
  2332                           ; Switch on 2 bytes has been partitioned into a top level switch of size 1, and 1 sub-sw
      +                          itches
  2333                           ; Switch size 1, requested type "simple"
  2334                           ; Number of cases is 1, Range of values is 0 to 0
  2335                           ; switch strategies available:
  2336                           ; Name         Instructions Cycles
  2337                           ; simple_byte            4     3 (average)
  2338                           ;	Chosen strategy is simple_byte
  2339   0014AE  504D               	movf	(??_Interrupt_INTx_Disable+1)^0,w,c
  2340   0014B0  0A00               	xorlw	0	; case 0
  2341   0014B2  B4D8               	btfsc	status,2,c
  2342   0014B4  EF5E  F00A         	goto	l6475
  2343   0014B8  EF42  F00A         	goto	l5399
  2344   0014BC                     l6475:
  2345                           
  2346                           ; Switch size 1, requested type "simple"
  2347                           ; Number of cases is 3, Range of values is 0 to 2
  2348                           ; switch strategies available:
  2349                           ; Name         Instructions Cycles
  2350                           ; simple_byte           10     6 (average)
  2351                           ;	Chosen strategy is simple_byte
  2352   0014BC  504C               	movf	??_Interrupt_INTx_Disable^0,w,c
  2353   0014BE  0A00               	xorlw	0	; case 0
  2354   0014C0  B4D8               	btfsc	status,2,c
  2355   0014C2  EF46  F00A         	goto	l596
  2356   0014C6  0A01               	xorlw	1	; case 1
  2357   0014C8  B4D8               	btfsc	status,2,c
  2358   0014CA  EF49  F00A         	goto	l598
  2359   0014CE  0A03               	xorlw	3	; case 2
  2360   0014D0  B4D8               	btfsc	status,2,c
  2361   0014D2  EF4C  F00A         	goto	l599
  2362   0014D6  EF42  F00A         	goto	l5399
  2363   0014DA                     l5407:
  2364                           
  2365                           ;MCAL_Layer/Interrupt/mcal_external_interrupt.c: 195:     return (ret);
  2366   0014DA  504E               	movf	Interrupt_INTx_Disable@ret^0,w,c
  2367   0014DC  0012               	return		;funcret
  2368   0014DE                     __end_of_Interrupt_INTx_Disable:
  2369                           	callstack 0
  2370                           
  2371 ;; *************** function _Interrupt_INTx_Clear_Flag *****************
  2372 ;; Defined at:
  2373 ;;		line 344 in file "MCAL_Layer/Interrupt/mcal_external_interrupt.c"
  2374 ;; Parameters:    Size  Location     Type
  2375 ;;  int_obj         1   14[COMRAM] PTR const struct .
  2376 ;;		 -> int0_obj(6), 
  2377 ;; Auto vars:     Size  Location     Type
  2378 ;;  ret             1   17[COMRAM] unsigned char 
  2379 ;; Return value:  Size  Location     Type
  2380 ;;                  1    wreg      unsigned char 
  2381 ;; Registers used:
  2382 ;;		wreg, fsr2l, fsr2h, status,2, status,0
  2383 ;; Tracked objects:
  2384 ;;		On entry : 0/0
  2385 ;;		On exit  : 0/0
  2386 ;;		Unchanged: 0/0
  2387 ;; Data sizes:     COMRAM   BANK0   BANK1   BANK2   BANK3   BANK4   BANK5   BANK6   BANK7   BANK8   BANK9  BANK10  BANK1
      +1  BANK12  BANK13  BANK14  BANK15
  2388 ;;      Params:         1       0       0       0       0       0       0       0       0       0       0       0       
      +0       0       0       0       0
  2389 ;;      Locals:         1       0       0       0       0       0       0       0       0       0       0       0       
      +0       0       0       0       0
  2390 ;;      Temps:          2       0       0       0       0       0       0       0       0       0       0       0       
      +0       0       0       0       0
  2391 ;;      Totals:         4       0       0       0       0       0       0       0       0       0       0       0       
      +0       0       0       0       0
  2392 ;;Total ram usage:        4 bytes
  2393 ;; Hardware stack levels used: 1
  2394 ;; Hardware stack levels required when called: 5
  2395 ;; This function calls:
  2396 ;;		Nothing
  2397 ;; This function is called by:
  2398 ;;		_Interrupt_INTx_Init
  2399 ;; This function uses a non-reentrant model
  2400 ;;
  2401                           
  2402                           	psect	text15
  2403   0014DE                     __ptext15:
  2404                           	callstack 0
  2405   0014DE                     _Interrupt_INTx_Clear_Flag:
  2406                           	callstack 24
  2407   0014DE                     
  2408                           ;MCAL_Layer/Interrupt/mcal_external_interrupt.c: 344: static Std_ReturnType Interrupt_IN
      +                          Tx_Clear_Flag(const interrupt_INTx_t *int_obj);MCAL_Layer/Interrupt/mcal_external_interr
      +                          upt.c: 345: {;MCAL_Layer/Interrupt/mcal_external_interrupt.c: 346:     Std_ReturnType re
      +                          t = (Std_ReturnType)0x00u;
  2409   0014DE  0E00               	movlw	0
  2410   0014E0  6E4E               	movwf	Interrupt_INTx_Clear_Flag@ret^0,c
  2411                           
  2412                           ;MCAL_Layer/Interrupt/mcal_external_interrupt.c: 348:     if (((void*)0) == int_obj)
  2413   0014E2  504B               	movf	Interrupt_INTx_Clear_Flag@int_obj^0,w,c
  2414   0014E4  A4D8               	btfss	status,2,c
  2415   0014E6  EF77  F00A         	goto	u4801
  2416   0014EA  EF79  F00A         	goto	u4800
  2417   0014EE                     u4801:
  2418   0014EE  EF86  F00A         	goto	l5423
  2419   0014F2                     u4800:
  2420   0014F2                     l5417:
  2421                           
  2422                           ;MCAL_Layer/Interrupt/mcal_external_interrupt.c: 349:     {;MCAL_Layer/Interrupt/mcal_ex
      +                          ternal_interrupt.c: 350:         ret = (Std_ReturnType)0x01u;
  2423   0014F2  0E01               	movlw	1
  2424   0014F4  6E4E               	movwf	Interrupt_INTx_Clear_Flag@ret^0,c
  2425                           
  2426                           ;MCAL_Layer/Interrupt/mcal_external_interrupt.c: 351:     }
  2427   0014F6  EFA4  F00A         	goto	l5425
  2428   0014FA                     l635:
  2429                           
  2430                           ;MCAL_Layer/Interrupt/mcal_external_interrupt.c: 357:                 (INTCONbits.INT0IF
      +                           = 0);
  2431   0014FA  92F2               	bcf	242,1,c	;volatile
  2432                           
  2433                           ;MCAL_Layer/Interrupt/mcal_external_interrupt.c: 358:                 break;
  2434   0014FC  EFA4  F00A         	goto	l5425
  2435   001500                     l637:
  2436                           
  2437                           ;MCAL_Layer/Interrupt/mcal_external_interrupt.c: 360:                 (INTCON3bits.INT1I
      +                          F = 0);
  2438   001500  90F0               	bcf	240,0,c	;volatile
  2439                           
  2440                           ;MCAL_Layer/Interrupt/mcal_external_interrupt.c: 361:                 break;
  2441   001502  EFA4  F00A         	goto	l5425
  2442   001506                     l638:
  2443                           
  2444                           ;MCAL_Layer/Interrupt/mcal_external_interrupt.c: 363:                 (INTCON3bits.INT2I
      +                          F = 0);
  2445   001506  92F0               	bcf	240,1,c	;volatile
  2446                           
  2447                           ;MCAL_Layer/Interrupt/mcal_external_interrupt.c: 364:                 break;
  2448   001508  EFA4  F00A         	goto	l5425
  2449   00150C                     l5423:
  2450   00150C  504B               	movf	Interrupt_INTx_Clear_Flag@int_obj^0,w,c
  2451   00150E  6ED9               	movwf	fsr2l,c
  2452   001510  6ADA               	clrf	fsr2h,c
  2453   001512  0E04               	movlw	4
  2454   001514  26D9               	addwf	fsr2l,f,c
  2455   001516  50DF               	movf	indf2,w,c
  2456   001518  6E4C               	movwf	??_Interrupt_INTx_Clear_Flag^0,c
  2457   00151A  6A4D               	clrf	(??_Interrupt_INTx_Clear_Flag+1)^0,c
  2458                           
  2459                           ; Switch on 2 bytes has been partitioned into a top level switch of size 1, and 1 sub-sw
      +                          itches
  2460                           ; Switch size 1, requested type "simple"
  2461                           ; Number of cases is 1, Range of values is 0 to 0
  2462                           ; switch strategies available:
  2463                           ; Name         Instructions Cycles
  2464                           ; simple_byte            4     3 (average)
  2465                           ;	Chosen strategy is simple_byte
  2466   00151C  504D               	movf	(??_Interrupt_INTx_Clear_Flag+1)^0,w,c
  2467   00151E  0A00               	xorlw	0	; case 0
  2468   001520  B4D8               	btfsc	status,2,c
  2469   001522  EF95  F00A         	goto	l6477
  2470   001526  EF79  F00A         	goto	l5417
  2471   00152A                     l6477:
  2472                           
  2473                           ; Switch size 1, requested type "simple"
  2474                           ; Number of cases is 3, Range of values is 0 to 2
  2475                           ; switch strategies available:
  2476                           ; Name         Instructions Cycles
  2477                           ; simple_byte           10     6 (average)
  2478                           ;	Chosen strategy is simple_byte
  2479   00152A  504C               	movf	??_Interrupt_INTx_Clear_Flag^0,w,c
  2480   00152C  0A00               	xorlw	0	; case 0
  2481   00152E  B4D8               	btfsc	status,2,c
  2482   001530  EF7D  F00A         	goto	l635
  2483   001534  0A01               	xorlw	1	; case 1
  2484   001536  B4D8               	btfsc	status,2,c
  2485   001538  EF80  F00A         	goto	l637
  2486   00153C  0A03               	xorlw	3	; case 2
  2487   00153E  B4D8               	btfsc	status,2,c
  2488   001540  EF83  F00A         	goto	l638
  2489   001544  EF79  F00A         	goto	l5417
  2490   001548                     l5425:
  2491                           
  2492                           ;MCAL_Layer/Interrupt/mcal_external_interrupt.c: 370:     return (ret);
  2493   001548  504E               	movf	Interrupt_INTx_Clear_Flag@ret^0,w,c
  2494   00154A  0012               	return		;funcret
  2495   00154C                     __end_of_Interrupt_INTx_Clear_Flag:
  2496                           	callstack 0
  2497                           
  2498 ;; *************** function _Interrupt_Manager *****************
  2499 ;; Defined at:
  2500 ;;		line 24 in file "MCAL_Layer/Interrupt/mcal_interrupt_manager.c"
  2501 ;; Parameters:    Size  Location     Type
  2502 ;;		None
  2503 ;; Auto vars:     Size  Location     Type
  2504 ;;		None
  2505 ;; Return value:  Size  Location     Type
  2506 ;;                  1    wreg      void 
  2507 ;; Registers used:
  2508 ;;		wreg, fsr2l, fsr2h, status,2, status,0, pcl, pclath, pclatu, tosl, prodl, prodh, cstack
  2509 ;; Tracked objects:
  2510 ;;		On entry : 0/0
  2511 ;;		On exit  : 0/0
  2512 ;;		Unchanged: 0/0
  2513 ;; Data sizes:     COMRAM   BANK0   BANK1   BANK2   BANK3   BANK4   BANK5   BANK6   BANK7   BANK8   BANK9  BANK10  BANK1
      +1  BANK12  BANK13  BANK14  BANK15
  2514 ;;      Params:         0       0       0       0       0       0       0       0       0       0       0       0       
      +0       0       0       0       0
  2515 ;;      Locals:         0       0       0       0       0       0       0       0       0       0       0       0       
      +0       0       0       0       0
  2516 ;;      Temps:          6       0       0       0       0       0       0       0       0       0       0       0       
      +0       0       0       0       0
  2517 ;;      Totals:         6       0       0       0       0       0       0       0       0       0       0       0       
      +0       0       0       0       0
  2518 ;;Total ram usage:        6 bytes
  2519 ;; Hardware stack levels used: 1
  2520 ;; Hardware stack levels required when called: 4
  2521 ;; This function calls:
  2522 ;;		_INT0_ISR
  2523 ;; This function is called by:
  2524 ;;		Interrupt level 2
  2525 ;; This function uses a non-reentrant model
  2526 ;;
  2527                           
  2528                           	psect	intcode
  2529   000008                     __pintcode:
  2530                           	callstack 0
  2531   000008                     _Interrupt_Manager:
  2532                           	callstack 22
  2533                           
  2534                           ;incstack = 0
  2535   000008  8251               	bsf	int$flags,1,c	;set compiler interrupt flag (level 2)
  2536   00000A  CFFA F045          	movff	pclath,??_Interrupt_Manager
  2537   00000E  CFFB F046          	movff	pclatu,??_Interrupt_Manager+1
  2538   000012  CFD9 F047          	movff	fsr2l,??_Interrupt_Manager+2
  2539   000016  CFDA F048          	movff	fsr2h,??_Interrupt_Manager+3
  2540   00001A  CFF3 F049          	movff	prodl,??_Interrupt_Manager+4
  2541   00001E  CFF4 F04A          	movff	prodh,??_Interrupt_Manager+5
  2542   000022                     
  2543                           ;MCAL_Layer/Interrupt/mcal_interrupt_manager.c: 26:     if ((1 == INTCONbits.INT0IE) && 
      +                          (1 == INTCONbits.INT0IF))
  2544   000022  A8F2               	btfss	242,4,c	;volatile
  2545   000024  EF16  F000         	goto	i2u392_41
  2546   000028  EF18  F000         	goto	i2u392_40
  2547   00002C                     i2u392_41:
  2548   00002C  EF21  F000         	goto	i2l703
  2549   000030                     i2u392_40:
  2550   000030  A2F2               	btfss	242,1,c	;volatile
  2551   000032  EF1D  F000         	goto	i2u393_41
  2552   000036  EF1F  F000         	goto	i2u393_40
  2553   00003A                     i2u393_41:
  2554   00003A  EF21  F000         	goto	i2l703
  2555   00003E                     i2u393_40:
  2556   00003E                     
  2557                           ;MCAL_Layer/Interrupt/mcal_interrupt_manager.c: 27:     {;MCAL_Layer/Interrupt/mcal_inte
      +                          rrupt_manager.c: 28:         INT0_ISR();
  2558   00003E  ECB5  F00B         	call	_INT0_ISR	;wreg free
  2559   000042                     i2l703:
  2560   000042  C04A  FFF4         	movff	??_Interrupt_Manager+5,prodh
  2561   000046  C049  FFF3         	movff	??_Interrupt_Manager+4,prodl
  2562   00004A  C048  FFDA         	movff	??_Interrupt_Manager+3,fsr2h
  2563   00004E  C047  FFD9         	movff	??_Interrupt_Manager+2,fsr2l
  2564   000052  C046  FFFB         	movff	??_Interrupt_Manager+1,pclatu
  2565   000056  C045  FFFA         	movff	??_Interrupt_Manager,pclath
  2566   00005A  9251               	bcf	int$flags,1,c	;clear compiler interrupt flag (level 2)
  2567   00005C  0011               	retfie		f
  2568   00005E                     __end_of_Interrupt_Manager:
  2569                           	callstack 0
  2570                           
  2571 ;; *************** function _INT0_ISR *****************
  2572 ;; Defined at:
  2573 ;;		line 550 in file "MCAL_Layer/Interrupt/mcal_external_interrupt.c"
  2574 ;; Parameters:    Size  Location     Type
  2575 ;;		None
  2576 ;; Auto vars:     Size  Location     Type
  2577 ;;		None
  2578 ;; Return value:  Size  Location     Type
  2579 ;;                  1    wreg      void 
  2580 ;; Registers used:
  2581 ;;		wreg, fsr2l, fsr2h, status,2, status,0, pcl, pclath, pclatu, tosl, prodl, prodh, cstack
  2582 ;; Tracked objects:
  2583 ;;		On entry : 0/0
  2584 ;;		On exit  : 0/0
  2585 ;;		Unchanged: 0/0
  2586 ;; Data sizes:     COMRAM   BANK0   BANK1   BANK2   BANK3   BANK4   BANK5   BANK6   BANK7   BANK8   BANK9  BANK10  BANK1
      +1  BANK12  BANK13  BANK14  BANK15
  2587 ;;      Params:         0       0       0       0       0       0       0       0       0       0       0       0       
      +0       0       0       0       0
  2588 ;;      Locals:         0       0       0       0       0       0       0       0       0       0       0       0       
      +0       0       0       0       0
  2589 ;;      Temps:          0       0       0       0       0       0       0       0       0       0       0       0       
      +0       0       0       0       0
  2590 ;;      Totals:         0       0       0       0       0       0       0       0       0       0       0       0       
      +0       0       0       0       0
  2591 ;;Total ram usage:        0 bytes
  2592 ;; Hardware stack levels used: 1
  2593 ;; Hardware stack levels required when called: 3
  2594 ;; This function calls:
  2595 ;;		NULL
  2596 ;;		_INT0_App_ISR
  2597 ;; This function is called by:
  2598 ;;		_Interrupt_Manager
  2599 ;; This function uses a non-reentrant model
  2600 ;;
  2601                           
  2602                           	psect	text17
  2603   00176A                     __ptext17:
  2604                           	callstack 0
  2605   00176A                     _INT0_ISR:
  2606                           	callstack 22
  2607   00176A                     
  2608                           ;MCAL_Layer/Interrupt/mcal_external_interrupt.c: 553:     (INTCONbits.INT0IF = 0);
  2609   00176A  92F2               	bcf	242,1,c	;volatile
  2610   00176C                     
  2611                           ;MCAL_Layer/Interrupt/mcal_external_interrupt.c: 557:     if (INT0_INTERRUPT_HANDLER)
  2612   00176C  5029               	movf	_INT0_INTERRUPT_HANDLER^0,w,c
  2613   00176E  102A               	iorwf	(_INT0_INTERRUPT_HANDLER+1)^0,w,c
  2614   001770  B4D8               	btfsc	status,2,c
  2615   001772  EFBD  F00B         	goto	i2u367_41
  2616   001776  EFBF  F00B         	goto	i2u367_40
  2617   00177A                     i2u367_41:
  2618   00177A  EFCB  F00B         	goto	i2l685
  2619   00177E                     i2u367_40:
  2620   00177E                     
  2621                           ;MCAL_Layer/Interrupt/mcal_external_interrupt.c: 558:     {;MCAL_Layer/Interrupt/mcal_ex
      +                          ternal_interrupt.c: 559:         INT0_INTERRUPT_HANDLER();
  2622   00177E  D802               	call	i2u368_48
  2623   001780  EFCB  F00B         	goto	i2u368_49
  2624   001784                     i2u368_48:
  2625   001784  0005               	push	
  2626   001786  6EFA               	movwf	pclath,c
  2627   001788  5029               	movf	_INT0_INTERRUPT_HANDLER^0,w,c
  2628   00178A  6EFD               	movwf	tosl,c
  2629   00178C  502A               	movf	(_INT0_INTERRUPT_HANDLER+1)^0,w,c
  2630   00178E  6EFE               	movwf	tosh,c
  2631   001790  6AFF               	clrf	tosu,c
  2632   001792  50FA               	movf	pclath,w,c
  2633   001794  0012               	return		;indir
  2634   001796                     i2u368_49:
  2635   001796                     i2l685:
  2636   001796  0012               	return		;funcret
  2637   001798                     __end_of_INT0_ISR:
  2638                           	callstack 0
  2639                           
  2640 ;; *************** function _INT0_App_ISR *****************
  2641 ;; Defined at:
  2642 ;;		line 10 in file "app.c"
  2643 ;; Parameters:    Size  Location     Type
  2644 ;;		None
  2645 ;; Auto vars:     Size  Location     Type
  2646 ;;		None
  2647 ;; Return value:  Size  Location     Type
  2648 ;;                  1    wreg      void 
  2649 ;; Registers used:
  2650 ;;		wreg, fsr2l, fsr2h, status,2, status,0, prodl, prodh, cstack
  2651 ;; Tracked objects:
  2652 ;;		On entry : 0/0
  2653 ;;		On exit  : 0/0
  2654 ;;		Unchanged: 0/0
  2655 ;; Data sizes:     COMRAM   BANK0   BANK1   BANK2   BANK3   BANK4   BANK5   BANK6   BANK7   BANK8   BANK9  BANK10  BANK1
      +1  BANK12  BANK13  BANK14  BANK15
  2656 ;;      Params:         0       0       0       0       0       0       0       0       0       0       0       0       
      +0       0       0       0       0
  2657 ;;      Locals:         0       0       0       0       0       0       0       0       0       0       0       0       
      +0       0       0       0       0
  2658 ;;      Temps:          0       0       0       0       0       0       0       0       0       0       0       0       
      +0       0       0       0       0
  2659 ;;      Totals:         0       0       0       0       0       0       0       0       0       0       0       0       
      +0       0       0       0       0
  2660 ;;Total ram usage:        0 bytes
  2661 ;; Hardware stack levels used: 1
  2662 ;; Hardware stack levels required when called: 2
  2663 ;; This function calls:
  2664 ;;		_led_toggle
  2665 ;; This function is called by:
  2666 ;;		_INT0_ISR
  2667 ;;		_INT1_ISR
  2668 ;;		_INT2_ISR
  2669 ;; This function uses a non-reentrant model
  2670 ;;
  2671                           
  2672                           	psect	text18
  2673   00186E                     __ptext18:
  2674                           	callstack 0
  2675   00186E                     _INT0_App_ISR:
  2676                           	callstack 22
  2677   00186E                     
  2678                           ;app.c: 12:     led_toggle(&led1);
  2679   00186E  0E22               	movlw	low _led1
  2680   001870  6E42               	movwf	led_toggle@led^0,c
  2681   001872  EC0D  F00B         	call	_led_toggle	;wreg free
  2682   001876  0012               	return		;funcret
  2683   001878                     __end_of_INT0_App_ISR:
  2684                           	callstack 0
  2685                           
  2686 ;; *************** function _led_toggle *****************
  2687 ;; Defined at:
  2688 ;;		line 107 in file "ECU_Layer/led/ecu_led.c"
  2689 ;; Parameters:    Size  Location     Type
  2690 ;;  led             1    5[COMRAM] PTR const struct .
  2691 ;;		 -> led1(1), 
  2692 ;; Auto vars:     Size  Location     Type
  2693 ;;  pin             1    7[COMRAM] struct .
  2694 ;;  ret             1    0        unsigned char 
  2695 ;; Return value:  Size  Location     Type
  2696 ;;                  1    wreg      unsigned char 
  2697 ;; Registers used:
  2698 ;;		wreg, fsr2l, fsr2h, status,2, status,0, prodl, prodh, cstack
  2699 ;; Tracked objects:
  2700 ;;		On entry : 0/0
  2701 ;;		On exit  : 0/0
  2702 ;;		Unchanged: 0/0
  2703 ;; Data sizes:     COMRAM   BANK0   BANK1   BANK2   BANK3   BANK4   BANK5   BANK6   BANK7   BANK8   BANK9  BANK10  BANK1
      +1  BANK12  BANK13  BANK14  BANK15
  2704 ;;      Params:         1       0       0       0       0       0       0       0       0       0       0       0       
      +0       0       0       0       0
  2705 ;;      Locals:         1       0       0       0       0       0       0       0       0       0       0       0       
      +0       0       0       0       0
  2706 ;;      Temps:          1       0       0       0       0       0       0       0       0       0       0       0       
      +0       0       0       0       0
  2707 ;;      Totals:         3       0       0       0       0       0       0       0       0       0       0       0       
      +0       0       0       0       0
  2708 ;;Total ram usage:        3 bytes
  2709 ;; Hardware stack levels used: 1
  2710 ;; Hardware stack levels required when called: 1
  2711 ;; This function calls:
  2712 ;;		_gpio_pin_toggle_logic
  2713 ;; This function is called by:
  2714 ;;		_INT0_App_ISR
  2715 ;; This function uses a non-reentrant model
  2716 ;;
  2717                           
  2718                           	psect	text19
  2719   00161A                     __ptext19:
  2720                           	callstack 0
  2721   00161A                     _led_toggle:
  2722                           	callstack 22
  2723   00161A                     
  2724                           ;ECU_Layer/led/ecu_led.c: 110:     if (((void*)0) == led);ECU_Layer/led/ecu_led.c: 110: 
      +                              if (((void*)0) == led)
  2725   00161A  5042               	movf	led_toggle@led^0,w,c
  2726   00161C  A4D8               	btfss	status,2,c
  2727   00161E  EF13  F00B         	goto	i2u242_41
  2728   001622  EF15  F00B         	goto	i2u242_40
  2729   001626                     i2u242_41:
  2730   001626  EF17  F00B         	goto	i2l359
  2731   00162A                     i2u242_40:
  2732   00162A                     
  2733                           ;ECU_Layer/led/ecu_led.c: 113:     };ECU_Layer/led/ecu_led.c: 113:     }
  2734   00162A  EF3F  F00B         	goto	i2l363
  2735   00162E                     i2l359:
  2736                           
  2737                           ;ECU_Layer/led/ecu_led.c: 115:     {;ECU_Layer/led/ecu_led.c: 115:     {;ECU_Layer/led/e
      +                          cu_led.c: 116:         pin_config_t pin = {;ECU_Layer/led/ecu_led.c: 116:         pin_co
      +                          nfig_t pin = {
  2738   00162E  C035  F044         	movff	led_toggle@F3173,led_toggle@pin
  2739   001632  5042               	movf	led_toggle@led^0,w,c
  2740   001634  6ED9               	movwf	fsr2l,c
  2741   001636  6ADA               	clrf	fsr2h,c
  2742   001638  50DF               	movf	223,w,c
  2743   00163A  0B0F               	andlw	15
  2744   00163C  6E43               	movwf	??_led_toggle^0,c
  2745   00163E  5044               	movf	led_toggle@pin^0,w,c
  2746   001640  1843               	xorwf	??_led_toggle^0,w,c
  2747   001642  0BF8               	andlw	-8
  2748   001644  1843               	xorwf	??_led_toggle^0,w,c
  2749   001646  6E44               	movwf	led_toggle@pin^0,c
  2750   001648  5042               	movf	led_toggle@led^0,w,c
  2751   00164A  6ED9               	movwf	fsr2l,c
  2752   00164C  6ADA               	clrf	fsr2h,c
  2753   00164E  38DF               	swapf	223,w,c
  2754   001650  0B07               	andlw	7
  2755   001652  6E43               	movwf	??_led_toggle^0,c
  2756   001654  4643               	rlncf	??_led_toggle^0,f,c
  2757   001656  4643               	rlncf	??_led_toggle^0,f,c
  2758   001658  4643               	rlncf	??_led_toggle^0,f,c
  2759   00165A  5044               	movf	led_toggle@pin^0,w,c
  2760   00165C  1843               	xorwf	??_led_toggle^0,w,c
  2761   00165E  0BC7               	andlw	-57
  2762   001660  1843               	xorwf	??_led_toggle^0,w,c
  2763   001662  6E44               	movwf	led_toggle@pin^0,c
  2764   001664  9C44               	bcf	led_toggle@pin^0,6,c
  2765   001666  5042               	movf	led_toggle@led^0,w,c
  2766   001668  6ED9               	movwf	fsr2l,c
  2767   00166A  6ADA               	clrf	fsr2h,c
  2768   00166C  AEDF               	btfss	indf2,7,c
  2769   00166E  D002               	bra	i2u243_45
  2770   001670  8E44               	bsf	led_toggle@pin^0,7,c
  2771   001672  D001               	bra	i2u243_47
  2772   001674                     i2u243_45:
  2773   001674  9E44               	bcf	led_toggle@pin^0,7,c
  2774   001676                     i2u243_47:
  2775   001676                     
  2776                           ;ECU_Layer/led/ecu_led.c: 122:         gpio_pin_toggle_logic(&pin);;ECU_Layer/led/ecu_le
      +                          d.c: 122:         gpio_pin_toggle_logic(&pin);
  2777   001676  0E44               	movlw	low led_toggle@pin
  2778   001678  6E3D               	movwf	gpio_pin_toggle_logic@_pin_config_t^0,c
  2779   00167A  EC84  F009         	call	_gpio_pin_toggle_logic	;wreg free
  2780   00167E                     i2l363:
  2781   00167E  0012               	return		;funcret
  2782   001680                     __end_of_led_toggle:
  2783                           	callstack 0
  2784                           
  2785 ;; *************** function _gpio_pin_toggle_logic *****************
  2786 ;; Defined at:
  2787 ;;		line 150 in file "MCAL_Layer/GPIO/hal_gpio.c"
  2788 ;; Parameters:    Size  Location     Type
  2789 ;;  _pin_config_    1    0[COMRAM] PTR const struct .
  2790 ;;		 -> led_toggle@pin(1), 
  2791 ;; Auto vars:     Size  Location     Type
  2792 ;;  ret             1    0        unsigned char 
  2793 ;; Return value:  Size  Location     Type
  2794 ;;                  1    wreg      unsigned char 
  2795 ;; Registers used:
  2796 ;;		wreg, fsr2l, fsr2h, status,2, status,0, prodl, prodh
  2797 ;; Tracked objects:
  2798 ;;		On entry : 0/0
  2799 ;;		On exit  : 0/0
  2800 ;;		Unchanged: 0/0
  2801 ;; Data sizes:     COMRAM   BANK0   BANK1   BANK2   BANK3   BANK4   BANK5   BANK6   BANK7   BANK8   BANK9  BANK10  BANK1
      +1  BANK12  BANK13  BANK14  BANK15
  2802 ;;      Params:         1       0       0       0       0       0       0       0       0       0       0       0       
      +0       0       0       0       0
  2803 ;;      Locals:         0       0       0       0       0       0       0       0       0       0       0       0       
      +0       0       0       0       0
  2804 ;;      Temps:          4       0       0       0       0       0       0       0       0       0       0       0       
      +0       0       0       0       0
  2805 ;;      Totals:         5       0       0       0       0       0       0       0       0       0       0       0       
      +0       0       0       0       0
  2806 ;;Total ram usage:        5 bytes
  2807 ;; Hardware stack levels used: 1
  2808 ;; This function calls:
  2809 ;;		Nothing
  2810 ;; This function is called by:
  2811 ;;		_led_toggle
  2812 ;; This function uses a non-reentrant model
  2813 ;;
  2814                           
  2815                           	psect	text20
  2816   001308                     __ptext20:
  2817                           	callstack 0
  2818   001308                     _gpio_pin_toggle_logic:
  2819                           	callstack 22
  2820   001308                     
  2821                           ;MCAL_Layer/GPIO/hal_gpio.c: 153:     if (((void*)0) == _pin_config_t || _pin_config_t->
      +                          pin > 8 - 1);MCAL_Layer/GPIO/hal_gpio.c: 153:     if (((void*)0) == _pin_config_t || _pi
      +                          n_config_t->pin > 8 - 1)
  2822   001308  503D               	movf	gpio_pin_toggle_logic@_pin_config_t^0,w,c
  2823   00130A  B4D8               	btfsc	status,2,c
  2824   00130C  EF8A  F009         	goto	i2u215_41
  2825   001310  EF8C  F009         	goto	i2u215_40
  2826   001314                     i2u215_41:
  2827   001314  EF9C  F009         	goto	i2l3391
  2828   001318                     i2u215_40:
  2829   001318  503D               	movf	gpio_pin_toggle_logic@_pin_config_t^0,w,c
  2830   00131A  6ED9               	movwf	fsr2l,c
  2831   00131C  6ADA               	clrf	fsr2h,c
  2832   00131E  30DF               	rrcf	223,w,c
  2833   001320  32E8               	rrcf	wreg,f,c
  2834   001322  32E8               	rrcf	wreg,f,c
  2835   001324  0B07               	andlw	7
  2836   001326  6E3E               	movwf	??_gpio_pin_toggle_logic^0,c
  2837   001328  0E07               	movlw	7
  2838   00132A  643E               	cpfsgt	??_gpio_pin_toggle_logic^0,c
  2839   00132C  EF9A  F009         	goto	i2u216_41
  2840   001330  EF9C  F009         	goto	i2u216_40
  2841   001334                     i2u216_41:
  2842   001334  EF9E  F009         	goto	i2l3393
  2843   001338                     i2u216_40:
  2844   001338                     i2l3391:
  2845                           
  2846                           ;MCAL_Layer/GPIO/hal_gpio.c: 156:     };MCAL_Layer/GPIO/hal_gpio.c: 156:     }
  2847   001338  EFC4  F009         	goto	i2l504
  2848   00133C                     i2l3393:
  2849                           
  2850                           ;MCAL_Layer/GPIO/hal_gpio.c: 158:     {;MCAL_Layer/GPIO/hal_gpio.c: 158:     {;MCAL_Laye
      +                          r/GPIO/hal_gpio.c: 159:         (*lat_registers[_pin_config_t->port] ^= ((uint8)1 << _pi
      +                          n_config_t->pin));;MCAL_Layer/GPIO/hal_gpio.c: 159:         (*lat_registers[_pin_config_
      +                          t->port] ^= ((uint8)1 << _pin_config_t->pin));
  2851   00133C  503D               	movf	gpio_pin_toggle_logic@_pin_config_t^0,w,c
  2852   00133E  6ED9               	movwf	fsr2l,c
  2853   001340  6ADA               	clrf	fsr2h,c
  2854   001342  30DF               	rrcf	223,w,c
  2855   001344  32E8               	rrcf	wreg,f,c
  2856   001346  32E8               	rrcf	wreg,f,c
  2857   001348  0B07               	andlw	7
  2858   00134A  6E3E               	movwf	??_gpio_pin_toggle_logic^0,c
  2859   00134C  0E01               	movlw	1
  2860   00134E  6E3F               	movwf	(??_gpio_pin_toggle_logic+1)^0,c
  2861   001350  2A3E               	incf	??_gpio_pin_toggle_logic^0,f,c
  2862   001352  EFAD  F009         	goto	i2u217_44
  2863   001356                     i2u217_45:
  2864   001356  90D8               	bcf	status,0,c
  2865   001358  363F               	rlcf	(??_gpio_pin_toggle_logic+1)^0,f,c
  2866   00135A                     i2u217_44:
  2867   00135A  2E3E               	decfsz	??_gpio_pin_toggle_logic^0,f,c
  2868   00135C  EFAB  F009         	goto	i2u217_45
  2869   001360  503D               	movf	gpio_pin_toggle_logic@_pin_config_t^0,w,c
  2870   001362  6ED9               	movwf	fsr2l,c
  2871   001364  6ADA               	clrf	fsr2h,c
  2872   001366  50DF               	movf	223,w,c
  2873   001368  0B07               	andlw	7
  2874   00136A  0D02               	mullw	2
  2875   00136C  50F3               	movf	243,w,c
  2876   00136E  0F74               	addlw	low _lat_registers
  2877   001370  6ED9               	movwf	fsr2l,c
  2878   001372  6ADA               	clrf	fsr2h,c
  2879   001374  CFDE F040          	movff	postinc2,??_gpio_pin_toggle_logic+2
  2880   001378  CFDD F041          	movff	postdec2,??_gpio_pin_toggle_logic+3
  2881   00137C  C040  FFD9         	movff	??_gpio_pin_toggle_logic+2,fsr2l
  2882   001380  C041  FFDA         	movff	??_gpio_pin_toggle_logic+3,fsr2h
  2883   001384  503F               	movf	(??_gpio_pin_toggle_logic+1)^0,w,c
  2884   001386  1ADF               	xorwf	indf2,f,c
  2885   001388                     i2l504:
  2886   001388  0012               	return		;funcret
  2887   00138A                     __end_of_gpio_pin_toggle_logic:
  2888                           	callstack 0
  2889                           
  2890                           	psect	rparam
  2891   000000                     
  2892                           	psect	temp
  2893   000051                     btemp:
  2894                           	callstack 0
  2895   000051                     	ds	1
  2896   000000                     int$flags	set	btemp
  2897   000000                     wtemp8	set	btemp+1
  2898   000000                     ttemp5	set	btemp+1
  2899   000000                     ttemp6	set	btemp+4
  2900   000000                     ttemp7	set	btemp+8
  2901                           
  2902                           	psect	config
  2903                           
  2904                           ; Padding undefined space
  2905   300000                     	org	3145728
  2906   300000  FF                 	db	255
  2907                           
  2908                           ;Config register CONFIG1H @ 0x300001
  2909                           ;	Oscillator Selection bits
  2910                           ;	FOSC = RCIO6, External RC oscillator, port function on RA6
  2911                           ;	Fail-Safe Clock Monitor Enable bit
  2912                           ;	FCMEN = OFF, Fail-Safe Clock Monitor disabled
  2913                           ;	Internal/External Oscillator Switchover bit
  2914                           ;	IESO = OFF, Oscillator Switchover mode disabled
  2915   300001                     	org	3145729
  2916   300001  07                 	db	7
  2917                           
  2918                           ;Config register CONFIG2L @ 0x300002
  2919                           ;	Power-up Timer Enable bit
  2920                           ;	PWRTEN = OFF, PWRT disabled
  2921                           ;	Brown-out Reset Enable bits
  2922                           ;	BOREN = SBORDIS, Brown-out Reset enabled in hardware only (SBOREN is disabled)
  2923                           ;	Brown Out Reset Voltage bits
  2924                           ;	BORV = 18, VBOR set to 1.8 V nominal
  2925   300002                     	org	3145730
  2926   300002  1F                 	db	31
  2927                           
  2928                           ;Config register CONFIG2H @ 0x300003
  2929                           ;	Watchdog Timer Enable bit
  2930                           ;	WDTEN = ON, WDT is always enabled. SWDTEN bit has no effect
  2931                           ;	Watchdog Timer Postscale Select bits
  2932                           ;	WDTPS = 32768, 1:32768
  2933   300003                     	org	3145731
  2934   300003  1F                 	db	31
  2935                           
  2936                           ; Padding undefined space
  2937   300004                     	org	3145732
  2938   300004  FF                 	db	255
  2939                           
  2940                           ;Config register CONFIG3H @ 0x300005
  2941                           ;	CCP2 MUX bit
  2942                           ;	CCP2MX = PORTC, CCP2 input/output is multiplexed with RC1
  2943                           ;	PORTB A/D Enable bit
  2944                           ;	PBADEN = OFF, PORTB<4:0> pins are configured as digital I/O on Reset
  2945                           ;	Low-Power Timer1 Oscillator Enable bit
  2946                           ;	LPT1OSC = OFF, Timer1 configured for higher power operation
  2947                           ;	HFINTOSC Fast Start-up
  2948                           ;	HFOFST = ON, HFINTOSC starts clocking the CPU without waiting for the oscillator to st
      +                          ablize.
  2949                           ;	MCLR Pin Enable bit
  2950                           ;	MCLRE = ON, MCLR pin enabled; RE3 input pin disabled
  2951   300005                     	org	3145733
  2952   300005  89                 	db	137
  2953                           
  2954                           ;Config register CONFIG4L @ 0x300006
  2955                           ;	Stack Full/Underflow Reset Enable bit
  2956                           ;	STVREN = ON, Stack full/underflow will cause Reset
  2957                           ;	Single-Supply ICSP Enable bit
  2958                           ;	LVP = ON, Single-Supply ICSP enabled
  2959                           ;	Extended Instruction Set Enable bit
  2960                           ;	XINST = OFF, Instruction set extension and Indexed Addressing mode disabled (Legacy mo
      +                          de)
  2961                           ;	Background Debugger Enable bit
  2962                           ;	DEBUG = 0x1, unprogrammed default
  2963   300006                     	org	3145734
  2964   300006  85                 	db	133
  2965                           
  2966                           ; Padding undefined space
  2967   300007                     	org	3145735
  2968   300007  FF                 	db	255
  2969                           
  2970                           ;Config register CONFIG5L @ 0x300008
  2971                           ;	Code Protection Block 0
  2972                           ;	CP0 = OFF, Block 0 (000800-003FFFh) not code-protected
  2973                           ;	Code Protection Block 1
  2974                           ;	CP1 = OFF, Block 1 (004000-007FFFh) not code-protected
  2975                           ;	Code Protection Block 2
  2976                           ;	CP2 = OFF, Block 2 (008000-00BFFFh) not code-protected
  2977                           ;	Code Protection Block 3
  2978                           ;	CP3 = OFF, Block 3 (00C000-00FFFFh) not code-protected
  2979   300008                     	org	3145736
  2980   300008  0F                 	db	15
  2981                           
  2982                           ;Config register CONFIG5H @ 0x300009
  2983                           ;	Boot Block Code Protection bit
  2984                           ;	CPB = OFF, Boot block (000000-0007FFh) not code-protected
  2985                           ;	Data EEPROM Code Protection bit
  2986                           ;	CPD = OFF, Data EEPROM not code-protected
  2987   300009                     	org	3145737
  2988   300009  C0                 	db	192
  2989                           
  2990                           ;Config register CONFIG6L @ 0x30000A
  2991                           ;	Write Protection Block 0
  2992                           ;	WRT0 = OFF, Block 0 (000800-003FFFh) not write-protected
  2993                           ;	Write Protection Block 1
  2994                           ;	WRT1 = OFF, Block 1 (004000-007FFFh) not write-protected
  2995                           ;	Write Protection Block 2
  2996                           ;	WRT2 = OFF, Block 2 (008000-00BFFFh) not write-protected
  2997                           ;	Write Protection Block 3
  2998                           ;	WRT3 = OFF, Block 3 (00C000h-00FFFFh) not write-protected
  2999   30000A                     	org	3145738
  3000   30000A  0F                 	db	15
  3001                           
  3002                           ;Config register CONFIG6H @ 0x30000B
  3003                           ;	Configuration Register Write Protection bit
  3004                           ;	WRTC = OFF, Configuration registers (300000-3000FFh) not write-protected
  3005                           ;	Boot Block Write Protection bit
  3006                           ;	WRTB = OFF, Boot Block (000000-0007FFh) not write-protected
  3007                           ;	Data EEPROM Write Protection bit
  3008                           ;	WRTD = OFF, Data EEPROM not write-protected
  3009   30000B                     	org	3145739
  3010   30000B  E0                 	db	224
  3011                           
  3012                           ;Config register CONFIG7L @ 0x30000C
  3013                           ;	Table Read Protection Block 0
  3014                           ;	EBTR0 = OFF, Block 0 (000800-003FFFh) not protected from table reads executed in other
      +                           blocks
  3015                           ;	Table Read Protection Block 1
  3016                           ;	EBTR1 = OFF, Block 1 (004000-007FFFh) not protected from table reads executed in other
      +                           blocks
  3017                           ;	Table Read Protection Block 2
  3018                           ;	EBTR2 = OFF, Block 2 (008000-00BFFFh) not protected from table reads executed in other
      +                           blocks
  3019                           ;	Table Read Protection Block 3
  3020                           ;	EBTR3 = OFF, Block 3 (00C000-00FFFFh) not protected from table reads executed in other
      +                           blocks
  3021   30000C                     	org	3145740
  3022   30000C  0F                 	db	15
  3023                           
  3024                           ;Config register CONFIG7H @ 0x30000D
  3025                           ;	Boot Block Table Read Protection bit
  3026                           ;	EBTRB = OFF, Boot Block (000000-0007FFh) not protected from table reads executed in ot
      +                          her blocks
  3027   30000D                     	org	3145741
  3028   30000D  40                 	db	64
  3029                           tosu	equ	0xFFF
  3030                           tosh	equ	0xFFE
  3031                           tosl	equ	0xFFD
  3032                           stkptr	equ	0xFFC
  3033                           pclatu	equ	0xFFB
  3034                           pclath	equ	0xFFA
  3035                           pcl	equ	0xFF9
  3036                           tblptru	equ	0xFF8
  3037                           tblptrh	equ	0xFF7
  3038                           tblptrl	equ	0xFF6
  3039                           tablat	equ	0xFF5
  3040                           prodh	equ	0xFF4
  3041                           prodl	equ	0xFF3
  3042                           indf0	equ	0xFEF
  3043                           postinc0	equ	0xFEE
  3044                           postdec0	equ	0xFED
  3045                           preinc0	equ	0xFEC
  3046                           plusw0	equ	0xFEB
  3047                           fsr0h	equ	0xFEA
  3048                           fsr0l	equ	0xFE9
  3049                           wreg	equ	0xFE8
  3050                           indf1	equ	0xFE7
  3051                           postinc1	equ	0xFE6
  3052                           postdec1	equ	0xFE5
  3053                           preinc1	equ	0xFE4
  3054                           plusw1	equ	0xFE3
  3055                           fsr1h	equ	0xFE2
  3056                           fsr1l	equ	0xFE1
  3057                           bsr	equ	0xFE0
  3058                           indf2	equ	0xFDF
  3059                           postinc2	equ	0xFDE
  3060                           postdec2	equ	0xFDD
  3061                           preinc2	equ	0xFDC
  3062                           plusw2	equ	0xFDB
  3063                           fsr2h	equ	0xFDA
  3064                           fsr2l	equ	0xFD9
  3065                           status	equ	0xFD8

Data Sizes:
    Strings     27
    Constant    16
    Data        136
    BSS         32
    Persistent  0
    Stack       0

Auto Spaces:
    Space          Size  Autos    Used
    COMRAM           94     20      80
    BANK0           160      9     117
    BANK1           256      0       0
    BANK2           256      0       0
    BANK3           256      0       0
    BANK4           256      0       0
    BANK5           256      0       0
    BANK6           256      0       0
    BANK7           256      0       0
    BANK8           256      0       0
    BANK9           256      0       0
    BANK10          256      0       0
    BANK11          256      0       0
    BANK12          256      0       0
    BANK13          256      0       0
    BANK14          256      0       0
    BANK15           96      0       0

Pointer List with Targets:

    f$.$buffer	PTR unsigned char  size(2) Largest target is 0

    f$.$source	PTR const unsigned char  size(2) Largest target is 0

    funcs	PTR FTN()void [3] size(2) Largest target is 0

    gpio_pin_direction_initialize@_pin_config_t	PTR const struct . size(1) Largest target is 10
		 -> btn_high(COMRAM[3]), btn_low(COMRAM[3]), dc_motor_1(COMRAM[2]), dc_motor_1$dc_motor_pins(COMRAM[2]), 
		 -> dc_motor_2(COMRAM[2]), dc_motor_2$dc_motor_pins(COMRAM[2]), int0_obj(BANK0[6]), keypad1(BANK0[8]), 
		 -> keypad1$keypad_cols_pins(BANK0[4]), keypad1$keypad_rows_pins(BANK0[4]), lcd_1(COMRAM[6]), lcd_1$lcd_data(COMRAM[4]), 
		 -> lcd_2(BANK0[10]), lcd_2$lcd_data(BANK0[8]), led_initialize@pin(BANK0[1]), relay_initialize@pin_obj(COMRAM[1]), 
		 -> seg1(COMRAM[5]), seg1$segment_pins(COMRAM[4]), seg1_enable(COMRAM[1]), seg2_enable(COMRAM[1]), 
		 -> seg3_enable(COMRAM[1]), seg4_enable(COMRAM[1]), seg5_enable(COMRAM[1]), seg6_enable(COMRAM[1]), 

    gpio_pin_initialize@_pin_config_t	PTR const struct . size(1) Largest target is 10
		 -> dc_motor_1(COMRAM[2]), dc_motor_1$dc_motor_pins(COMRAM[2]), dc_motor_2(COMRAM[2]), dc_motor_2$dc_motor_pins(COMRAM[2]), 
		 -> int0_obj(BANK0[6]), keypad1(BANK0[8]), keypad1$keypad_rows_pins(BANK0[4]), lcd_1(COMRAM[6]), 
		 -> lcd_1$lcd_data(COMRAM[4]), lcd_2(BANK0[10]), lcd_2$lcd_data(BANK0[8]), led_initialize@pin(BANK0[1]), 
		 -> relay_initialize@pin_obj(COMRAM[1]), seg1(COMRAM[5]), seg1$segment_pins(COMRAM[4]), 

    gpio_pin_toggle_logic@_pin_config_t	PTR const struct . size(1) Largest target is 1
		 -> led_toggle@pin(COMRAM[1]), 

    INT0_INTERRUPT_HANDLER	PTR FTN()void  size(2) Largest target is 1
		 -> INT0_App_ISR(), NULL(), 

    int0_obj$EXT_interrupt_handler	PTR FTN()void  size(2) Largest target is 1
		 -> INT0_App_ISR(), 

    INT0_Set_Interrupt_Handler@Interrupt_Handler	PTR FTN()void  size(2) Largest target is 1
		 -> INT0_App_ISR(), 

    INT1_INTERRUPT_HANDLER	PTR FTN()void  size(2) Largest target is 1
		 -> INT0_App_ISR(), NULL(), 

    INT1_Set_Interrupt_Handler@Interrupt_Handler	PTR FTN()void  size(2) Largest target is 1
		 -> INT0_App_ISR(), 

    INT2_INTERRUPT_HANDLER	PTR FTN()void  size(2) Largest target is 1
		 -> INT0_App_ISR(), NULL(), 

    INT2_Set_Interrupt_Handler@Interrupt_Handler	PTR FTN()void  size(2) Largest target is 1
		 -> INT0_App_ISR(), 

    Interrupt_INTx_Clear_Flag@int_obj	PTR const struct . size(1) Largest target is 6
		 -> int0_obj(BANK0[6]), 

    Interrupt_INTx_Clear_Flag@int_obj$EXT_interrupt_handler	PTR FTN()void  size(2) Largest target is 1
		 -> INT0_App_ISR(), 

    Interrupt_INTx_Disable@int_obj	PTR const struct . size(1) Largest target is 6
		 -> int0_obj(BANK0[6]), 

    Interrupt_INTx_Disable@int_obj$EXT_interrupt_handler	PTR FTN()void  size(2) Largest target is 1
		 -> INT0_App_ISR(), 

    Interrupt_INTx_Edge_Init@int_obj	PTR const struct . size(1) Largest target is 6
		 -> int0_obj(BANK0[6]), 

    Interrupt_INTx_Edge_Init@int_obj$EXT_interrupt_handler	PTR FTN()void  size(2) Largest target is 1
		 -> INT0_App_ISR(), 

    Interrupt_INTx_Enable@int_obj	PTR const struct . size(1) Largest target is 6
		 -> int0_obj(BANK0[6]), 

    Interrupt_INTx_Enable@int_obj$EXT_interrupt_handler	PTR FTN()void  size(2) Largest target is 1
		 -> INT0_App_ISR(), 

    Interrupt_INTx_Init@int_obj	PTR const struct . size(1) Largest target is 6
		 -> int0_obj(BANK0[6]), 

    Interrupt_INTx_Pin_Init@int_obj	PTR const struct . size(1) Largest target is 6
		 -> int0_obj(BANK0[6]), 

    Interrupt_INTx_Pin_Init@int_obj$EXT_interrupt_handler	PTR FTN()void  size(2) Largest target is 1
		 -> INT0_App_ISR(), 

    Interrupt_INTx_Set_Interrupt_Handler@int_obj	PTR const struct . size(1) Largest target is 6
		 -> int0_obj(BANK0[6]), 

    Interrupt_INTx_Set_Interrupt_Handler@int_obj$EXT_interrupt_handler	PTR FTN()void  size(2) Largest target is 1
		 -> INT0_App_ISR(), 

    lat_registers	PTR volatile unsigned char [5] size(2) Largest target is 1
		 -> LATA(BITBIGSFRll[1]), LATB(BITBIGSFRhl[1]), LATC(BITBIGSFRhl[1]), LATD(BITBIGSFRhl[1]), 
		 -> LATE(BITBIGSFRhl[1]), 

    led_initialize@led	PTR const struct . size(1) Largest target is 1
		 -> led1(COMRAM[1]), 

    led_toggle@led	PTR const struct . size(1) Largest target is 1
		 -> led1(COMRAM[1]), 

    port_registers	PTR volatile unsigned char [5] size(2) Largest target is 1
		 -> PORTA(BITBIGSFRll[1]), PORTB(BITBIGSFRlh[1]), PORTC(BITBIGSFRlh[1]), PORTD(BITBIGSFRlh[1]), 
		 -> PORTE(BITBIGSFRlh[1]), 

    S2133$buffer	PTR unsigned char  size(2) Largest target is 0

    S2133$source	PTR const unsigned char  size(2) Largest target is 0

    S775$EXT_interrupt_handler	PTR FTN()void  size(2) Largest target is 1
		 -> INT0_App_ISR(), 

    sp__memset	PTR void  size(2) Largest target is 0

    tris_registers	PTR volatile unsigned char [5] size(2) Largest target is 1
		 -> TRISA(BITBIGSFRhl[1]), TRISB(BITBIGSFRhhll[1]), TRISC(BITBIGSFRhhll[1]), TRISD(BITBIGSFRhhll[1]), 
		 -> TRISE(BITBIGSFRhhll[1]), 

    vfprintf$0	PTR struct _IO_FILE size(1) Largest target is 12
		 -> snprintf@f(COMRAM[12]), 

    vfprintf$1	PTR const unsigned char  size(1) Largest target is 3
		 -> STR_1(CODE[3]), STR_2(CODE[3]), 

    vfprintf$2	PTR PTR void  size(1) Largest target is 1
		 -> snprintf@ap(COMRAM[1]), 


Critical Paths under _main in COMRAM

    _Interrupt_INTx_Init->_Interrupt_INTx_Set_Interrupt_Handler
    _Interrupt_INTx_Set_Interrupt_Handler->_INT0_Set_Interrupt_Handler
    _Interrupt_INTx_Set_Interrupt_Handler->_INT1_Set_Interrupt_Handler
    _Interrupt_INTx_Set_Interrupt_Handler->_INT2_Set_Interrupt_Handler
    _gpio_pin_initialize->_gpio_pin_direction_initialize

Critical Paths under _Interrupt_Manager in COMRAM

    _INT0_App_ISR->_led_toggle
    _led_toggle->_gpio_pin_toggle_logic

Critical Paths under _main in BANK0

    _main->_Interrupt_INTx_Init
    _main->_led_initialize
    _led_initialize->_gpio_pin_initialize
    _Interrupt_INTx_Init->_Interrupt_INTx_Pin_Init
    _Interrupt_INTx_Pin_Init->_gpio_pin_initialize
    _gpio_pin_initialize->_gpio_pin_direction_initialize

Critical Paths under _Interrupt_Manager in BANK0

    None.

Critical Paths under _main in BANK1

    None.

Critical Paths under _Interrupt_Manager in BANK1

    None.

Critical Paths under _main in BANK2

    None.

Critical Paths under _Interrupt_Manager in BANK2

    None.

Critical Paths under _main in BANK3

    None.

Critical Paths under _Interrupt_Manager in BANK3

    None.

Critical Paths under _main in BANK4

    None.

Critical Paths under _Interrupt_Manager in BANK4

    None.

Critical Paths under _main in BANK5

    None.

Critical Paths under _Interrupt_Manager in BANK5

    None.

Critical Paths under _main in BANK6

    None.

Critical Paths under _Interrupt_Manager in BANK6

    None.

Critical Paths under _main in BANK7

    None.

Critical Paths under _Interrupt_Manager in BANK7

    None.

Critical Paths under _main in BANK8

    None.

Critical Paths under _Interrupt_Manager in BANK8

    None.

Critical Paths under _main in BANK9

    None.

Critical Paths under _Interrupt_Manager in BANK9

    None.

Critical Paths under _main in BANK10

    None.

Critical Paths under _Interrupt_Manager in BANK10

    None.

Critical Paths under _main in BANK11

    None.

Critical Paths under _Interrupt_Manager in BANK11

    None.

Critical Paths under _main in BANK12

    None.

Critical Paths under _Interrupt_Manager in BANK12

    None.

Critical Paths under _main in BANK13

    None.

Critical Paths under _Interrupt_Manager in BANK13

    None.

Critical Paths under _main in BANK14

    None.

Critical Paths under _Interrupt_Manager in BANK14

    None.

Critical Paths under _main in BANK15

    None.

Critical Paths under _Interrupt_Manager in BANK15

    None.

Call Graph Tables:

 ---------------------------------------------------------------------------------
 (Depth) Function   	        Calls       Base Space   Used Autos Params    Refs
 ---------------------------------------------------------------------------------
 (0) _main                                                 1     1      0    7641
                                              8 BANK0      1     1      0
                _Interrupt_INTx_Init
                   _application_init
                     _led_initialize
 ---------------------------------------------------------------------------------
 (1) _led_initialize                                       4     3      1    2688
                                              4 BANK0      4     3      1
                _gpio_pin_initialize
 ---------------------------------------------------------------------------------
 (1) _application_init                                     1     1      0     102
                                             14 COMRAM     1     1      0
               _ecu_layer_initialize
 ---------------------------------------------------------------------------------
 (2) _ecu_layer_initialize                                 1     1      0      65
 ---------------------------------------------------------------------------------
 (1) _Interrupt_INTx_Init                                  2     1      1    4811
                                              6 BANK0      2     1      1
          _Interrupt_INTx_Clear_Flag
             _Interrupt_INTx_Disable
           _Interrupt_INTx_Edge_Init
              _Interrupt_INTx_Enable
            _Interrupt_INTx_Pin_Init
_Interrupt_INTx_Set_Interrupt_Handle
 ---------------------------------------------------------------------------------
 (2) _Interrupt_INTx_Set_Interrupt_Handler                 4     3      1     861
                                             17 COMRAM     3     2      1
                                              0 BANK0      1     1      0
         _INT0_Set_Interrupt_Handler
         _INT1_Set_Interrupt_Handler
         _INT2_Set_Interrupt_Handler
 ---------------------------------------------------------------------------------
 (3) _INT2_Set_Interrupt_Handler                           3     1      2     189
                                             14 COMRAM     3     1      2
 ---------------------------------------------------------------------------------
 (3) _INT1_Set_Interrupt_Handler                           3     1      2     189
                                             14 COMRAM     3     1      2
 ---------------------------------------------------------------------------------
 (3) _INT0_Set_Interrupt_Handler                           3     1      2     189
                                             14 COMRAM     3     1      2
 ---------------------------------------------------------------------------------
 (2) _Interrupt_INTx_Pin_Init                              2     1      1    2562
                                              4 BANK0      2     1      1
                _gpio_pin_initialize
 ---------------------------------------------------------------------------------
 (2) _gpio_pin_initialize                                  3     2      1    2370
                                              1 BANK0      3     2      1
      _gpio_pin_direction_initialize
 ---------------------------------------------------------------------------------
 (3) _gpio_pin_direction_initialize                        7     6      1    1067
                                             14 COMRAM     6     5      1
                                              0 BANK0      1     1      0
 ---------------------------------------------------------------------------------
 (2) _Interrupt_INTx_Enable                                4     3      1     168
                                             14 COMRAM     3     2      1
 ---------------------------------------------------------------------------------
 (2) _Interrupt_INTx_Edge_Init                             4     3      1     387
                                             14 COMRAM     4     3      1
 ---------------------------------------------------------------------------------
 (2) _Interrupt_INTx_Disable                               4     3      1     282
                                             14 COMRAM     4     3      1
 ---------------------------------------------------------------------------------
 (2) _Interrupt_INTx_Clear_Flag                            4     3      1     192
                                             14 COMRAM     4     3      1
 ---------------------------------------------------------------------------------
 Estimated maximum stack depth 3
 ---------------------------------------------------------------------------------
 (Depth) Function   	        Calls       Base Space   Used Autos Params    Refs
 ---------------------------------------------------------------------------------
 (5) _Interrupt_Manager                                    6     6      0     374
                                              8 COMRAM     6     6      0
                           _INT0_ISR
 ---------------------------------------------------------------------------------
 (6) _INT0_ISR                                             0     0      0     374
                                NULL *
                       _INT0_App_ISR *
 ---------------------------------------------------------------------------------
 (7) _INT0_App_ISR                                         0     0      0     374
                         _led_toggle
 ---------------------------------------------------------------------------------
 (8) _led_toggle                                           4     3      1     374
                                              5 COMRAM     3     2      1
              _gpio_pin_toggle_logic
 ---------------------------------------------------------------------------------
 (9) _gpio_pin_toggle_logic                                6     5      1     172
                                              0 COMRAM     5     4      1
 ---------------------------------------------------------------------------------
 (7) NULL(Fake)                                            0     0      0       0
 ---------------------------------------------------------------------------------
 Estimated maximum stack depth 9
 ---------------------------------------------------------------------------------

 Call Graph Graphs:

 _main (ROOT)
   _Interrupt_INTx_Init
     _Interrupt_INTx_Clear_Flag
     _Interrupt_INTx_Disable
     _Interrupt_INTx_Edge_Init
     _Interrupt_INTx_Enable
     _Interrupt_INTx_Pin_Init
       _gpio_pin_initialize
         _gpio_pin_direction_initialize
     _Interrupt_INTx_Set_Interrupt_Handler
       _INT0_Set_Interrupt_Handler
       _INT1_Set_Interrupt_Handler
       _INT2_Set_Interrupt_Handler
   _application_init
     _ecu_layer_initialize
   _led_initialize
     _gpio_pin_initialize

 _Interrupt_Manager (ROOT)
   _INT0_ISR
     NULL(Fake) *
     _INT0_App_ISR *
       _led_toggle
         _gpio_pin_toggle_logic

 Address spaces:
Name               Size   Autos  Total    Cost      Usage
BIGRAM             F5F      0       0      42        0.0%
EEDATA             400      0       0       0        0.0%
BITBANK14          100      0       0      32        0.0%
BANK14             100      0       0      33        0.0%
BITBANK13          100      0       0      30        0.0%
BANK13             100      0       0      31        0.0%
BITBANK12          100      0       0      28        0.0%
BANK12             100      0       0      29        0.0%
BITBANK11          100      0       0      26        0.0%
BANK11             100      0       0      27        0.0%
BITBANK10          100      0       0      24        0.0%
BANK10             100      0       0      25        0.0%
BITBANK9           100      0       0      22        0.0%
BANK9              100      0       0      23        0.0%
BITBANK8           100      0       0      20        0.0%
BANK8              100      0       0      21        0.0%
BITBANK7           100      0       0      18        0.0%
BANK7              100      0       0      19        0.0%
BITBANK6           100      0       0      16        0.0%
BANK6              100      0       0      17        0.0%
BITBANK5           100      0       0      14        0.0%
BANK5              100      0       0      15        0.0%
BITBANK4           100      0       0      12        0.0%
BANK4              100      0       0      13        0.0%
BITBANK3           100      0       0      10        0.0%
BANK3              100      0       0      11        0.0%
BITBANK2           100      0       0       8        0.0%
BANK2              100      0       0       9        0.0%
BITBANK1           100      0       0       6        0.0%
BANK1              100      0       0       7        0.0%
BITBANK0            A0      0       0       4        0.0%
BANK0               A0      9      75       5       73.1%
BITBANK15           60      0       0      34        0.0%
BANK15              60      0       0      35        0.0%
BITCOMRAM           5E      0       0       0        0.0%
COMRAM              5E     14      50       1       85.1%
BITBIGSFRhhll       59      0       0      37        0.0%
BITBIGSFRll         20      0       0      40        0.0%
BITBIGSFRhhh         D      0       0      36        0.0%
BITBIGSFRlh          4      0       0      39        0.0%
BITBIGSFRhl          4      0       0      38        0.0%
BIGSFR               0      0       0     200        0.0%
BITSFR               0      0       0     200        0.0%
SFR                  0      0       0     200        0.0%
STACK                0      0       0       2        0.0%
NULL                 0      0       0       0        0.0%
ABS                  0      0      C5      41        0.0%
DATA                 0      0      C5       3        0.0%
CODE                 0      0       0       0        0.0%


Microchip Technology PIC18 Macro Assembler V2.46 build 20240104201356 
Symbol Table                                                                                   Mon Aug 05 04:24:51 2024

                            ??_Interrupt_Manager 0045                  button_read_state@btn_high_valid 002D  
             __end_of_INT0_Set_Interrupt_Handler 1842                       _INT0_Set_Interrupt_Handler 1818  
                                            l414 187A                                              l342 13FE  
                                            l601 14DC                                              l338 13A8  
                                            l471 125E                                              l640 154A  
                                            l624 1148                                              l635 14FA  
                                            l459 172C                                              l660 1840  
                                            l564 15B2                                              l637 1500  
                                            l629 17C2                                              l638 1506  
                                            l590 146E                                              l670 17EC  
                                            l585 1414                                              l665 1816  
                                            l681 1306                                              l587 141E  
                                            l596 148C                                              l588 1428  
                                            l598 1492                                              l599 1498  
                                            l970 186C                                              l964 1766  
                                            l965 1762                                              l966 1762  
                            led_initialize@F3158 0038                    INT0_Set_Interrupt_Handler@ret 004D  
                                            tosl 0FFD                                              wreg 0FE8  
                          relay_initialize@F3148 0034                                             l5011 1188  
                                           l5013 11D8                                             l5021 125A  
                                           l5005 114A                                             l5007 1160  
                                           l5031 171E                                             l5009 1180  
                                           l5033 172A                                             l5025 16E4  
                                           l6001 154C                                             l5019 122E  
                                           l5027 16F6                                             l5211 1836  
                                           l6011 15A6                                             l6003 1562  
                                           l5029 1716                                             l5213 183E  
                                           l5205 1818                                             l5221 1804  
                                           l6013 15AE                                             l6005 156A  
                                           l6021 186A                                             l5207 181C  
                                           l5223 180C                                             l5231 17C8  
                                           l6007 158E                                             l5209 182E  
                                           l5225 1814                                             l5217 17EE  
                                           l5233 17DA                                             l6009 159A  
                                           l6017 1864                                             l5219 17F2  
                                           l5235 17E2                                             l6019 1864  
                                           l5405 149E                                             l5237 17EA  
                                           l5229 17C4                                             l5423 150C  
                                           l5415 14DE                                             l5407 14DA  
                                           l5425 1548                                             l5417 14F2  
                                           l5441 106A                                             l5433 102E  
                                           l5505 12C8                                             l5451 10AA  
                                           l5443 1084                                             l5435 1042  
                                           l5523 1432                                             l5515 1400  
                                           l5507 1304                                             l5461 10EA  
                                           l5453 10C4                                             l5437 104A  
                                           l5517 1410                                             l5463 1104  
                                           l5447 108A                                             l5439 1064  
                                           l5471 110A                                             l5391 1878  
                                           l5457 10CA                                             l5449 10A4  
                                           l5473 1146                                             l5481 1798  
                                           l5393 1878                                             l6361 172E  
                                           l5459 10E4                                             l5483 17AA  
                                           l5491 1260                                             l6363 1736  
                                           l5397 1470                                             l5485 17B2  
                                           l5493 1270                                             l5901 13F2  
                                           l5399 1484                                             l6471 1450  
                                           l5487 17C0                                             l5495 127A  
                                           l5903 13FA                                             l6367 174A  
                                           l6473 1128                                             l5497 1294  
                                           l6475 14BC                                             l5499 12AE  
                                           l6477 152A                                             l6469 12E6  
                                           l5891 138A                                             l5893 13A0  
                                           l5895 13AC                                             l5897 13DE  
                                           l5899 13E0                                             STR_1 1029  
                                           STR_3 101E                                             STR_4 1011  
                                           _LATA 0F89                                             _LATB 0F8A  
                                           _LATC 0F8B                                             _LATD 0F8C  
                                           _LATE 0F8D                                             u4200 1160  
                                           u4201 115C                                             u4210 1180  
                                           u4211 117C                                             u4240 1244  
                                           u4224 11A6                                             u4241 123E  
                                           u4225 11A2                                             u4234 11F6  
                                           u4250 16F6                                             u4235 11F2  
                                           u4251 16F2                                             u4260 1716  
                                           u4500 1804                                             u4261 1712  
                                           u4501 1800                                             u4246 1246  
                                           u4510 17DA                                             u4511 17D6  
                                           u5420 13A0                                             u5421 139C  
                                           u4800 14F2                                             u4801 14EE  
                                           u4810 1042                                             u4490 182E  
                                           u4811 103E                                             u4491 182A  
                                           u5435 13EE                                             u4820 1064  
                                           u4900 1410                                             u4821 1060  
                                           u4901 140C                                             u5437 13F2  
                                           u4830 1084                                             u4831 1080  
                                           u4840 10A4                                             u5800 1746  
                                           u4841 10A0                                             u5801 1742  
                                           u4850 10C4                                             u4851 10C0  
                                           u4860 10E4                                             u4861 10E0  
                                           u4790 1484                                             u4870 1104  
                                           u5590 1562                                             u4791 1480  
                                           u4871 1100                                             u5591 155E  
                                           u4880 17AA                                             u4881 17A6  
                                           u4890 1270                                             u4891 126C  
                      __end_of_Interrupt_Manager 005E                                    ?_INT0_App_ISR 003D  
                                           _led1 0022                                             _led2 0021  
                                           _seg1 000A                                             _main 172E  
                                           fsr2h 0FDA                                             indf2 0FDF  
                                           fsr1l 0FE1                                             fsr2l 0FD9  
                                           btemp 0051                           __end_of_led_initialize 1400  
                                           prodh 0FF4                                             prodl 0FF3  
                                           start 005E                 gpio_pin_initialize@_pin_config_t 00C7  
                                   ___param_bank 0000                           ?_gpio_pin_toggle_logic 003D  
                               __end_of_INT0_ISR 1798                        ?_Interrupt_INTx_Edge_Init 004B  
                                          ?_main 003D      INT2_Set_Interrupt_Handler@Interrupt_Handler 004B  
    INT1_Set_Interrupt_Handler@Interrupt_Handler 004B      INT0_Set_Interrupt_Handler@Interrupt_Handler 004B  
                         _INT0_INTERRUPT_HANDLER 0029                                            i2l504 1388  
                                          i2l363 167E                                            i2l359 162E  
                                          i2l703 0042                                            i2l685 1796  
                                          i2l956 1876                              relay_turn_off@F3158 0032  
                                          _PORTA 0F80                                            _PORTB 0F81  
                                          _PORTC 0F82                                            _PORTD 0F83  
                                          _PORTE 0F84                                            _TRISA 0F92  
                                          _TRISB 0F93                                            _TRISC 0F94  
                                          _TRISD 0F95                                            _TRISE 0F96  
btn_high_magic_button@btn_high_last_valid_status 003B          Interrupt_INTx_Set_Interrupt_Handler@ret 00C6  
                                          _lcd_1 0004                                            _lcd_2 007E  
                                          _count 002F                                            _errno 0023  
                                          _funcs 00CF                                            _hours 0003  
                                          _value 003C                                            pclath 0FFA  
                                          pclatu 0FFB                                            tablat 0FF5  
                                 ??_INT0_App_ISR 0045                                            ttemp5 0052  
                                          ttemp6 0055                                            ttemp7 0059  
                                          status 0FD8                                            wtemp8 0052  
                                ?_led_initialize 00CA                           _Interrupt_INTx_Disable 1470  
                 ?_gpio_pin_direction_initialize 004B                                  __initialization 1680  
                                   __end_of_main 176A      Interrupt_INTx_Set_Interrupt_Handler@int_obj 004E  
                                  _lat_registers 0074                                           ??_main 0051  
                                  __activetblptr 0003                     ??_INT1_Set_Interrupt_Handler 004D  
                               led_turn_on@F3163 0037                     Interrupt_INTx_Enable@int_obj 004B  
                                         i2l3391 1338                                           i2l3393 133C  
                                         i2l3387 1308                                           i2l3389 1318  
                                         i2l3581 1632                                           i2l4461 176C  
                                         i2l3583 1664                                           i2l4463 177E  
                                         i2l3585 1666                                           i2l3577 161A  
                                         i2l3587 1676                                           i2l3579 162A  
                                         i2l4459 176A                                           i2l3929 186E  
                                         i2l4593 0022                                           i2l4595 0030  
                                         i2l4597 003E                       ?_Interrupt_INTx_Clear_Flag 004B  
                                         clear_0 16D4                                           _relay1 0020  
                                         _relay2 001F                                           isa$std 0001  
                  __end_of_Interrupt_INTx_Enable 1470                                     __pdataCOMRAM 0001  
                                   __mediumconst 0000                                           tblptrh 0FF7  
                                         tblptrl 0FF6                                           tblptru 0FF8  
                                     __accesstop 0060                          __end_of__initialization 16DA  
                                      ?_INT0_ISR 003D                                    ___rparam_used 0001  
              __end_of_Interrupt_INTx_Clear_Flag 154C                                led_initialize@led 00CA  
                              led_initialize@pin 00CD                                led_initialize@ret 00CC  
                        _Interrupt_INTx_Pin_Init 1798                                   __pcstackCOMRAM 003D  
                               _application_init 1864                                     __pidataBANK0 15B4  
                           __end_of_INT0_App_ISR 1878                      ?_INT0_Set_Interrupt_Handler 004B  
                    __end_of_Interrupt_INTx_Init 15B4                                       _dc_motor_1 0017  
                                     _dc_motor_2 0015     __end_of_Interrupt_INTx_Set_Interrupt_Handler 1308  
         ??_Interrupt_INTx_Set_Interrupt_Handler 004F            ?_Interrupt_INTx_Set_Interrupt_Handler 004E  
           _Interrupt_INTx_Set_Interrupt_Handler 1260                                       __pbssBANK0 00CF  
                                     ??_INT0_ISR 0045                 __end_of_Interrupt_INTx_Edge_Init 114A  
                        ??_gpio_pin_toggle_logic 003E                                led_turn_off@F3168 0036  
                                  led_toggle@led 0042                                    led_toggle@pin 0044  
                                led_toggle@F3173 0035               __end_of_INT1_Set_Interrupt_Handler 1818  
                     _INT1_Set_Interrupt_Handler 17EE                                 ??_led_initialize 00CB  
                                     _btn_values 1001                          ?_Interrupt_INTx_Disable 004B  
                                     _led_toggle 161A                                   _tris_registers 006A  
                      ??_Interrupt_INTx_Pin_Init 0051                    INT1_Set_Interrupt_Handler@ret 004D  
                                        __Hparam 0000                                          __Lparam 0000  
                            _gpio_pin_initialize 16E4                                     __psmallconst 1000  
                                        __pcinit 1680                                          __ramtop 1000  
                                        __ptext0 172E                                          __ptext1 138A  
                                        __ptext2 1864                                          __ptext3 1878  
                                        __ptext4 154C                                          __ptext5 1260  
                                        __ptext6 17C4                                          __ptext7 17EE  
                                        __ptext8 1818                                          __ptext9 1798  
                                        _btn_low 0012                           _INT1_INTERRUPT_HANDLER 0027  
                ??_gpio_pin_direction_initialize 004C                                          _counter 0030  
                                        _keypad1 0088                                          _custom1 00B8  
                                        _custom2 00B0                                          _custom3 00A8  
                                        _custom4 00A0                                          _custom5 0098  
                                        _custom6 0090                                          _seg_val 0031  
                                        _minutes 0002                                          _seconds 0001  
                           ?_gpio_pin_initialize 00C7                   __end_of_Interrupt_INTx_Disable 14DE  
                                        main@ret 00CE                             end_of_initialization 16DA  
                    ??_Interrupt_INTx_Clear_Flag 004C                                          postdec1 0FE5  
                                        postdec2 0FDD                         _Interrupt_INTx_Edge_Init 102E  
                                        postinc0 0FEE                                          postinc2 0FDE  
                   ??_INT2_Set_Interrupt_Handler 004D                            ??_gpio_pin_initialize 00C8  
                       __end_of_application_init 186E                                      ?_led_toggle 0042  
                    Interrupt_INTx_Edge_Init@ret 004E                                     _INT0_App_ISR 186E  
                             relay_turn_on@F3153 0033               gpio_pin_toggle_logic@_pin_config_t 003D  
                         Interrupt_INTx_Init@ret 00CD                                    __pidataCOMRAM 1842  
                  Interrupt_INTx_Disable@int_obj 004B                                 turn_on_leds@_POS 0039  
                      _Interrupt_INTx_Clear_Flag 14DE                   button_read_state@btn_low_valid 002B  
                          _Interrupt_INTx_Enable 1400                              start_initialization 1680  
          __end_of_gpio_pin_direction_initialize 1260                    _gpio_pin_direction_initialize 114A  
                  __end_of_gpio_pin_toggle_logic 138A                              application_init@ret 004B  
                                    __pdataBANK0 0060                     __end_of_ecu_layer_initialize 187C  
                    ?_INT1_Set_Interrupt_Handler 004B                                      __pbssCOMRAM 0023  
                                  __pcstackBANK0 00C6                  btn_high_magic_button@led_status 003A  
                                      __pintcode 0008               __end_of_INT2_Set_Interrupt_Handler 17EE  
                     _INT2_Set_Interrupt_Handler 17C4                           ?_Interrupt_INTx_Enable 004B  
                                    __smallconst 1000                  Interrupt_INTx_Edge_Init@int_obj 004B  
                     ??_Interrupt_INTx_Edge_Init 004C                                         _INT0_ISR 176A  
                                       i2u215_40 1318                                         i2u215_41 1314  
                                       i2u216_40 1338                                         i2u216_41 1334  
                                       i2u217_44 135A                                         i2u217_45 1356  
                                       i2u242_40 162A                                         i2u242_41 1626  
                                       i2u243_45 1674                                         i2u243_47 1676  
                                       i2u367_40 177E                                         i2u367_41 177A  
                                       i2u392_40 0030                                         i2u392_41 002C  
                                       i2u368_48 1784                                         i2u393_40 003E  
                                       i2u368_49 1796                                         i2u393_41 003A  
                 Interrupt_INTx_Pin_Init@int_obj 00CA                 gpio_pin_direction_initialize@ret 00C6  
     gpio_pin_direction_initialize@_pin_config_t 004B                           _INT2_INTERRUPT_HANDLER 0025  
                  INT2_Set_Interrupt_Handler@ret 004D                           gpio_pin_initialize@ret 00C9  
                                    _seg1_enable 001E                                      _seg2_enable 001D  
                                    _seg3_enable 001C                                      _seg4_enable 001B  
                              ?_application_init 003D                                      _INTCON2bits 0FF1  
                                    _INTCON3bits 0FF0                                      _seg5_enable 001A  
                                      copy_data0 1694                                        copy_data1 16B4  
                                    _seg6_enable 0019                         ?_Interrupt_INTx_Pin_Init 00CA  
                                   ??_led_toggle 0043                               ??_application_init 004B  
                           _ecu_layer_initialize 1878                                         __Hrparam 0000  
                                       __Lrparam 0000                        Interrupt_INTx_Disable@ret 004E  
                     Interrupt_INTx_Init@int_obj 00CC                      __end_of_gpio_pin_initialize 172E  
                             __end_of_btn_values 1011                               __end_of_led_toggle 1680  
                   ??_INT0_Set_Interrupt_Handler 004D                                         __ptext10 16E4  
                                       __ptext11 114A                                         __ptext20 1308  
                                       __ptext12 1400                                         __ptext13 102E  
                                       __ptext14 1470                                         __ptext15 14DE  
                                       __ptext17 176A                                         __ptext18 186E  
                                       __ptext19 161A                                         _int0_obj 00C0  
                                       _btn_high 000F                 Interrupt_INTx_Clear_Flag@int_obj 004B  
                          ?_ecu_layer_initialize 003D                                         isa$xinst 0000  
                                       int$flags 0051                         ??_Interrupt_INTx_Disable 004C  
                            _Interrupt_INTx_Init 154C                                       _INTCONbits 0FF2  
                __end_of_Interrupt_INTx_Pin_Init 17C4                                         intlevel2 0000  
                   Interrupt_INTx_Clear_Flag@ret 004E                             ?_Interrupt_INTx_Init 00CC  
                     Interrupt_INTx_Pin_Init@ret 00CB                            _gpio_pin_toggle_logic 1308  
                        ??_Interrupt_INTx_Enable 004C                      ?_INT2_Set_Interrupt_Handler 004B  
                                 _port_registers 0060                           ??_ecu_layer_initialize 004B  
                          ??_Interrupt_INTx_Init 0051                                _Interrupt_Manager 0008  
                                 _led_initialize 138A                               ?_Interrupt_Manager 003D  
